Certificate:
    Data:
        Version: 3 (0x2)
        Serial Number:
            99:db:fb:a0:7d:64:c7:e4
        Signature Algorithm: sha1WithRSAEncryption
        Issuer: C=cn, ST=bj, O=hx, OU=hx, CN=zsxxsz/emailAddress=zsxxsz@263.net
        Validity
            Not Before: Jul  3 02:54:41 2009 GMT
            Not After : Jul  2 02:54:41 2012 GMT
        Subject: C=cn, ST=bj, O=hx, OU=hx, CN=zsxxsz/emailAddress=zsxxsz@263.net
        Subject Public Key Info:
            Public Key Algorithm: rsaEncryption
                Public-Key: (1024 bit)
                Modulus:
                    00:ad:46:24:9c:e3:60:e0:86:47:4f:11:78:d4:bc:
                    e6:cb:f9:d1:0e:16:25:9a:d3:7d:d6:a8:b1:26:cb:
                    d3:4b:d0:f2:3d:1b:71:e5:8c:fb:71:f7:6a:92:eb:
                    0f:66:b1:f2:2e:09:b3:9b:32:ef:28:d1:f4:0d:0b:
                    5a:b6:a9:a6:d7:42:77:a7:8a:42:12:f5:b6:21:50:
                    9c:6c:e2:bd:6d:8c:d0:bd:89:00:17:af:8f:a8:f0:
                    83:eb:8c:8d:71:07:4f:c4:34:b9:cf:28:32:99:98:
                    a2:3c:2c:e9:3c:ec:c3:0a:5b:c2:8d:64:79:d7:f7:
                    86:d7:00:51:14:fd:46:8f:9f
                Exponent: 65537 (0x10001)
        X509v3 extensions:
            X509v3 Subject Key Identifier: 
                5C:E4:76:38:12:00:15:9D:0D:41:CB:0C:AA:0D:F3:8C:FC:8E:E0:90
            X509v3 Authority Key Identifier: 
                keyid:5C:E4:76:38:12:00:15:9D:0D:41:CB:0C:AA:0D:F3:8C:FC:8E:E0:90

            X509v3 Basic Constraints: 
                CA:TRUE
    Signature Algorithm: sha1WithRSAEncryption
        76:ec:7c:bb:44:e9:cc:10:5d:8f:51:53:fc:32:f3:8e:c7:7d:
        d9:08:ae:46:5b:08:52:be:21:db:da:61:8c:1f:d8:1c:00:1e:
        24:12:a7:a1:2b:23:cf:c2:d1:78:63:a6:34:38:0e:b8:f4:08:
        fa:60:49:93:26:a7:a0:37:5b:a3:79:06:77:1e:9d:cd:e5:a5:
        99:06:89:c4:34:6f:57:4d:7e:4c:b9:64:91:e1:f5:4e:02:1c:
        2e:28:28:d6:7f:9b:c1:71:1e:0c:ef:51:d1:65:16:3a:1a:75:
        2e:5c:93:dd:a5:4b:c5:4f:f2:c5:d7:1d:cd:7e:7d:33:a1:2b:
        2c:e0
-----BEGIN CERTIFICATE-----
MIICljCCAf+gAwIBAgIJAJnb+6B9ZMfkMA0GCSqGSIb3DQEBBQUAMGQxCzAJBgNV
BAYTAmNuMQswCQYDVQQIDAJiajELMAkGA1UECgwCaHgxCzAJBgNVBAsMAmh4MQ8w
DQYDVQQDDAZ6c3h4c3oxHTAbBgkqhkiG9w0BCQEWDnpzeHhzekAyNjMubmV0MB4X
DTA5MDcwMzAyNTQ0MVoXDTEyMDcwMjAyNTQ0MVowZDELMAkGA1UEBhMCY24xCzAJ
BgNVBAgMAmJqMQswCQYDVQQKDAJoeDELMAkGA1UECwwCaHgxDzANBgNVBAMMBnpz
eHhzejEdMBsGCSqGSIb3DQEJARYOenN4eHN6QDI2My5uZXQwgZ8wDQYJKoZIhvcN
AQEBBQADgY0AMIGJAoGBAK1GJJzjYOCGR08ReNS85sv50Q4WJZrTfdaosSbL00vQ
8j0bceWM+3H3apLrD2ax8i4Js5sy7yjR9A0LWrapptdCd6eKQhL1tiFQnGzivW2M
0L2JABevj6jwg+uMjXEHT8Q0uc8oMpmYojws6Tzswwpbwo1kedf3htcAURT9Ro+f
AgMBAAGjUDBOMB0GA1UdDgQWBBRc5HY4EgAVnQ1BywyqDfOM/I7gkDAfBgNVHSME
GDAWgBRc5HY4EgAVnQ1BywyqDfOM/I7gkDAMBgNVHRMEBTADAQH/MA0GCSqGSIb3
DQEBBQUAA4GBAHbsfLtE6cwQXY9RU/wy847HfdkIrkZbCFK+IdvaYYwf2BwAHiQS
p6ErI8/C0XhjpjQ4Drj0CPpgSZMmp6A3W6N5Bncenc3lpZkGicQ0b1dNfky5ZJHh
9U4CHC4oKNZ/m8FxHgzvUdFlFjoadS5ck92lS8VP8sXXHc1+fTOhKyzg
-----END CERTIFICATE-----
