Certificate:
    Data:
        Version: 3 (0x2)
        Serial Number:
            8a:71:b6:97:ac:93:93:af
        Signature Algorithm: sha1WithRSAEncryption
        Issuer: C=cn, ST=bj, O=hx, OU=hx, CN=zsxxsz/emailAddress=zsxxsz@263.net
        Validity
            Not Before: Jul  9 05:42:20 2009 GMT
            Not After : Jul  9 05:42:20 2010 GMT
        Subject: C=cn, ST=bj, O=hx, OU=hx, CN=zsxxsz@263.net/emailAddress=zsxxsz@263.net
        Subject Public Key Info:
            Public Key Algorithm: rsaEncryption
                Public-Key: (1024 bit)
                Modulus:
                    00:bc:d8:a3:4c:be:48:d5:ac:fc:30:4f:4b:23:61:
                    4f:20:ed:30:77:b2:f8:ba:42:4c:9a:cd:2a:75:c7:
                    52:13:28:83:ba:af:b2:3b:77:29:81:a5:78:d0:75:
                    2a:a2:d9:e2:71:ba:d9:05:62:ea:38:d3:d9:c4:73:
                    ab:54:90:26:94:b1:e3:c9:51:7a:25:b3:c3:cb:45:
                    83:15:35:6e:55:3d:61:ab:f2:0d:49:5a:e2:6d:0b:
                    a0:d3:ab:4c:8a:ee:25:70:59:76:d9:af:63:0d:d6:
                    b8:d7:c6:30:0c:b6:4a:61:f3:f7:c0:12:61:f6:e5:
                    4a:f5:54:ce:04:45:ed:5e:7b
                Exponent: 65537 (0x10001)
        X509v3 extensions:
            X509v3 Basic Constraints: 
                CA:FALSE
            Netscape Comment: 
                OpenSSL Generated Certificate
            X509v3 Subject Key Identifier: 
                AE:94:B0:7F:68:BC:FB:AE:66:AF:51:CF:6F:2B:82:5E:D7:36:08:55
            X509v3 Authority Key Identifier: 
                keyid:08:7D:CB:91:88:10:BA:75:F8:23:BE:DC:E9:5A:D4:CD:2E:43:D6:FB

    Signature Algorithm: sha1WithRSAEncryption
        97:a0:48:f3:31:b2:f1:2e:7f:2a:2d:7d:99:7c:a8:3a:b6:bc:
        be:d0:c5:a8:50:26:05:a0:8a:4c:e8:3b:ec:fe:1d:cb:f4:84:
        67:71:f1:bb:04:69:f9:d7:21:6a:08:d2:d5:e3:91:58:f4:3c:
        11:b4:b9:9c:d0:8f:98:09:18:14:0c:34:50:18:b2:53:0b:0d:
        d8:af:a2:2f:59:0b:f9:d6:7f:b6:8c:1f:85:87:46:20:c7:cf:
        0b:3b:a4:dc:9f:b5:92:f5:d8:23:0c:ed:b1:aa:cf:36:ab:5f:
        85:44:47:6d:ea:4e:f5:07:b0:17:fb:25:31:4b:be:37:63:b6:
        8e:2e
-----BEGIN CERTIFICATE-----
MIICyTCCAjKgAwIBAgIJAIpxtpesk5OvMA0GCSqGSIb3DQEBBQUAMGQxCzAJBgNV
BAYTAmNuMQswCQYDVQQIDAJiajELMAkGA1UECgwCaHgxCzAJBgNVBAsMAmh4MQ8w
DQYDVQQDDAZ6c3h4c3oxHTAbBgkqhkiG9w0BCQEWDnpzeHhzekAyNjMubmV0MB4X
DTA5MDcwOTA1NDIyMFoXDTEwMDcwOTA1NDIyMFowbDELMAkGA1UEBhMCY24xCzAJ
BgNVBAgMAmJqMQswCQYDVQQKDAJoeDELMAkGA1UECwwCaHgxFzAVBgNVBAMMDnpz
eHhzekAyNjMubmV0MR0wGwYJKoZIhvcNAQkBFg56c3h4c3pAMjYzLm5ldDCBnzAN
BgkqhkiG9w0BAQEFAAOBjQAwgYkCgYEAvNijTL5I1az8ME9LI2FPIO0wd7L4ukJM
ms0qdcdSEyiDuq+yO3cpgaV40HUqotnicbrZBWLqONPZxHOrVJAmlLHjyVF6JbPD
y0WDFTVuVT1hq/INSVribQug06tMiu4lcFl22a9jDda418YwDLZKYfP3wBJh9uVK
9VTOBEXtXnsCAwEAAaN7MHkwCQYDVR0TBAIwADAsBglghkgBhvhCAQ0EHxYdT3Bl
blNTTCBHZW5lcmF0ZWQgQ2VydGlmaWNhdGUwHQYDVR0OBBYEFK6UsH9ovPuuZq9R
z28rgl7XNghVMB8GA1UdIwQYMBaAFAh9y5GIELp1+CO+3Ola1M0uQ9b7MA0GCSqG
SIb3DQEBBQUAA4GBAJegSPMxsvEufyotfZl8qDq2vL7QxahQJgWgikzoO+z+Hcv0
hGdx8bsEafnXIWoI0tXjkVj0PBG0uZzQj5gJGBQMNFAYslMLDdivoi9ZC/nWf7aM
H4WHRiDHzws7pNyftZL12CMM7bGqzzarX4VER23qTvUHsBf7JTFLvjdjto4u
-----END CERTIFICATE-----
