 lib_acl_d

 Timestamp is 520a31c8 (Tue Aug 13 21:16:56 2013)

 Preferred load address is 10000000

 Start         Length     Name                   Class
 0001:00000000 0007323eH .text                   CODE
 0002:00000000 00000370H .idata$5                DATA
 0002:00000370 00000004H .CRT$XCA                DATA
 0002:00000374 00000004H .CRT$XCZ                DATA
 0002:00000378 00000004H .CRT$XIA                DATA
 0002:0000037c 00000004H .CRT$XIAA               DATA
 0002:00000380 00000008H .CRT$XIC                DATA
 0002:00000388 00000004H .CRT$XIZ                DATA
 0002:00000390 00041eb8H .rdata                  DATA
 0002:00042248 00000058H .rdata$debug            DATA
 0002:000422a0 00000004H .rdata$sxdata           DATA
 0002:000422a4 00000004H .rtc$IAA                DATA
 0002:000422a8 000002ecH .rtc$IMZ                DATA
 0002:00042594 00000004H .rtc$IZZ                DATA
 0002:00042598 00000004H .rtc$TAA                DATA
 0002:0004259c 000002ecH .rtc$TMZ                DATA
 0002:00042888 00000004H .rtc$TZZ                DATA
 0002:00042890 000000a4H .xdata$x                DATA
 0002:00042934 0000008cH .idata$2                DATA
 0002:000429c0 00000014H .idata$3                DATA
 0002:000429d4 00000370H .idata$4                DATA
 0002:00042d44 00000b98H .idata$6                DATA
 0002:000438e0 00007ec5H .edata                  DATA
 0003:00000000 0005b9acH .data                   DATA
 0003:0005b9b0 00006650H .bss                    DATA
 0004:00000000 000000a0H .rsrc$01                DATA
 0004:000000a0 00000438H .rsrc$02                DATA

  Address         Publics by Value              Rva+Base       Lib:Object

 0000:00000000       __except_list              00000000     <absolute>
 0000:00000001       ___safe_se_handler_count   00000001     <absolute>
 0000:00009876       __ldused                   00009876     <absolute>
 0000:00009876       __fltused                  00009876     <absolute>
 0000:00000000       ___ImageBase               10000000     <linker-defined>
 0001:00000000       _acl_base64_encode         10001000 f   acl_base64.obj
 0001:000001ed       _acl_base64_decode         100011ed f   acl_base64.obj
 0001:00000529       _acl_gbjt2ft               10001529 f   acl_gbcode.obj
 0001:0000054e       _acl_gbft2jt               1000154e f   acl_gbcode.obj
 0001:000006b5       _acl_html_encode           100016b5 f   acl_htmlcode.obj
 0001:000007f8       _acl_html_decode           100017f8 f   acl_htmlcode.obj
 0001:00000c91       _acl_url_encode            10001c91 f   acl_urlcode.obj
 0001:00000e33       _acl_url_decode            10001e33 f   acl_urlcode.obj
 0001:00000f80       _acl_vstring_base64_encode 10001f80 f   acl_vstring_base64.obj
 0001:00001416       _acl_vstring_base64_decode 10002416 f   acl_vstring_base64.obj
 0001:000016f6       _acl_xml_encode            100026f6 f   acl_xmlcode.obj
 0001:000017e2       _acl_xml_decode            100027e2 f   acl_xmlcode.obj
 0001:00001c0b       _uni2utf8                  10002c0b f   uni2utf8.obj
 0001:00001d17       _acl_chain_new             10002d17 f   acl_chunk_chain.obj
 0001:00001d82       _acl_chain_free            10002d82 f   acl_chunk_chain.obj
 0001:00001df5       _acl_chain_set_from_next   10002df5 f   acl_chunk_chain.obj
 0001:00001e20       _acl_chain_reset           10002e20 f   acl_chunk_chain.obj
 0001:00001e5a       _acl_chain_from_next       10002e5a f   acl_chunk_chain.obj
 0001:00001e67       _acl_chain_off_begin       10002e67 f   acl_chunk_chain.obj
 0001:00001e75       _acl_chain_data            10002e75 f   acl_chunk_chain.obj
 0001:00001e92       _acl_chain_data_len        10002e92 f   acl_chunk_chain.obj
 0001:00001ea3       _acl_chain_size            10002ea3 f   acl_chunk_chain.obj
 0001:00001f14       _acl_chain_chunk_data_len  10002f14 f   acl_chunk_chain.obj
 0001:00001f99       _acl_chain_add             10002f99 f   acl_chunk_chain.obj
 0001:000024ab       _acl_chain_list            100034ab f   acl_chunk_chain.obj
 0001:00002959       _acl_debug_end             10003959 f   acl_debug.obj
 0001:00002995       _acl_debug_init            10003995 f   acl_debug.obj
 0001:000029b0       _acl_debug_init2           100039b0 f   acl_debug.obj
 0001:00002bbd       _acl_do_debug              10003bbd f   acl_debug.obj
 0001:00002bfc       _acl_fopen                 10003bfc f   acl_file.obj
 0001:00002eb1       _acl_fclose                10003eb1 f   acl_file.obj
 0001:00002f06       _acl_clearerr              10003f06 f   acl_file.obj
 0001:00002f19       _acl_feof                  10003f19 f   acl_file.obj
 0001:00002f41       _acl_fread                 10003f41 f   acl_file.obj
 0001:00002fef       _acl_fgets                 10003fef f   acl_file.obj
 0001:0000304e       _acl_fgets_nonl            1000404e f   acl_file.obj
 0001:000030ad       _acl_fgetc                 100040ad f   acl_file.obj
 0001:0000317d       _acl_gets                  1000417d f   acl_file.obj
 0001:000031c4       _acl_gets_nonl             100041c4 f   acl_file.obj
 0001:0000320b       _acl_getchar               1000420b f   acl_file.obj
 0001:0000322b       _acl_fprintf               1000422b f   acl_file.obj
 0001:0000326b       _acl_vfprintf              1000426b f   acl_file.obj
 0001:000032cb       _acl_fwrite                100042cb f   acl_file.obj
 0001:00003340       _acl_fputs                 10004340 f   acl_file.obj
 0001:0000339c       _acl_printf                1000439c f   acl_file.obj
 0001:000033d8       _acl_vprintf               100043d8 f   acl_file.obj
 0001:0000341c       _acl_putc                  1000441c f   acl_file.obj
 0001:00003589       _acl_puts                  10004589 f   acl_file.obj
 0001:000035c9       _acl_putchar               100045c9 f   acl_file.obj
 0001:0000376e       _acl_fseek                 1000476e f   acl_file.obj
 0001:00003790       _acl_getopt_init           10004790 f   acl_getopt.obj
 0001:0000379c       _acl_getopt                1000479c f   acl_getopt.obj
 0001:0000397b       _acl_meter_time            1000497b f   acl_meter_time.obj
 0001:00003c05       _acl_msg_register          10004c05 f   acl_msg.obj
 0001:00003c38       _acl_msg_unregister        10004c38 f   acl_msg.obj
 0001:00003c59       _acl_msg_pre_write         10004c59 f   acl_msg.obj
 0001:00003c6e       _acl_msg_stdout_enable     10004c6e f   acl_msg.obj
 0001:00003c7b       _acl_msg_open              10004c7b f   acl_msg.obj
 0001:00003df6       _acl_msg_open2             10004df6 f   acl_msg.obj
 0001:00003e9b       _acl_msg_close             10004e9b f   acl_msg.obj
 0001:00003edf       _acl_msg_info              10004edf f   acl_msg.obj
 0001:00003fa5       _acl_msg_warn              10004fa5 f   acl_msg.obj
 0001:0000406b       _acl_msg_error             1000506b f   acl_msg.obj
 0001:00004131       _acl_msg_fatal             10005131 f   acl_msg.obj
 0001:00004229       _acl_msg_fatal_status      10005229 f   acl_msg.obj
 0001:000042eb       _acl_msg_panic             100052eb f   acl_msg.obj
 0001:000043ce       _acl_msg_info2             100053ce f   acl_msg.obj
 0001:0000447f       _acl_msg_warn2             1000547f f   acl_msg.obj
 0001:00004530       _acl_msg_error2            10005530 f   acl_msg.obj
 0001:000045e1       _acl_msg_fatal2            100055e1 f   acl_msg.obj
 0001:000046af       _acl_msg_fatal_status2     100056af f   acl_msg.obj
 0001:0000475c       _acl_msg_panic2            1000575c f   acl_msg.obj
 0001:0000482a       _acl_strerror              1000582a f   acl_msg.obj
 0001:00004945       _acl_last_strerror         10005945 f   acl_msg.obj
 0001:00004965       _acl_last_serror           10005965 f   acl_msg.obj
 0001:00004a0b       _acl_last_error            10005a0b f   acl_msg.obj
 0001:00004a4b       _acl_set_error             10005a4b f   acl_msg.obj
 0001:00004a7f       _acl_msg_printf            10005a7f f   acl_msg.obj
 0001:00004bfb       _acl_myflock               10005bfb f   acl_myflock.obj
 0001:00004eeb       _acl_logtime_fmt           10005eeb f   acl_mylog.obj
 0001:00004f73       _acl_log_add_tid           10005f73 f   acl_mylog.obj
 0001:00004f9b       _acl_log_fp_set            10005f9b f   acl_mylog.obj
 0001:00005170       _acl_open_log              10006170 f   acl_mylog.obj
 0001:000052c9       _acl_write_to_log          100062c9 f   acl_mylog.obj
 0001:0000530b       _acl_write_to_log2         1000630b f   acl_mylog.obj
 0001:00005420       _acl_close_log             10006420 f   acl_mylog.obj
 0001:0000673c       _acl_readlline             1000773c f   acl_readline.obj
 0001:00006988       _acl_vbuf_get              10007988 f   acl_vbuf.obj
 0001:00006a0c       _acl_vbuf_put              10007a0c f   acl_vbuf.obj
 0001:00006a9a       _acl_vbuf_unget            10007a9a f   acl_vbuf.obj
 0001:00006b11       _acl_vbuf_read             10007b11 f   acl_vbuf.obj
 0001:00006be1       _acl_vbuf_write            10007be1 f   acl_vbuf.obj
 0001:00006cad       _acl_vbuf_print            10007cad f   acl_vbuf_print.obj
 0001:000077d9       _acl_vsnprintf             100087d9 f   acl_vsprintf.obj
 0001:00007e11       _acl_snprintf              10008e11 f   acl_vsprintf.obj
 0001:00007e54       _acl_vsprintf              10008e54 f   acl_vsprintf.obj
 0001:00007e73       _acl_sprintf               10008e73 f   acl_vsprintf.obj
 0001:00008368       _acl_vstream_init          10009368 f   acl_vstream.obj
 0001:000083e7       _acl_vstream_peekfd        100093e7 f   acl_vstream.obj
 0001:00008417       _acl_vstream_clone         10009417 f   acl_vstream.obj
 0001:000086d6       _acl_vstream_set_fdtype    100096d6 f   acl_vstream.obj
 0001:0000873a       _acl_vstream_fhopen        1000973a f   acl_vstream.obj
 0001:000087b2       _acl_vstream_fdopen        100097b2 f   acl_vstream.obj
 0001:00008abd       _acl_vstream_fopen         10009abd f   acl_vstream.obj
 0001:00008b87       _acl_vstream_loadfile      10009b87 f   acl_vstream.obj
 0001:00008b9f       _acl_vstream_loadfile2     10009b9f f   acl_vstream.obj
 0001:00008d83       _acl_vstream_ctl           10009d83 f   acl_vstream.obj
 0001:00008f6f       _acl_vstream_fseek         10009f6f f   acl_vstream.obj
 0001:00009371       _acl_vstream_fseek2        1000a371 f   acl_vstream.obj
 0001:00009573       _acl_file_ftruncate        1000a573 f   acl_vstream.obj
 0001:00009683       _acl_file_truncate         1000a683 f   acl_vstream.obj
 0001:00009722       _acl_vstream_fstat         1000a722 f   acl_vstream.obj
 0001:0000979a       _acl_vstream_fsize         1000a79a f   acl_vstream.obj
 0001:00009823       _acl_vstream_getc          1000a823 f   acl_vstream.obj
 0001:000098a1       _acl_vstream_nonb_readn    1000a8a1 f   acl_vstream.obj
 0001:00009b2f       _acl_vstream_probe_status  1000ab2f f   acl_vstream.obj
 0001:00009c34       _acl_vstream_ungetc        1000ac34 f   acl_vstream.obj
 0001:00009c9e       _acl_vstream_unread        1000ac9e f   acl_vstream.obj
 0001:00009ebc       _acl_vstream_gets          1000aebc f   acl_vstream.obj
 0001:0000a003       _acl_vstream_gets_nonl     1000b003 f   acl_vstream.obj
 0001:0000a18e       _acl_vstream_readtags      1000b18e f   acl_vstream.obj
 0001:0000a37a       _acl_vstream_readn         1000b37a f   acl_vstream.obj
 0001:0000a4ab       _acl_vstream_bfcp_some     1000b4ab f   acl_vstream.obj
 0001:0000a5e2       _acl_vstream_read          1000b5e2 f   acl_vstream.obj
 0001:0000a6b6       _acl_vstream_gets_peek     1000b6b6 f   acl_vstream.obj
 0001:0000a7e9       _acl_vstream_gets_nonl_peek 1000b7e9 f   acl_vstream.obj
 0001:0000a91c       _acl_vstream_readn_peek    1000b91c f   acl_vstream.obj
 0001:0000aa43       _acl_vstream_read_peek     1000ba43 f   acl_vstream.obj
 0001:0000ab49       _acl_vstream_can_read      1000bb49 f   acl_vstream.obj
 0001:0000abee       _acl_vstream_fsync         1000bbee f   acl_vstream.obj
 0001:0000acb1       _acl_vstream_buffed_space  1000bcb1 f   acl_vstream.obj
 0001:0000acf5       _acl_vstream_fflush        1000bcf5 f   acl_vstream.obj
 0001:0000adf8       _acl_vstream_buffed_writen 1000bdf8 f   acl_vstream.obj
 0001:0000aee4       _acl_vstream_buffed_vfprintf 1000bee4 f   acl_vstream.obj
 0001:0000b002       _acl_vstream_buffed_fprintf 1000c002 f   acl_vstream.obj
 0001:0000b07c       _acl_vstream_buffed_printf 1000c07c f   acl_vstream.obj
 0001:0000b141       _acl_vstream_buffed_fputs  1000c141 f   acl_vstream.obj
 0001:0000b1cf       _acl_vstream_buffed_puts   1000c1cf f   acl_vstream.obj
 0001:0000b24b       _acl_vstream_write         1000c24b f   acl_vstream.obj
 0001:0000b284       _acl_vstream_writev        1000c284 f   acl_vstream.obj
 0001:0000b2bd       _acl_vstream_writevn       1000c2bd f   acl_vstream.obj
 0001:0000b495       _acl_vstream_vfprintf      1000c495 f   acl_vstream.obj
 0001:0000b5b3       _acl_vstream_fprintf       1000c5b3 f   acl_vstream.obj
 0001:0000b62d       _acl_vstream_printf        1000c62d f   acl_vstream.obj
 0001:0000b6f2       _acl_vstream_fputs         1000c6f2 f   acl_vstream.obj
 0001:0000b7a1       _acl_vstream_puts          1000c7a1 f   acl_vstream.obj
 0001:0000b81d       _acl_vstream_writen        1000c81d f   acl_vstream.obj
 0001:0000b86d       _acl_vstream_free          1000c86d f   acl_vstream.obj
 0001:0000ba03       _acl_vstream_close         1000ca03 f   acl_vstream.obj
 0001:0000bc20       _acl_vstream_call_close_handles 1000cc20 f   acl_vstream.obj
 0001:0000bd0c       _acl_vstream_add_close_handle 1000cd0c f   acl_vstream.obj
 0001:0000bec1       _acl_vstream_delete_close_handle 1000cec1 f   acl_vstream.obj
 0001:0000bfee       _acl_vstream_clean_close_handle 1000cfee f   acl_vstream.obj
 0001:0000c0b1       _acl_vstream_reset         1000d0b1 f   acl_vstream.obj
 0001:0000c1a3       _acl_vstream_strerror      1000d1a3 f   acl_vstream.obj
 0001:0000d168       _acl_vstream_popen         1000e168 f   acl_vstream_popen.obj
 0001:0000d754       _acl_vstream_pclose        1000e754 f   acl_vstream_popen.obj
 0001:0000da3b       _acl_vstring_init          1000ea3b f   acl_vstring.obj
 0001:0000dae3       _acl_vstring_free_buf      1000eae3 f   acl_vstring.obj
 0001:0000db1f       _acl_vstring_alloc         1000eb1f f   acl_vstring.obj
 0001:0000db37       _acl_vstring_alloc2        1000eb37 f   acl_vstring.obj
 0001:0000dc5c       _acl_vstring_ctl           1000ec5c f   acl_vstring.obj
 0001:0000dcfd       _acl_vstring_truncate      1000ecfd f   acl_vstring.obj
 0001:0000dd34       _acl_vstring_free          1000ed34 f   acl_vstring.obj
 0001:0000ddce       _acl_vstring_strcpy        1000edce f   acl_vstring.obj
 0001:0000de8f       _acl_vstring_strncpy       1000ee8f f   acl_vstring.obj
 0001:0000df89       _acl_vstring_strcat        1000ef89 f   acl_vstring.obj
 0001:0000e032       _acl_vstring_strncat       1000f032 f   acl_vstring.obj
 0001:0000e114       _acl_vstring_memcpy        1000f114 f   acl_vstring.obj
 0001:0000e186       _acl_vstring_memmove       1000f186 f   acl_vstring.obj
 0001:0000e28f       _acl_vstring_memcat        1000f28f f   acl_vstring.obj
 0001:0000e2fb       _acl_vstring_memchr        1000f2fb f   acl_vstring.obj
 0001:0000e339       _acl_vstring_strstr        1000f339 f   acl_vstring.obj
 0001:0000e400       _acl_vstring_strcasestr    1000f400 f   acl_vstring.obj
 0001:0000e4ed       _acl_vstring_rstrstr       1000f4ed f   acl_vstring.obj
 0001:0000e5c4       _acl_vstring_rstrcasestr   1000f5c4 f   acl_vstring.obj
 0001:0000e6ac       _acl_vstring_insert        1000f6ac f   acl_vstring.obj
 0001:0000e7c0       _acl_vstring_prepend       1000f7c0 f   acl_vstring.obj
 0001:0000e88e       _acl_vstring_sprintf       1000f88e f   acl_vstring.obj
 0001:0000e8c6       _acl_vstring_sprintf_append 1000f8c6 f   acl_vstring.obj
 0001:0000e8fe       _acl_vstring_export        1000f8fe f   acl_vstring.obj
 0001:0000e945       _acl_vstring_import        1000f945 f   acl_vstring.obj
 0001:0000e9c9       _acl_vstring_glue          1000f9c9 f   acl_vstring.obj
 0001:0000ea33       _acl_vstring_charat        1000fa33 f   acl_vstring.obj
 0001:0000eb16       _acl_vstring_vsprintf      1000fb16 f   acl_vstring.obj
 0001:0000eb78       _acl_vstring_vsprintf_append 1000fb78 f   acl_vstring.obj
 0001:0000ebc2       _acl_vstring_sprintf_prepend 1000fbc2 f   acl_vstring.obj
 0001:0000ecc0       _acl_buffer_gets_nonl      1000fcc0 f   acl_vstring.obj
 0001:0000ee37       _acl_buffer_gets           1000fe37 f   acl_vstring.obj
 0001:0000f09a       _acl_vstring_gets          1001009a f   acl_vstring_vstream.obj
 0001:0000f1eb       _acl_vstring_gets_nonl     100101eb f   acl_vstring_vstream.obj
 0001:0000f3c5       _acl_vstring_gets_null     100103c5 f   acl_vstring_vstream.obj
 0001:0000f52b       _acl_vstring_gets_bound    1001052b f   acl_vstring_vstream.obj
 0001:0000f6cf       _acl_vstring_gets_nonl_bound 100106cf f   acl_vstring_vstream.obj
 0001:0000f914       _acl_vstring_gets_null_bound 10010914 f   acl_vstring_vstream.obj
 0001:0000fad1       _acl_doze                  10010ad1 f   acl_doze.obj
 0001:0000faf1       _acl_duplex_pipe           10010af1 f   acl_duplex_pipe.obj
 0001:0000fb06       _acl_non_blocking          10010b06 f   acl_non_blocking.obj
 0001:0000fb45       _acl_peekfd                10010b45 f   acl_peekfd.obj
 0001:0000fbc3       _acl_pipe                  10010bc3 f   acl_pipe.obj
 0001:0000fd6f       _acl_pipe_close            10010d6f f   acl_pipe.obj
 0001:0000fdbf       _acl_read_wait             10010dbf f   acl_read_wait.obj
 0001:00010037       _acl_readable              10011037 f   acl_readable.obj
 0001:00010287       _acl_timed_read            10011287 f   acl_timed_read.obj
 0001:00010311       _acl_timed_write           10011311 f   acl_timed_write.obj
 0001:0001039b       _acl_write_buf             1001139b f   acl_write_buf.obj
 0001:00010433       _acl_write_wait            10011433 f   acl_write_wait.obj
 0001:000106e4       _acl_argv_alloc            100116e4 f   acl_argv.obj
 0001:000106fc       _acl_argv_alloc2           100116fc f   acl_argv.obj
 0001:00010856       _acl_argv_add              10011856 f   acl_argv.obj
 0001:0001093c       _acl_argv_addv             1001193c f   acl_argv.obj
 0001:00010a10       _acl_argv_addn             10011a10 f   acl_argv.obj
 0001:00010b32       _acl_argv_addnv            10011b32 f   acl_argv.obj
 0001:00010c4e       _acl_argv_terminate        10011c4e f   acl_argv.obj
 0001:00010c63       _acl_argv_free             10011c63 f   acl_argv.obj
 0001:00010d61       _acl_argv_index            10011d61 f   acl_argv.obj
 0001:00010d8e       _acl_argv_size             10011d8e f   acl_argv.obj
 0001:0001111e       _acl_argv_split            1001211e f   acl_argv_split.obj
 0001:0001113a       _acl_argv_split3           1001213a f   acl_argv_split.obj
 0001:00011249       _acl_argv_splitn           10012249 f   acl_argv_split.obj
 0001:00011268       _acl_argv_splitn4          10012268 f   acl_argv_split.obj
 0001:000113a7       _acl_argv_split_append     100123a7 f   acl_argv_split.obj
 0001:000114ae       _acl_argv_splitn_append    100124ae f   acl_argv_split.obj
 0001:000115e1       _acl_array_create          100125e1 f   acl_array.obj
 0001:000116a9       _acl_array_clean           100126a9 f   acl_array.obj
 0001:0001171e       _acl_array_free            1001271e f   acl_array.obj
 0001:00011780       _acl_array_append          10012780 f   acl_array.obj
 0001:000117d3       _acl_array_prepend         100127d3 f   acl_array.obj
 0001:0001181e       _acl_array_pred_insert     1001281e f   acl_array.obj
 0001:000118cc       _acl_array_succ_insert     100128cc f   acl_array.obj
 0001:00011989       _acl_array_delete_idx      10012989 f   acl_array.obj
 0001:00011a41       _acl_array_delete          10012a41 f   acl_array.obj
 0001:00011ad1       _acl_array_delete_obj      10012ad1 f   acl_array.obj
 0001:00011b9a       _acl_array_delete_range    10012b9a f   acl_array.obj
 0001:00011ca8       _acl_array_mv_idx          10012ca8 f   acl_array.obj
 0001:00011dd3       _acl_array_pre_append      10012dd3 f   acl_array.obj
 0001:00011ea6       _acl_array_index           10012ea6 f   acl_array.obj
 0001:00011ed3       _acl_array_size            10012ed3 f   acl_array.obj
 0001:0001224c       _acl_binhash_create        1001324c f   acl_binhash.obj
 0001:00012360       _acl_binhash_enter         10013360 f   acl_binhash.obj
 0001:00012508       _acl_binhash_locate        10013508 f   acl_binhash.obj
 0001:000125c6       _acl_binhash_find          100135c6 f   acl_binhash.obj
 0001:00012687       _acl_binhash_delete        10013687 f   acl_binhash.obj
 0001:0001282f       _acl_binhash_free          1001382f f   acl_binhash.obj
 0001:00012987       _acl_binhash_walk          10013987 f   acl_binhash.obj
 0001:00012a20       _acl_binhash_list          10013a20 f   acl_binhash.obj
 0001:00012ac5       _acl_binhash_errno         10013ac5 f   acl_binhash.obj
 0001:00012ad0       _acl_binhash_size          10013ad0 f   acl_binhash.obj
 0001:00012ae6       _acl_binhash_used          10013ae6 f   acl_binhash.obj
 0001:00012af1       _acl_binhash_data          10013af1 f   acl_binhash.obj
 0001:00012afc       _acl_binhash_iter_head     10013afc f   acl_binhash.obj
 0001:00012b71       _acl_binhash_iter_next     10013b71 f   acl_binhash.obj
 0001:00012bf3       _acl_binhash_iter_tail     10013bf3 f   acl_binhash.obj
 0001:00012c68       _acl_binhash_iter_prev     10013c68 f   acl_binhash.obj
 0001:000132d3       _acl_btree_create          100142d3 f   acl_btree.obj
 0001:0001333e       _acl_btree_destroy         1001433e f   acl_btree.obj
 0001:000133b2       _acl_btree_find            100143b2 f   acl_btree.obj
 0001:000133f4       _acl_btree_add             100143f4 f   acl_btree.obj
 0001:000134a6       _acl_btree_remove          100144a6 f   acl_btree.obj
 0001:0001353d       _acl_btree_get_min_key     1001453d f   acl_btree.obj
 0001:0001358f       _acl_btree_get_max_key     1001458f f   acl_btree.obj
 0001:000135e1       _acl_btree_get_next_key    100145e1 f   acl_btree.obj
 0001:00013641       _acl_btree_depth           10014641 f   acl_btree.obj
 0001:00013658       _acl_btree_dump            10014658 f   acl_btree.obj
 0001:00013af8       _acl_cache_create          10014af8 f   acl_cache.obj
 0001:00013c3d       _acl_cache_free            10014c3d f   acl_cache.obj
 0001:00013d33       _acl_cache_enter           10014d33 f   acl_cache.obj
 0001:00013fcc       _acl_cache_find            10014fcc f   acl_cache.obj
 0001:0001401a       _acl_cache_locate          1001501a f   acl_cache.obj
 0001:00014065       _acl_cache_delete          10015065 f   acl_cache.obj
 0001:00014127       _acl_cache_delete2         10015127 f   acl_cache.obj
 0001:00014189       _acl_cache_timeout         10015189 f   acl_cache.obj
 0001:00014281       _acl_cache_update2         10015281 f   acl_cache.obj
 0001:0001430f       _acl_cache_update          1001530f f   acl_cache.obj
 0001:00014360       _acl_cache_refer           10015360 f   acl_cache.obj
 0001:00014372       _acl_cache_refer2          10015372 f   acl_cache.obj
 0001:000143c1       _acl_cache_unrefer         100153c1 f   acl_cache.obj
 0001:0001441a       _acl_cache_unrefer2        1001541a f   acl_cache.obj
 0001:00014469       _acl_cache_lock            10015469 f   acl_cache.obj
 0001:00014493       _acl_cache_unlock          10015493 f   acl_cache.obj
 0001:000144bd       _acl_cache_walk            100154bd f   acl_cache.obj
 0001:0001455a       _acl_cache_clean           1001555a f   acl_cache.obj
 0001:00014633       _acl_cache_size            10015633 f   acl_cache.obj
 0001:000148b9       _acl_cache2_create         100158b9 f   acl_cache2.obj
 0001:000149db       _acl_cache2_free           100159db f   acl_cache2.obj
 0001:00014aea       _acl_cache2_enter          10015aea f   acl_cache2.obj
 0001:00014e67       _acl_cache2_find           10015e67 f   acl_cache2.obj
 0001:00014ec3       _acl_cache2_locate         10015ec3 f   acl_cache2.obj
 0001:00014f1c       _acl_cache2_delete         10015f1c f   acl_cache2.obj
 0001:00015092       _acl_cache2_delete2        10016092 f   acl_cache2.obj
 0001:00015102       _acl_cache2_timeout        10016102 f   acl_cache2.obj
 0001:00015227       _acl_cache2_update2        10016227 f   acl_cache2.obj
 0001:000153fc       _acl_cache2_update         100163fc f   acl_cache2.obj
 0001:0001545b       _acl_cache2_refer          1001645b f   acl_cache2.obj
 0001:0001546d       _acl_cache2_refer2         1001646d f   acl_cache2.obj
 0001:000154ca       _acl_cache2_unrefer        100164ca f   acl_cache2.obj
 0001:0001551e       _acl_cache2_unrefer2       1001651e f   acl_cache2.obj
 0001:0001557b       _acl_cache2_lock           1001657b f   acl_cache2.obj
 0001:000155b5       _acl_cache2_unlock         100165b5 f   acl_cache2.obj
 0001:000155ef       _acl_cache2_walk           100165ef f   acl_cache2.obj
 0001:00015693       _acl_cache2_clean          10016693 f   acl_cache2.obj
 0001:0001574f       _acl_cache2_size           1001674f f   acl_cache2.obj
 0001:00015b8f       _acl_dlink_create          10016b8f f   acl_dlink.obj
 0001:00015c4f       _acl_dlink_free            10016c4f f   acl_dlink.obj
 0001:00015c99       _acl_dlink_lookup_by_item  10016c99 f   acl_dlink.obj
 0001:00015cb5       _acl_dlink_lookup2_by_item 10016cb5 f   acl_dlink.obj
 0001:00015d21       _acl_dlink_lookup          10016d21 f   acl_dlink.obj
 0001:00015d40       _acl_dlink_lookup2         10016d40 f   acl_dlink.obj
 0001:00015e52       _acl_dlink_lookup_range    10016e52 f   acl_dlink.obj
 0001:00015ecd       _acl_dlink_lookup_larger   10016ecd f   acl_dlink.obj
 0001:00015f5a       _acl_dlink_lookup_lower    10016f5a f   acl_dlink.obj
 0001:00015fe7       _acl_dlink_insert          10016fe7 f   acl_dlink.obj
 0001:0001607f       _acl_dlink_delete          1001707f f   acl_dlink.obj
 0001:00016107       _acl_dlink_delete_by_item  10017107 f   acl_dlink.obj
 0001:00016143       _acl_dlink_modify          10017143 f   acl_dlink.obj
 0001:000161b1       _acl_dlink_delete_range    100171b1 f   acl_dlink.obj
 0001:000165aa       _acl_dlink_index           100175aa f   acl_dlink.obj
 0001:000165c5       _acl_dlink_size            100175c5 f   acl_dlink.obj
 0001:000165dc       _acl_dlink_list            100175dc f   acl_dlink.obj
 0001:00016e26       _acl_fifo_init             10017e26 f   acl_fifo.obj
 0001:00016ea0       _acl_fifo_new              10017ea0 f   acl_fifo.obj
 0001:00016eb4       _acl_fifo_new1             10017eb4 f   acl_fifo.obj
 0001:00016f78       _acl_fifo_delete           10017f78 f   acl_fifo.obj
 0001:00017059       _acl_fifo_delete_info      10018059 f   acl_fifo.obj
 0001:000170fa       _acl_fifo_free             100180fa f   acl_fifo.obj
 0001:0001717a       _acl_fifo_free2            1001817a f   acl_fifo.obj
 0001:000171fa       _acl_fifo_push_back        100181fa f   acl_fifo.obj
 0001:000172ba       _acl_fifo_push_info_back   100182ba f   acl_fifo.obj
 0001:0001731e       _acl_fifo_push_front       1001831e f   acl_fifo.obj
 0001:000173da       _acl_fifo_pop_front        100183da f   acl_fifo.obj
 0001:00017498       _acl_fifo_pop_info         10018498 f   acl_fifo.obj
 0001:000174fc       _acl_fifo_pop_back         100184fc f   acl_fifo.obj
 0001:000175c0       _acl_fifo_head             100185c0 f   acl_fifo.obj
 0001:000175da       _acl_fifo_head_info        100185da f   acl_fifo.obj
 0001:000175f2       _acl_fifo_tail             100185f2 f   acl_fifo.obj
 0001:0001760e       _acl_fifo_tail_info        1001860e f   acl_fifo.obj
 0001:00017628       _acl_fifo_size             10018628 f   acl_fifo.obj
 0001:0001787a       _acl_hash_crc32            1001887a f   acl_hash.obj
 0001:00017a29       _acl_hash_crc64            10018a29 f   acl_hash.obj
 0001:00017acc       _acl_hash_test             10018acc f   acl_hash.obj
 0001:00017b57       _acl_hash_bin              10018b57 f   acl_hash.obj
 0001:00017be2       _acl_hash_func2            10018be2 f   acl_hash.obj
 0001:00017c53       _acl_hash_func3            10018c53 f   acl_hash.obj
 0001:00017da7       _acl_hash_func4            10018da7 f   acl_hash.obj
 0001:00017fd3       _acl_hash_func5            10018fd3 f   acl_hash.obj
 0001:00018031       _acl_hash_func6            10019031 f   acl_hash.obj
 0001:000180bc       _acl_htable_create         100190bc f   acl_htable.obj
 0001:000180d8       _acl_htable_create3        100190d8 f   acl_htable.obj
 0001:0001828d       _acl_htable_ctl            1001928d f   acl_htable.obj
 0001:00018372       _acl_htable_errno          10019372 f   acl_htable.obj
 0001:00018388       _acl_htable_set_errno      10019388 f   acl_htable.obj
 0001:0001839c       _acl_htable_enter          1001939c f   acl_htable.obj
 0001:00018805       _acl_htable_enter_r        10019805 f   acl_htable.obj
 0001:00018cbe       _acl_htable_locate         10019cbe f   acl_htable.obj
 0001:00018e75       _acl_htable_locate_r       10019e75 f   acl_htable.obj
 0001:00019141       _acl_htable_find           1001a141 f   acl_htable.obj
 0001:00019430       _acl_htable_find_r         1001a430 f   acl_htable.obj
 0001:000198cc       _acl_htable_delete         1001a8cc f   acl_htable.obj
 0001:00019c80       _acl_htable_free           1001ac80 f   acl_htable.obj
 0001:00019eae       _acl_htable_reset          1001aeae f   acl_htable.obj
 0001:0001a0fd       _acl_htable_walk           1001b0fd f   acl_htable.obj
 0001:0001a236       _acl_htable_size           1001b236 f   acl_htable.obj
 0001:0001a24c       _acl_htable_used           1001b24c f   acl_htable.obj
 0001:0001a263       _acl_htable_list           1001b263 f   acl_htable.obj
 0001:0001a327       _acl_htable_stat           1001b327 f   acl_htable.obj
 0001:0001a52b       _acl_htable_data           1001b52b f   acl_htable.obj
 0001:0001a536       _acl_htable_iter_head      1001b536 f   acl_htable.obj
 0001:0001a5ab       _acl_htable_iter_next      1001b5ab f   acl_htable.obj
 0001:0001a62d       _acl_htable_iter_tail      1001b62d f   acl_htable.obj
 0001:0001a6a2       _acl_htable_iter_prev      1001b6a2 f   acl_htable.obj
 0001:0001af57       _acl_iplink_create         1001bf57 f   acl_iplink.obj
 0001:0001af6c       _acl_iplink_free           1001bf6c f   acl_iplink.obj
 0001:0001af87       _acl_iplink_lookup_item    1001bf87 f   acl_iplink.obj
 0001:0001afa0       _acl_iplink_lookup_bin     1001bfa0 f   acl_iplink.obj
 0001:0001afbe       _acl_iplink_lookup_str     1001bfbe f   acl_iplink.obj
 0001:0001b009       _acl_iplink_insert_bin     1001c009 f   acl_iplink.obj
 0001:0001b02e       _acl_iplink_insert         1001c02e f   acl_iplink.obj
 0001:0001b101       _acl_iplink_delete_by_ip   1001c101 f   acl_iplink.obj
 0001:0001b163       _acl_iplink_delete_by_item 1001c163 f   acl_iplink.obj
 0001:0001b17c       _acl_iplink_modify         1001c17c f   acl_iplink.obj
 0001:0001b22b       _acl_iplink_count_item     1001c22b f   acl_iplink.obj
 0001:0001b242       _acl_iplink_list           1001c242 f   acl_iplink.obj
 0001:0001b4dd       _acl_ring_init             1001c4dd f   acl_ring.obj
 0001:0001b50b       _acl_ring_size             1001c50b f   acl_ring.obj
 0001:0001b521       _acl_ring_prepend          1001c521 f   acl_ring.obj
 0001:0001b57b       _acl_ring_append           1001c57b f   acl_ring.obj
 0001:0001b5d3       _acl_ring_detach           1001c5d3 f   acl_ring.obj
 0001:0001b654       _acl_ring_pop_head         1001c654 f   acl_ring.obj
 0001:0001b695       _acl_ring_pop_tail         1001c695 f   acl_ring.obj
 0001:0001b6d7       _acl_stack_space           1001c6d7 f   acl_stack.obj
 0001:0001b707       _acl_stack_create          1001c707 f   acl_stack.obj
 0001:0001b844       _acl_stack_clean           1001c844 f   acl_stack.obj
 0001:0001b8d8       _acl_stack_destroy         1001c8d8 f   acl_stack.obj
 0001:0001b915       _acl_stack_append          1001c915 f   acl_stack.obj
 0001:0001b96f       _acl_stack_prepend         1001c96f f   acl_stack.obj
 0001:0001ba07       _acl_stack_delete          1001ca07 f   acl_stack.obj
 0001:0001bab7       _acl_stack_delete_obj      1001cab7 f   acl_stack.obj
 0001:0001bb5e       _acl_stack_index           1001cb5e f   acl_stack.obj
 0001:0001bb8b       _acl_stack_size            1001cb8b f   acl_stack.obj
 0001:0001bba1       _acl_stack_pop             1001cba1 f   acl_stack.obj
 0001:0001bbe4       _acl_stack_top             1001cbe4 f   acl_stack.obj
 0001:0001bfd9       _acl_token_delim_tab_new   1001cfd9 f   acl_token_tree.obj
 0001:0001c03a       _acl_token_delim_tab_free  1001d03a f   acl_token_tree.obj
 0001:0001c060       _acl_token_new             1001d060 f   acl_token_tree.obj
 0001:0001c0c4       _acl_token_free            1001d0c4 f   acl_token_tree.obj
 0001:0001c0ea       _acl_token_name            1001d0ea f   acl_token_tree.obj
 0001:0001c22f       _acl_token_name1           1001d22f f   acl_token_tree.obj
 0001:0001c2d5       _acl_token_tree_add        1001d2d5 f   acl_token_tree.obj
 0001:0001c40e       _acl_token_tree_add_word_map 1001d40e f   acl_token_tree.obj
 0001:0001c555       _acl_token_tree_word_match 1001d555 f   acl_token_tree.obj
 0001:0001c5cf       _acl_token_tree_match      1001d5cf f   acl_token_tree.obj
 0001:0001ca79       _acl_token_tree_walk       1001da79 f   acl_token_tree.obj
 0001:0001caee       _acl_token_tree_print      1001daee f   acl_token_tree.obj
 0001:0001cb81       _acl_token_tree_create     1001db81 f   acl_token_tree.obj
 0001:0001cb9c       _acl_token_tree_create2    1001db9c f   acl_token_tree.obj
 0001:0001cd59       _acl_token_tree_destroy    1001dd59 f   acl_token_tree.obj
 0001:0001cdae       _acl_token_tree_load_deny  1001ddae f   acl_token_tree.obj
 0001:0001cf62       _acl_token_tree_load_pass  1001df62 f   acl_token_tree.obj
 0001:0001d116       _acl_token_tree_test       1001e116 f   acl_token_tree.obj
 0001:0001d437       _avl_walk                  1001e437 f   avl.obj
 0001:0001d4da       _avl_create                1001e4da f   avl.obj
 0001:0001d579       _avl_find                  1001e579 f   avl.obj
 0001:0001d641       _avl_insert                1001e641 f   avl.obj
 0001:0001d7b1       _avl_insert_here           1001e7b1 f   avl.obj
 0001:0001d8bd       _avl_first                 1001e8bd f   avl.obj
 0001:0001d91e       _avl_last                  1001e91e f   avl.obj
 0001:0001d97f       _avl_nearest               1001e97f f   avl.obj
 0001:0001da0b       _avl_add                   1001ea0b f   avl.obj
 0001:0001daa1       _avl_remove                1001eaa1 f   avl.obj
 0001:0001dd71       _avl_update                1001ed71 f   avl.obj
 0001:0001de30       _avl_update_lt             1001ee30 f   avl.obj
 0001:0001dee4       _avl_update_gt             1001eee4 f   avl.obj
 0001:0001df98       _avl_numnodes              1001ef98 f   avl.obj
 0001:0001dfc5       _avl_is_empty              1001efc5 f   avl.obj
 0001:0001e010       _avl_destroy_nodes         1001f010 f   avl.obj
 0001:0001e23a       _avl_destroy               1001f23a f   avl.obj
 0001:0001e52c       _acl_cfg_parser_load       1001f52c f   acl_loadcfg.obj
 0001:0001f079       _acl_cfg_parser_free       10020079 f   acl_loadcfg.obj
 0001:0001f0c1       _acl_cfg_parser_walk       100200c1 f   acl_loadcfg.obj
 0001:0001f13f       _acl_cfg_line_replace      1002013f f   acl_loadcfg.obj
 0001:0001f453       _acl_cfg_parser_index      10020453 f   acl_loadcfg.obj
 0001:0001f48f       _acl_cfg_parser_size       1002048f f   acl_loadcfg.obj
 0001:0001f4a5       _acl_cfg_parser_dump       100204a5 f   acl_loadcfg.obj
 0001:0001f645       _acl_cfg_parser_append     10020645 f   acl_loadcfg.obj
 0001:0001f7e1       _acl_cfg_parser_delete     100207e1 f   acl_loadcfg.obj
 0001:0001f9b0       _acl_cfg_line_new          100209b0 f   acl_loadcfg.obj
 0001:000205b6       _acl_xinetd_cfg_get        100215b6 f   acl_xinetd_cfg.obj
 0001:000206cd       _acl_xinetd_cfg_get_ex     100216cd f   acl_xinetd_cfg.obj
 0001:000207d8       _acl_xinetd_cfg_index      100217d8 f   acl_xinetd_cfg.obj
 0001:0002085c       _acl_xinetd_cfg_size       1002185c f   acl_xinetd_cfg.obj
 0001:0002088a       _acl_xinetd_cfg_free       1002188a f   acl_xinetd_cfg.obj
 0001:00020961       _acl_xinetd_cfg_load       10021961 f   acl_xinetd_cfg.obj
 0001:000214f9       _acl_xinetd_params_int_table 100224f9 f   acl_xinetd_params.obj
 0001:000215d4       _acl_xinetd_params_int64_table 100225d4 f   acl_xinetd_params.obj
 0001:000216af       _acl_xinetd_params_str_table 100226af f   acl_xinetd_params.obj
 0001:0002178a       _acl_xinetd_params_bool_table 1002278a f   acl_xinetd_params.obj
 0001:00021bda       _opendir                   10022bda f   acl_dir.obj
 0001:00021d6a       _readdir                   10022d6a f   acl_dir.obj
 0001:00021dee       _closedir                  10022dee f   acl_dir.obj
 0001:00021e61       _rewinddir                 10022e61 f   acl_dir.obj
 0001:00021efe       _acl_fhandle_init          10022efe f   acl_fhandle.obj
 0001:00021f9a       _acl_fhandle_end           10022f9a f   acl_fhandle.obj
 0001:00022011       _acl_fhandle_open          10023011 f   acl_fhandle.obj
 0001:000223e6       _acl_fhandle_close         100233e6 f   acl_fhandle.obj
 0001:00022740       _acl_fhandle_lock          10023740 f   acl_fhandle.obj
 0001:00022816       _acl_fhandle_unlock        10023816 f   acl_fhandle.obj
 0001:00022ba2       _acl_make_dirs             10023ba2 f   acl_make_dirs.obj
 0001:00022ee5       _acl_sane_basename         10023ee5 f   acl_sane_basename.obj
 0001:00022fef       _acl_sane_dirname          10023fef f   acl_sane_basename.obj
 0001:0002312f       _acl_scan_dir_open         1002412f f   acl_scan_dir.obj
 0001:0002319f       _acl_scan_dir_close        1002419f f   acl_scan_dir.obj
 0001:000231d8       _acl_scan_dir_reset        100241d8 f   acl_scan_dir.obj
 0001:000231fe       _acl_scan_dir_ctl          100241fe f   acl_scan_dir.obj
 0001:00023281       _acl_scan_dir_path         10024281 f   acl_scan_dir.obj
 0001:0002329f       _acl_scan_dir_file         1002429f f   acl_scan_dir.obj
 0001:000232bc       _acl_scan_dir_ndirs        100242bc f   acl_scan_dir.obj
 0001:000232d4       _acl_scan_dir_nfiles       100242d4 f   acl_scan_dir.obj
 0001:000232ec       _acl_scan_dir_nsize        100242ec f   acl_scan_dir.obj
 0001:0002330a       _acl_scan_stat             1002430a f   acl_scan_dir.obj
 0001:00023347       _acl_scan_dir_end          10024347 f   acl_scan_dir.obj
 0001:00023368       _acl_scan_dir_push         10024368 f   acl_scan_dir.obj
 0001:000234c1       _acl_scan_dir_pop          100244c1 f   acl_scan_dir.obj
 0001:00023616       _acl_scan_dir_next         10024616 f   acl_scan_dir.obj
 0001:000236d4       _acl_scan_dir_next_file    100246d4 f   acl_scan_dir.obj
 0001:000238a6       _acl_scan_dir_size2        100248a6 f   acl_scan_dir.obj
 0001:00023b34       _acl_scan_dir_size         10024b34 f   acl_scan_dir.obj
 0001:00023bd1       _acl_scan_dir_rm2          10024bd1 f   acl_scan_dir.obj
 0001:00023f2c       _acl_scan_dir_rm           10024f2c f   acl_scan_dir.obj
 0001:0002410e       _acl_dlopen                1002510e f   acl_dll.obj
 0001:0002416f       _acl_dlclose               1002516f f   acl_dll.obj
 0001:0002418f       _acl_dlsym                 1002518f f   acl_dll.obj
 0001:000241b2       _acl_clean_env             100251b2 f   acl_env.obj
 0001:00024315       _acl_getenv                10025315 f   acl_env.obj
 0001:000243c8       _acl_getenv3               100253c8 f   acl_env.obj
 0001:000243f9       _acl_setenv                100253f9 f   acl_env.obj
 0001:0002443e       _acl_putenv                1002543e f   acl_env.obj
 0001:0002450f       _acl_getenv_list           1002550f f   acl_env.obj
 0001:000246f7       _acl_exec_command          100256f7 f   acl_exec_command.obj
 0001:0002480b       _acl_process_path          1002580b f   acl_process.obj
 0001:00024887       _acl_getcwd                10025887 f   acl_process.obj
 0001:0002499a       _acl_safe_getenv           1002599a f   acl_safe_getenv.obj
 0001:000249bb       _acl_fstat                 100259bb f   acl_sys_file.obj
 0001:00024e74       _acl_file_open             10025e74 f   acl_sys_file.obj
 0001:00024fc5       _acl_file_close            10025fc5 f   acl_sys_file.obj
 0001:00025001       _acl_lseek                 10026001 f   acl_sys_file.obj
 0001:000250ec       _acl_file_read             100260ec f   acl_sys_file.obj
 0001:0002516e       _acl_file_write            1002616e f   acl_sys_file.obj
 0001:000251f3       _acl_file_writev           100261f3 f   acl_sys_file.obj
 0001:000252cc       _acl_file_fflush           100262cc f   acl_sys_file.obj
 0001:000252f7       _acl_file_size             100262f7 f   acl_sys_file.obj
 0001:00025384       _acl_file_fsize            10026384 f   acl_sys_file.obj
 0001:0002544b       _acl_socket_init           1002644b f   acl_sys_socket.obj
 0001:000255e5       _acl_socket_end            100265e5 f   acl_sys_socket.obj
 0001:000256ca       _acl_socket_close          100266ca f   acl_sys_socket.obj
 0001:000256ea       _acl_socket_read           100266ea f   acl_sys_socket.obj
 0001:00025743       _acl_socket_write          10026743 f   acl_sys_socket.obj
 0001:0002579c       _acl_socket_writev         1002679c f   acl_sys_socket.obj
 0001:0002585a       _acl_unsafe                1002685a f   acl_unsafe.obj
 0001:00025861       _gettimeofday              10026861 f   gettimeofday.obj
 0001:00025c83       _sleep                     10026c83 f   sleep.obj
 0001:00025caa       _acl_secure_snprintf       10026caa f   snprintf.obj
 0001:00025cfc       _acl_secure_vsnprintf      10026cfc f   snprintf.obj
 0001:00025d3c       _acl_alldig                10026d3c f   acl_alldig.obj
 0001:00025da0       _acl_safe_basename         10026da0 f   acl_basename.obj
 0001:00025e09       _acl_concatenate           10026e09 f   acl_concatenate.obj
 0001:00025ec3       _acl_hex_encode            10026ec3 f   acl_hex_code.obj
 0001:00026028       _acl_hex_decode            10027028 f   acl_hex_code.obj
 0001:000261db       _acl_lowercase             100271db f   acl_mystring.obj
 0001:00026236       _acl_lowercase2            10027236 f   acl_mystring.obj
 0001:0002629e       _acl_lowercase3            1002729e f   acl_mystring.obj
 0001:00026331       _acl_uppercase             10027331 f   acl_mystring.obj
 0001:0002638c       _acl_uppercase2            1002738c f   acl_mystring.obj
 0001:000263f4       _acl_uppercase3            100273f4 f   acl_mystring.obj
 0001:00026487       _acl_mystrtok              10027487 f   acl_mystring.obj
 0001:00026522       _acl_mystrline             10027522 f   acl_mystring.obj
 0001:00026617       _acl_mystr_trim            10027617 f   acl_mystring.obj
 0001:0002670d       _acl_mystr_strip           1002770d f   acl_mystring.obj
 0001:000268ac       _acl_mystr_truncate_byln   100278ac f   acl_mystring.obj
 0001:000268ef       _acl_strnlen               100278ef f   acl_mystring.obj
 0001:00026938       _acl_file_path_correct     10027938 f   acl_mystring.obj
 0001:00026970       _acl_dir_correct           10027970 f   acl_mystring.obj
 0001:000269d7       _acl_dir_getpath           100279d7 f   acl_mystring.obj
 0001:00026a6a       _acl_atoui64               10027a6a f   acl_mystring.obj
 0001:00026a8b       _acl_atoi64                10027a8b f   acl_mystring.obj
 0001:00026aac       _acl_ui64toa               10027aac f   acl_mystring.obj
 0001:00026ae1       _acl_i64toa                10027ae1 f   acl_mystring.obj
 0001:00026b16       _acl_i64toa_radix          10027b16 f   acl_mystring.obj
 0001:00026b6b       _acl_ui64toa_radix         10027b6b f   acl_mystring.obj
 0001:00026d6e       _acl_split_at              10027d6e f   acl_split_at.obj
 0001:00026db7       _acl_split_at_right        10027db7 f   acl_split_at.obj
 0001:00026e00       _acl_split_nameval         10027e00 f   acl_split_nameval.obj
 0001:00026fbe       _acl_str2time_t            10027fbe f   acl_str2time.obj
 0001:00027088       _acl_strrncasecmp          10028088 f   strcasecmp.obj
 0001:000271ef       _acl_strrncmp              100281ef f   strcasecmp.obj
 0001:0002731d       _acl_strcasecmp            1002831d f   strcasecmp.obj
 0001:000273a5       _acl_strncasecmp           100283a5 f   strcasecmp.obj
 0001:0002743c       _acl_rstrstr               1002843c f   strcasestr.obj
 0001:00027525       _acl_strcasestr            10028525 f   strcasestr.obj
 0001:000275f1       _acl_rstrcasestr           100285f1 f   strcasestr.obj
 0001:000276f2       _acl_allocator_create      100286f2 f   acl_allocator.obj
 0001:00027748       _acl_allocator_ctl         10028748 f   acl_allocator.obj
 0001:000277ef       _acl_allocator_config      100287ef f   acl_allocator.obj
 0001:0002781d       _acl_allocator_free        1002881d f   acl_allocator.obj
 0001:00027889       _acl_allocator_pool_add    10028889 f   acl_allocator.obj
 0001:00027947       _acl_allocator_pool_remove 10028947 f   acl_allocator.obj
 0001:00027a3c       _acl_allocator_pool_ifused 10028a3c f   acl_allocator.obj
 0001:00027a95       _acl_allocator_pool_inuse_count 10028a95 f   acl_allocator.obj
 0001:00027aee       _acl_allocator_pool_inuse_size 10028aee f   acl_allocator.obj
 0001:00027b47       _acl_allocator_pool_total_allocated 10028b47 f   acl_allocator.obj
 0001:00027b68       _acl_allocator_mem_alloc   10028b68 f   acl_allocator.obj
 0001:00027bd6       _acl_allocator_mem_free    10028bd6 f   acl_allocator.obj
 0001:00027c48       _acl_allocator_membuf_alloc 10028c48 f   acl_allocator.obj
 0001:00027cd7       _acl_allocator_membuf_realloc 10028cd7 f   acl_allocator.obj
 0001:00027da1       _acl_allocator_membuf_free 10028da1 f   acl_allocator.obj
 0001:00027e44       _allocator_alloc           10028e44 f   acl_allocator.obj
 0001:000282bb       _acl_dbuf_pool_create      100292bb f   acl_dbuf_pool.obj
 0001:00028380       _acl_dbuf_pool_destroy     10029380 f   acl_dbuf_pool.obj
 0001:00028410       _acl_dbuf_pool_free        10029410 f   acl_dbuf_pool.obj
 0001:0002848d       _acl_dbuf_pool_alloc       1002948d f   acl_dbuf_pool.obj
 0001:0002853a       _acl_dbuf_pool_calloc      1002953a f   acl_dbuf_pool.obj
 0001:0002857a       _acl_dbuf_pool_memdup      1002957a f   acl_dbuf_pool.obj
 0001:000285b5       _acl_dbuf_pool_strdup      100295b5 f   acl_dbuf_pool.obj
 0001:0002860f       _acl_dbuf_pool_test        1002960f f   acl_dbuf_pool.obj
 0001:00028867       _acl_default_memstat       10029867 f   acl_default_malloc.obj
 0001:000289aa       _acl_default_malloc        100299aa f   acl_default_malloc.obj
 0001:00028b2c       _acl_default_calloc        10029b2c f   acl_default_malloc.obj
 0001:00028b7c       _acl_default_realloc       10029b7c f   acl_default_malloc.obj
 0001:00028da1       _acl_default_strdup        10029da1 f   acl_default_malloc.obj
 0001:00028e88       _acl_default_strndup       10029e88 f   acl_default_malloc.obj
 0001:00028fac       _acl_default_memdup        10029fac f   acl_default_malloc.obj
 0001:0002907e       _acl_default_free          1002a07e f   acl_default_malloc.obj
 0001:000291dd       _acl_memory_debug_start    1002a1dd f   acl_malloc_glue.obj
 0001:0002923d       _acl_memory_debug_stop     1002a23d f   acl_malloc_glue.obj
 0001:00029283       _acl_memory_debug_stack    1002a283 f   acl_malloc_glue.obj
 0001:00029290       _acl_memory_stat           1002a290 f   acl_malloc_glue.obj
 0001:000293bc       _acl_memory_alloc_stat     1002a3bc f   acl_malloc_glue.obj
 0001:000293cd       _acl_malloc_glue           1002a3cd f   acl_malloc_glue.obj
 0001:0002948e       _acl_calloc_glue           1002a48e f   acl_malloc_glue.obj
 0001:00029552       _acl_realloc_glue          1002a552 f   acl_malloc_glue.obj
 0001:00029682       _acl_strdup_glue           1002a682 f   acl_malloc_glue.obj
 0001:00029761       _acl_strndup_glue          1002a761 f   acl_malloc_glue.obj
 0001:00029886       _acl_memdup_glue           1002a886 f   acl_malloc_glue.obj
 0001:0002994a       _acl_free_glue             1002a94a f   acl_malloc_glue.obj
 0001:00029a3a       _acl_free_fn_glue          1002aa3a f   acl_malloc_glue.obj
 0001:00029b89       _acl_mem_hook              1002ab89 f   acl_mem_hook.obj
 0001:00029ca1       _acl_mem_unhook            1002aca1 f   acl_mem_hook.obj
 0001:00029cec       _acl_mem_slice_init        1002acec f   acl_mem_slice.obj
 0001:00029ea8       _acl_mem_slice_delay_destroy 1002aea8 f   acl_mem_slice.obj
 0001:00029fcc       _acl_mem_slice_destroy     1002afcc f   acl_mem_slice.obj
 0001:0002a02b       _acl_mem_slice_gc          1002b02b f   acl_mem_slice.obj
 0001:0002a065       _acl_mem_slice_set         1002b065 f   acl_mem_slice.obj
 0001:0002ab42       _acl_mempool_open          1002bb42 f   acl_mempool.obj
 0001:0002ab77       _acl_mempool_close         1002bb77 f   acl_mempool.obj
 0001:0002abbf       _acl_mempool_ctl           1002bbbf f   acl_mempool.obj
 0001:0002ac9c       _acl_mempool_total_allocated 1002bc9c f   acl_mempool.obj
 0001:0002b236       _acl_slice_create          1002c236 f   acl_slice.obj
 0001:0002b393       _acl_slice_destroy         1002c393 f   acl_slice.obj
 0001:0002b3b4       _acl_slice_used            1002c3b4 f   acl_slice.obj
 0001:0002b3d8       _acl_slice_alloc           1002c3d8 f   acl_slice.obj
 0001:0002b3f9       _acl_slice_calloc          1002c3f9 f   acl_slice.obj
 0001:0002b444       _acl_slice_free2           1002c444 f   acl_slice.obj
 0001:0002b46c       _acl_slice_free            1002c46c f   acl_slice.obj
 0001:0002b4ea       _acl_slice_stat            1002c4ea f   acl_slice.obj
 0001:0002b512       _acl_slice_gc              1002c512 f   acl_slice.obj
 0001:0002b536       _acl_slice_pool_init       1002c536 f   acl_slice.obj
 0001:0002b7b3       _acl_slice_pool_create     1002c7b3 f   acl_slice.obj
 0001:0002b829       _acl_slice_pool_destroy    1002c829 f   acl_slice.obj
 0001:0002b897       _acl_slice_pool_used       1002c897 f   acl_slice.obj
 0001:0002b8ee       _acl_slice_pool_clean      1002c8ee f   acl_slice.obj
 0001:0002b93c       _acl_slice_pool_reset      1002c93c f   acl_slice.obj
 0001:0002b95a       _acl_slice_pool_free       1002c95a f   acl_slice.obj
 0001:0002b9a4       _acl_slice_pool_gc         1002c9a4 f   acl_slice.obj
 0001:0002b9e6       _acl_slice_pool_alloc      1002c9e6 f   acl_slice.obj
 0001:0002baa7       _acl_slice_pool_calloc     1002caa7 f   acl_slice.obj
 0001:0002baf8       _acl_slice_pool_realloc    1002caf8 f   acl_slice.obj
 0001:0002bb4b       _acl_slice_pool_memdup     1002cb4b f   acl_slice.obj
 0001:0002bb8d       _acl_slice_pool_strdup     1002cb8d f   acl_slice.obj
 0001:0002bbe4       _acl_slice_pool_strndup    1002cbe4 f   acl_slice.obj
 0001:0002de48       _mem_pool_create           1002ee48 f   mem_pool.obj
 0001:0002e073       _squid_allocator_create    1002f073 f   squid_allocator.obj
 0001:0002ed3d       _kb_incr                   1002fd3d f   squid_allocator_tools.obj
 0001:0002ede7       _gb_flush                  1002fde7 f   squid_allocator_tools.obj
 0001:0002ee12       _gb_to_double              1002fe12 f   squid_allocator_tools.obj
 0001:0002ee79       _gb_to_str                 1002fe79 f   squid_allocator_tools.obj
 0001:0002ef6e       _vstring_pool_create       1002ff6e f   vstring_pool.obj
 0001:0002f179       _acl_debug_dump            10030179 f   acl_debug_malloc.obj
 0001:0002f261       _acl_debug_malloc_init     10030261 f   acl_debug_malloc.obj
 0001:000300d6       _debug_htable_create       100310d6 f   debug_htable.obj
 0001:00030179       _debug_htable_enter        10031179 f   debug_htable.obj
 0001:00030308       _debug_htable_locate       10031308 f   debug_htable.obj
 0001:000303d0       _debug_htable_find         100313d0 f   debug_htable.obj
 0001:0003049b       _debug_htable_delete       1003149b f   debug_htable.obj
 0001:00030617       _debug_htable_free         10031617 f   debug_htable.obj
 0001:0003072c       _debug_htable_reset        1003172c f   debug_htable.obj
 0001:00030867       _debug_htable_walk         10031867 f   debug_htable.obj
 0001:00030906       _debug_htable_list         10031906 f   debug_htable.obj
 0001:00030c44       _acl_access_add            10031c44 f   acl_access.obj
 0001:000310d8       _acl_access_cfg            100320d8 f   acl_access.obj
 0001:000311db       _acl_access_setup_logfn    100321db f   acl_access.obj
 0001:000311ee       _acl_access_permit         100321ee f   acl_access.obj
 0001:00031309       _acl_access_debug          10032309 f   acl_access.obj
 0001:00031426       _acl_host_port             10032426 f   acl_host_port.obj
 0001:0003163e       _acl_get_ifaddrs           1003263e f   acl_ifconf.obj
 0001:00031a48       _acl_free_ifaddrs          10032a48 f   acl_ifconf.obj
 0001:00031ce6       _acl_mask_addr             10032ce6 f   acl_mask_addr.obj
 0001:00031d73       _acl_inet_ntop4            10032d73 f   acl_sane_inet.obj
 0001:00031e82       _acl_inet_ntoa             10032e82 f   acl_sane_inet.obj
 0001:00031eb0       _acl_is_ip                 10032eb0 f   acl_sane_inet.obj
 0001:00031f98       _acl_ipv4_valid            10032f98 f   acl_sane_inet.obj
 0001:00032147       _acl_ipv4_addr_valid       10033147 f   acl_sane_inet.obj
 0001:00032354       _acl_getpeername           10033354 f   acl_sane_socket.obj
 0001:0003248c       _acl_getsockname           1003348c f   acl_sane_socket.obj
 0001:000325c4       _acl_getsocktype           100335c4 f   acl_sane_socket.obj
 0001:00032685       _acl_tcp_set_rcvbuf        10033685 f   acl_tcp_ctl.obj
 0001:00032746       _acl_tcp_set_sndbuf        10033746 f   acl_tcp_ctl.obj
 0001:00032807       _acl_tcp_get_rcvbuf        10033807 f   acl_tcp_ctl.obj
 0001:00032909       _acl_tcp_get_sndbuf        10033909 f   acl_tcp_ctl.obj
 0001:00032a0b       _acl_tcp_set_nodelay       10033a0b f   acl_tcp_ctl.obj
 0001:00032a23       _acl_tcp_nodelay           10033a23 f   acl_tcp_ctl.obj
 0001:00032b0f       _acl_tcp_defer_accept      10033b0f f   acl_tcp_ctl.obj
 0001:00032b14       _acl_tcp_so_linger         10033b14 f   acl_tcp_ctl.obj
 0001:00032c2f       _acl_valid_hostname        10033c2f f   acl_valid_hostname.obj
 0001:00032e47       _acl_valid_hostaddr        10033e47 f   acl_valid_hostname.obj
 0001:00032ec2       _acl_valid_ipv4_hostaddr   10033ec2 f   acl_valid_hostname.obj
 0001:00033076       _acl_valid_ipv6_hostaddr   10034076 f   acl_valid_hostname.obj
 0001:000332b3       _acl_vstream_listen_ex     100342b3 f   acl_vstream_net.obj
 0001:000334bc       _acl_vstream_listen        100344bc f   acl_vstream_net.obj
 0001:000334dc       _acl_vstream_accept_ex     100344dc f   acl_vstream_net.obj
 0001:000337d3       _acl_vstream_accept        100347d3 f   acl_vstream_net.obj
 0001:000337f2       _acl_vstream_connect_ex    100347f2 f   acl_vstream_net.obj
 0001:00033906       _acl_vstream_connect       10034906 f   acl_vstream_net.obj
 0001:0003392b       _acl_inet_listen           1003492b f   acl_inet_listen.obj
 0001:00033cb1       _acl_inet_accept           10034cb1 f   acl_inet_listen.obj
 0001:00033ccc       _acl_inet_accept_ex        10034ccc f   acl_inet_listen.obj
 0001:00033e01       _acl_sane_accept           10034e01 f   acl_sane_accept.obj
 0001:00033eb3       _acl_accept                10034eb3 f   acl_sane_accept.obj
 0001:00034008       _acl_inet_connect          10035008 f   acl_inet_connect.obj
 0001:00034078       _acl_inet_connect_ex       10035078 f   acl_inet_connect.obj
 0001:00034665       _acl_sane_connect          10035665 f   acl_sane_connect.obj
 0001:00034759       _acl_timed_connect         10035759 f   acl_timed_connect.obj
 0001:0003488d       _acl_dns_init              1003588d f   acl_dns.obj
 0001:00034940       _acl_dns_create            10035940 f   acl_dns.obj
 0001:0003499c       _acl_dns_open_cache        1003599c f   acl_dns.obj
 0001:000349d0       _acl_dns_add_dns           100359d0 f   acl_dns.obj
 0001:00034b3e       _acl_dns_close             10035b3e f   acl_dns.obj
 0001:00034d2b       _acl_dns_check_dns_ip      10035d2b f   acl_dns.obj
 0001:00034d45       _acl_dns_check_dns_net     10035d45 f   acl_dns.obj
 0001:00034d5f       _acl_dns_set_retry_limit   10035d5f f   acl_dns.obj
 0001:00034d70       _acl_dns_lookup            10035d70 f   acl_dns.obj
 0001:00035396       _acl_dns_add_host          10036396 f   acl_dns.obj
 0001:0003556f       _acl_dns_add_group         1003656f f   acl_dns.obj
 0001:000357fc       _acl_dns_cancel            100367fc f   acl_dns.obj
 0001:00035879       _acl_dns_serror            10036879 f   acl_dns.obj
 0001:000366ae       _acl_netdb_index           100376ae f   acl_netdb.obj
 0001:00036763       _acl_netdb_index_saddr     10037763 f   acl_netdb.obj
 0001:0003681b       _acl_netdb_refer_oper      1003781b f   acl_netdb.obj
 0001:000368d6       _acl_netdb_refer           100378d6 f   acl_netdb.obj
 0001:000368f2       _acl_netdb_unrefer         100378f2 f   acl_netdb.obj
 0001:0003690e       _acl_netdb_index_ip        1003790e f   acl_netdb.obj
 0001:000369c3       _acl_netdb_size            100379c3 f   acl_netdb.obj
 0001:00036a0c       _acl_netdb_free            10037a0c f   acl_netdb.obj
 0001:00036a56       _acl_netdb_new             10037a56 f   acl_netdb.obj
 0001:00036bee       _acl_netdb_addip           10037bee f   acl_netdb.obj
 0001:00036c0a       _acl_netdb_add_addr        10037c0a f   acl_netdb.obj
 0001:00036dd6       _acl_netdb_clone           10037dd6 f   acl_netdb.obj
 0001:000370b6       _acl_gethostbyname         100380b6 f   acl_netdb.obj
 0001:000375a5       _acl_netdb_strerror        100385a5 f   acl_netdb.obj
 0001:0003770c       _acl_netdb_cache_push      1003870c f   acl_netdb_cache.obj
 0001:00037ac8       _acl_netdb_cache_lookup    10038ac8 f   acl_netdb_cache.obj
 0001:00037d28       _acl_netdb_cache_del_host  10038d28 f   acl_netdb_cache.obj
 0001:00037d76       _acl_netdb_cache_init      10038d76 f   acl_netdb_cache.obj
 0001:00038180       _acl_res_new               10039180 f   acl_res.obj
 0001:0003826b       _acl_res_free              1003926b f   acl_res.obj
 0001:00038297       _acl_res_lookup            10039297 f   acl_res.obj
 0001:00038689       _acl_res_strerror          10039689 f   acl_res.obj
 0001:000386e0       _acl_res_errmsg            100396e0 f   acl_res.obj
 0001:00038cab       _res_a_create              10039cab f   res_util.obj
 0001:00038daf       _rfc1035Strerror           10039daf f   rfc1035.obj
 0001:00038e07       _rfc1035BuildAQuery        10039e07 f   rfc1035.obj
 0001:00038f65       _rfc1035BuildPTRQuery      10039f65 f   rfc1035.obj
 0001:0003911f       _rfc1035SetQueryID         1003a11f f   rfc1035.obj
 0001:00039199       _rfc1035MessageUnpack      1003a199 f   rfc1035.obj
 0001:000394ad       _rfc1035QueryCompare       1003a4ad f   rfc1035.obj
 0001:00039583       _rfc1035MessageDestroy     1003a583 f   rfc1035.obj
 0001:000395fe       _rfc1035BuildAReply        1003a5fe f   rfc1035.obj
 0001:0003ad48       _acl_pthread_end           1003bd48 f   acl_pthread.obj
 0001:0003adea       _acl_pthread_once          1003bdea f   acl_pthread.obj
 0001:0003aebc       _acl_pthread_key_create    1003bebc f   acl_pthread.obj
 0001:0003af95       _acl_pthread_getspecific   1003bf95 f   acl_pthread.obj
 0001:0003afb5       _acl_pthread_setspecific   1003bfb5 f   acl_pthread.obj
 0001:0003b1de       _acl_pthread_attr_init     1003c1de f   acl_pthread.obj
 0001:0003b23b       _acl_pthread_attr_setstacksize 1003c23b f   acl_pthread.obj
 0001:0003b285       _acl_pthread_attr_setdetachstate 1003c285 f   acl_pthread.obj
 0001:0003b2b4       _acl_pthread_attr_destroy  1003c2b4 f   acl_pthread.obj
 0001:0003b2e9       _acl_pthread_self          1003c2e9 f   acl_pthread.obj
 0001:0003b306       _acl_pthread_create        1003c306 f   acl_pthread.obj
 0001:0003b599       _acl_pthread_detach        1003c599 f   acl_pthread.obj
 0001:0003b659       _acl_pthread_join          1003c659 f   acl_pthread.obj
 0001:0003b79c       _acl_pthread_atexit_add    1003c79c f   acl_pthread.obj
 0001:0003b8e3       _acl_pthread_atexit_remove 1003c8e3 f   acl_pthread.obj
 0001:0003ba5c       _acl_pthread_tls_set_max   1003ca5c f   acl_pthread.obj
 0001:0003ba8c       _acl_pthread_tls_get_max   1003ca8c f   acl_pthread.obj
 0001:0003ba96       _acl_pthread_tls_get       1003ca96 f   acl_pthread.obj
 0001:0003bd30       _acl_pthread_tls_set       1003cd30 f   acl_pthread.obj
 0001:0003bea8       _acl_pthread_tls_del       1003cea8 f   acl_pthread.obj
 0001:0003bfe0       _acl_pthread_tls_once_get  1003cfe0 f   acl_pthread.obj
 0001:0003bffe       _acl_pthread_tls_once_set  1003cffe f   acl_pthread.obj
 0001:0003c00b       _acl_pthread_tls_key_get   1003d00b f   acl_pthread.obj
 0001:0003c015       _acl_pthread_tls_key_set   1003d015 f   acl_pthread.obj
 0001:0003c5d1       _acl_pthread_cond_init     1003d5d1 f   acl_pthread_cond.obj
 0001:0003c6dc       _acl_pthread_cond_create   1003d6dc f   acl_pthread_cond.obj
 0001:0003c7db       _acl_pthread_cond_destroy  1003d7db f   acl_pthread_cond.obj
 0001:0003c856       _acl_pthread_cond_signal   1003d856 f   acl_pthread_cond.obj
 0001:0003c955       _acl_pthread_cond_broadcast 1003d955 f   acl_pthread_cond.obj
 0001:0003ca84       _acl_pthread_cond_timedwait 1003da84 f   acl_pthread_cond.obj
 0001:0003cc4a       _acl_pthread_cond_wait     1003dc4a f   acl_pthread_cond.obj
 0001:0003cc66       _acl_pthread_mutex_destroy 1003dc66 f   acl_pthread_mutex.obj
 0001:0003ccca       _acl_pthread_mutex_init    1003dcca f   acl_pthread_mutex.obj
 0001:0003cdf1       _acl_pthread_mutex_lock    1003ddf1 f   acl_pthread_mutex.obj
 0001:0003cef0       _acl_pthread_mutex_unlock  1003def0 f   acl_pthread_mutex.obj
 0001:0003cfeb       _acl_thread_mutex_lock     1003dfeb f   acl_pthread_mutex.obj
 0001:0003d188       _acl_thread_mutex_unlock   1003e188 f   acl_pthread_mutex.obj
 0001:0003d2e1       _acl_thread_mutex_nested   1003e2e1 f   acl_pthread_mutex.obj
 0001:0003d3a2       _acl_pthread_mutex_create  1003e3a2 f   acl_pthread_mutex.obj
 0001:0003d5d0       _acl_thread_pool_create    1003e5d0 f   acl_pthread_pool.obj
 0001:0003d671       _acl_pthread_pool_create   1003e671 f   acl_pthread_pool.obj
 0001:0003d9b4       _acl_pthread_pool_set_timewait 1003e9b4 f   acl_pthread_pool.obj
 0001:0003da17       _acl_pthread_pool_atinit   1003ea17 f   acl_pthread_pool.obj
 0001:0003da82       _acl_pthread_pool_atfree   1003ea82 f   acl_pthread_pool.obj
 0001:0003daed       _acl_pthread_pool_destroy  1003eaed f   acl_pthread_pool.obj
 0001:0003dd00       _acl_pthread_pool_stop     1003ed00 f   acl_pthread_pool.obj
 0001:0003de3e       _acl_pthread_pool_add      1003ee3e f   acl_pthread_pool.obj
 0001:0003df6f       _acl_pthread_pool_add_begin 1003ef6f f   acl_pthread_pool.obj
 0001:0003e00d       _acl_pthread_pool_add_one  1003f00d f   acl_pthread_pool.obj
 0001:0003e0e1       _acl_pthread_pool_add_end  1003f0e1 f   acl_pthread_pool.obj
 0001:0003e17f       _acl_pthread_pool_set_poller 1003f17f f   acl_pthread_pool.obj
 0001:0003e1e9       _acl_pthread_pool_start_poller 1003f1e9 f   acl_pthread_pool.obj
 0001:0003e3a8       _acl_pthread_pool_add_dispatch 1003f3a8 f   acl_pthread_pool.obj
 0001:0003e40d       _acl_pthread_pool_dispatch 1003f40d f   acl_pthread_pool.obj
 0001:0003e470       _acl_pthread_pool_size     1003f470 f   acl_pthread_pool.obj
 0001:0003e536       _acl_pthread_pool_set_stacksize 1003f536 f   acl_pthread_pool.obj
 0001:0003e55f       _acl_pthread_pool_attr_init 1003f55f f   acl_pthread_pool.obj
 0001:0003e580       _acl_pthread_pool_attr_set_stacksize 1003f580 f   acl_pthread_pool.obj
 0001:0003e59a       _acl_pthread_pool_attr_set_threads_limit 1003f59a f   acl_pthread_pool.obj
 0001:0003e5b3       _acl_pthread_pool_attr_set_idle_timeout 1003f5b3 f   acl_pthread_pool.obj
 0001:0003f3b7       _acl_pthread_rwlock_destroy 100403b7 f   acl_pthread_rwlock.obj
 0001:0003f437       _acl_pthread_rwlock_init   10040437 f   acl_pthread_rwlock.obj
 0001:0003f554       _acl_pthread_rwlock_rdlock 10040554 f   acl_pthread_rwlock.obj
 0001:0003f618       _acl_pthread_rwlock_tryrdlock 10040618 f   acl_pthread_rwlock.obj
 0001:0003f6b5       _acl_pthread_rwlock_trywrlock 100406b5 f   acl_pthread_rwlock.obj
 0001:0003f72e       _acl_pthread_rwlock_unlock 1004072e f   acl_pthread_rwlock.obj
 0001:0003f820       _acl_pthread_rwlock_wrlock 10040820 f   acl_pthread_rwlock.obj
 0001:0003f8e7       _acl_pthread_rwlockattr_init 100408e7 f   acl_pthread_rwlock.obj
 0001:0003f93b       _acl_pthread_rwlockattr_getpshared 1004093b f   acl_pthread_rwlock.obj
 0001:0003f94e       _acl_pthread_rwlockattr_setpshared 1004094e f   acl_pthread_rwlock.obj
 0001:0003f96a       _acl_pthread_rwlockattr_destroy 1004096a f   acl_pthread_rwlock.obj
 0001:0003f9be       _acl_sem_create2           100409be f   acl_sem.obj
 0001:0003fb11       _acl_sem_create            10040b11 f   acl_sem.obj
 0001:0003fb29       _acl_sem_destroy           10040b29 f   acl_sem.obj
 0001:0003fb79       _acl_sem_wait_timeout      10040b79 f   acl_sem.obj
 0001:0003fcc0       _acl_sem_try_wait          10040cc0 f   acl_sem.obj
 0001:0003fcd8       _acl_sem_wait              10040cd8 f   acl_sem.obj
 0001:0003fcf0       _acl_sem_value             10040cf0 f   acl_sem.obj
 0001:0003fd97       _acl_sem_post              10040d97 f   acl_sem.obj
 0001:0003feb2       _acl_aqueue_new            10040eb2 f   acl_aqueue.obj
 0001:0003ffbe       _acl_aqueue_check_owner    10040fbe f   acl_aqueue.obj
 0001:0003ffd2       _acl_aqueue_set_owner      10040fd2 f   acl_aqueue.obj
 0001:0003ffe6       _acl_aqueue_free           10040fe6 f   acl_aqueue.obj
 0001:000401aa       _acl_aqueue_pop            100411aa f   acl_aqueue.obj
 0001:000401c5       _acl_aqueue_pop_timedwait  100411c5 f   acl_aqueue.obj
 0001:00040448       _acl_aqueue_push           10041448 f   acl_aqueue.obj
 0001:00040648       _acl_aqueue_last_error     10041648 f   acl_aqueue.obj
 0001:0004065e       _acl_aqueue_set_quit       1004165e f   acl_aqueue.obj
 0001:0004080f       _acl_msgio_init            1004180f f   acl_msgio.obj
 0001:0004085d       _acl_msgio_close           1004185d f   acl_msgio.obj
 0001:00040894       _acl_msgio_reg             10041894 f   acl_msgio.obj
 0001:000408b6       _acl_msgio_listen_reg      100418b6 f   acl_msgio.obj
 0001:000408d9       _acl_msgio_unreg           100418d9 f   acl_msgio.obj
 0001:00040945       _acl_msgio_unreg_id        10041945 f   acl_msgio.obj
 0001:000409ba       _acl_msgio_unreg_all       100419ba f   acl_msgio.obj
 0001:00040a3c       _acl_msgio_wait            10041a3c f   acl_msgio.obj
 0001:00040a99       _acl_msgio_listen          10041a99 f   acl_msgio.obj
 0001:00040c44       _acl_msgio_accept          10041c44 f   acl_msgio.obj
 0001:00040c78       _acl_msgio_connect         10041c78 f   acl_msgio.obj
 0001:00040de9       _acl_msgio_set_noblock     10041de9 f   acl_msgio.obj
 0001:00040e37       _acl_msgio_send            10041e37 f   acl_msgio.obj
 0001:00040f6c       _acl_msgio_addr            10041f6c f   acl_msgio.obj
 0001:00040fdb       _acl_msgio_aio             10041fdb f   acl_msgio.obj
 0001:00040fe5       _acl_msgio_vstream         10041fe5 f   acl_msgio.obj
 0001:0004100f       _acl_msgio_astream         1004200f f   acl_msgio.obj
 0001:00042152       _acl_xml_is_closure        10043152 f   acl_xml.obj
 0001:000421ae       _acl_xml_is_complete       100431ae f   acl_xml.obj
 0001:0004222f       _acl_xml_alloc             1004322f f   acl_xml.obj
 0001:00042243       _acl_xml_alloc1            10043243 f   acl_xml.obj
 0001:000422f6       _acl_xml_foreach_init      100432f6 f   acl_xml.obj
 0001:0004232c       _acl_xml_slash             1004332c f   acl_xml.obj
 0001:00042346       _acl_xml_cache             10043346 f   acl_xml.obj
 0001:00042399       _acl_xml_cache_free        10043399 f   acl_xml.obj
 0001:000423ce       _acl_xml_free              100433ce f   acl_xml.obj
 0001:000424d0       _acl_xml_reset             100434d0 f   acl_xml.obj
 0001:00042581       _acl_xml_attr_alloc        10043581 f   acl_xml.obj
 0001:0004263b       _acl_xml_attr_free         1004363b f   acl_xml.obj
 0001:0004269b       _acl_xml_node_alloc        1004369b f   acl_xml.obj
 0001:000427f7       _acl_xml_node_delete       100437f7 f   acl_xml.obj
 0001:000428f3       _acl_xml_node_append       100438f3 f   acl_xml.obj
 0001:00042920       _acl_xml_node_add_child    10043920 f   acl_xml.obj
 0001:0004294a       _acl_xml_node_parent       1004394a f   acl_xml.obj
 0001:00042955       _acl_xml_node_next         10043955 f   acl_xml.obj
 0001:000429c5       _acl_xml_node_prev         100439c5 f   acl_xml.obj
 0001:000431af       _acl_xml_update            100441af f   acl_xml_parse.obj
 0001:00045938       _acl_xml_tag_init          10046938 f   acl_xml_util.obj
 0001:0004596d       _acl_xml_tag_add           1004696d f   acl_xml_util.obj
 0001:00045a95       _acl_xml_tag_selfclosed    10046a95 f   acl_xml_util.obj
 0001:00045bcd       _acl_xml_tag_leaf          10046bcd f   acl_xml_util.obj
 0001:00045bf3       _acl_xml_free_array        10046bf3 f   acl_xml_util.obj
 0001:00045c0b       _acl_xml_getElementsByTagName 10046c0b f   acl_xml_util.obj
 0001:00045ce8       _acl_xml_getElementsByTags 10046ce8 f   acl_xml_util.obj
 0001:00045e95       _acl_xml_getElementsByName 10046e95 f   acl_xml_util.obj
 0001:00045eb4       _acl_xml_getElementsByAttr 10046eb4 f   acl_xml_util.obj
 0001:0004600f       _acl_xml_getAttrById       1004700f f   acl_xml_util.obj
 0001:0004602b       _acl_xml_getAttrValueById  1004702b f   acl_xml_util.obj
 0001:00046065       _acl_xml_getElementById    10047065 f   acl_xml_util.obj
 0001:0004609b       _acl_xml_getElementMeta    1004709b f   acl_xml_util.obj
 0001:0004615c       _acl_xml_getEncoding       1004715c f   acl_xml_util.obj
 0001:0004619e       _acl_xml_getType           1004719e f   acl_xml_util.obj
 0001:000461e0       _acl_xml_getElementAttr    100471e0 f   acl_xml_util.obj
 0001:00046299       _acl_xml_getElementAttrVal 10047299 f   acl_xml_util.obj
 0001:000462d3       _acl_xml_removeElementAttr 100472d3 f   acl_xml_util.obj
 0001:0004635d       _acl_xml_addElementAttr    1004735d f   acl_xml_util.obj
 0001:000463de       _acl_xml_create_node       100473de f   acl_xml_util.obj
 0001:00046458       _acl_xml_node_add_attr     10047458 f   acl_xml_util.obj
 0001:000464d3       _acl_xml_node_add_attrs    100474d3 f   acl_xml_util.obj
 0001:0004655c       _acl_xml_node_set_text     1004755c f   acl_xml_util.obj
 0001:00046588       _acl_xml_build             10047588 f   acl_xml_util.obj
 0001:000468cc       _acl_xml_dump              100478cc f   acl_xml_util.obj
 0001:00046aa0       _acl_xml_dump2             10047aa0 f   acl_xml_util.obj
 0001:00046e22       _acl_event_new             10047e22 f   acl_events.obj
 0001:00046f72       _acl_event_new_select      10047f72 f   acl_events.obj
 0001:00046fbe       _acl_event_new_select_thr  10047fbe f   acl_events.obj
 0001:0004700a       _acl_event_new_poll        1004800a f   acl_events.obj
 0001:0004704b       _acl_event_new_poll_thr    1004804b f   acl_events.obj
 0001:0004708c       _acl_event_new_kernel      1004808c f   acl_events.obj
 0001:000470d9       _acl_event_new_kernel2     100480d9 f   acl_events.obj
 0001:0004711a       _acl_event_new_kernel3     1004811a f   acl_events.obj
 0001:0004715b       _acl_event_new_kernel_thr  1004815b f   acl_events.obj
 0001:0004719c       _acl_event_new_wmsg        1004819c f   acl_events.obj
 0001:000471e7       _acl_event_add_dog         100481e7 f   acl_events.obj
 0001:0004720b       _acl_event_free            1004820b f   acl_events.obj
 0001:00047302       _acl_event_time            10048302 f   acl_events.obj
 0001:00047316       _acl_event_enable_read     10048316 f   acl_events.obj
 0001:00047388       _acl_event_enable_write    10048388 f   acl_events.obj
 0001:000473fa       _acl_event_enable_listen   100483fa f   acl_events.obj
 0001:0004742c       _acl_event_disable_read    1004842c f   acl_events.obj
 0001:00047494       _acl_event_disable_write   10048494 f   acl_events.obj
 0001:000474fc       _acl_event_disable_readwrite 100484fc f   acl_events.obj
 0001:00047524       _acl_event_isset           10048524 f   acl_events.obj
 0001:0004756d       _acl_event_isrset          1004856d f   acl_events.obj
 0001:00047595       _acl_event_iswset          10048595 f   acl_events.obj
 0001:000475bd       _acl_event_isxset          100485bd f   acl_events.obj
 0001:000475e5       _acl_event_request_timer   100485e5 f   acl_events.obj
 0001:000476b4       _acl_event_cancel_timer    100486b4 f   acl_events.obj
 0001:000476e0       _acl_event_keep_timer      100486e0 f   acl_events.obj
 0001:0004770f       _acl_event_timer_ifkeep    1004870f f   acl_events.obj
 0001:0004773b       _acl_event_loop            1004873b f   acl_events.obj
 0001:0004775f       _acl_event_set_delay_sec   1004875f f   acl_events.obj
 0001:00047770       _acl_event_set_delay_usec  10048770 f   acl_events.obj
 0001:00047781       _acl_event_use_thread      10048781 f   acl_events.obj
 0001:0004778f       _acl_event_mode            1004878f f   acl_events.obj
 0001:000479a3       _acl_timer_request         100489a3 f   acl_timer.obj
 0001:00047b40       _acl_timer_cancel          10048b40 f   acl_timer.obj
 0001:00047c75       _acl_timer_popup           10048c75 f   acl_timer.obj
 0001:00047d99       _acl_timer_left            10048d99 f   acl_timer.obj
 0001:00047e9d       _acl_timer_walk            10048e9d f   acl_timer.obj
 0001:00047f2a       _acl_timer_new             10048f2a f   acl_timer.obj
 0001:00047fb9       _acl_timer_free            10048fb9 f   acl_timer.obj
 0001:00048067       _acl_timer_size            10049067 f   acl_timer.obj
 0001:0004826b       _event_check_fds           1004926b f   events.obj
 0001:00048502       _event_prepare             10049502 f   events.obj
 0001:000487df       _event_fire                100497df f   events.obj
 0001:00048aaf       _event_thr_prepare         10049aaf f   events.obj
 0001:00048d8f       _event_thr_fire            10049d8f f   events.obj
 0001:00048ff8       _event_alloc               10049ff8 f   events_alloc.obj
 0001:0004948c       _event_dog_create          1004a48c f   events_dog.obj
 0001:000494fd       _event_dog_notify          1004a4fd f   events_dog.obj
 0001:000495b1       _event_dog_client          1004a5b1 f   events_dog.obj
 0001:000495cf       _event_dog_free            1004a5cf f   events_dog.obj
 0001:00049932       _event_fdtable_alloc       1004a932 f   events_fdtable.obj
 0001:00049970       _event_fdtable_free        1004a970 f   events_fdtable.obj
 0001:00049996       _event_fdtable_reset       1004a996 f   events_fdtable.obj
 0001:000499bf       _event_new_iocp            1004a9bf f   events_iocp.obj
 0001:0004b9b6       _event_new_select          1004c9b6 f   events_select.obj
 0001:0004d55f       _event_new_select_thr      1004e55f f   events_select_thr.obj
 0001:0004f13a       _event_timer_request       1005013a f   events_timer.obj
 0001:0004f3db       _event_timer_cancel        100503db f   events_timer.obj
 0001:0004f58c       _event_timer_keep          1005058c f   events_timer.obj
 0001:0004f621       _event_timer_ifkeep        10050621 f   events_timer.obj
 0001:0004f6b2       _event_timer_request_thr   100506b2 f   events_timer_thr.obj
 0001:0004f9a7       _event_timer_cancel_thr    100509a7 f   events_timer_thr.obj
 0001:0004fbb8       _event_timer_keep_thr      10050bb8 f   events_timer_thr.obj
 0001:0004fd05       _event_timer_ifkeep_thr    10050d05 f   events_timer_thr.obj
 0001:0004fe8e       _acl_event_wmsg_hwnd       10050e8e f   events_wmsg.obj
 0001:0004feaa       _event_new_wmsg            10050eaa f   events_wmsg.obj
 0001:00051d70       _acl_fdmap_create          10052d70 f   fdmap.obj
 0001:00051e2d       _acl_fdmap_add             10052e2d f   fdmap.obj
 0001:00051e8e       _acl_fdmap_del             10052e8e f   fdmap.obj
 0001:00051ed2       _acl_fdmap_ctx             10052ed2 f   fdmap.obj
 0001:00051f22       _acl_fdmap_free            10052f22 f   fdmap.obj
 0001:00051f6c       _acl_ioctl_create          10052f6c f   acl_ioctl.obj
 0001:00051fac       _acl_ioctl_create_ex       10052fac f   acl_ioctl.obj
 0001:0005206c       _acl_ioctl_add_dog         1005306c f   acl_ioctl.obj
 0001:0005208d       _acl_ioctl_ctl             1005308d f   acl_ioctl.obj
 0001:00052245       _acl_ioctl_free            10053245 f   acl_ioctl.obj
 0001:000522a0       _acl_ioctl_start           100532a0 f   acl_ioctl.obj
 0001:00052393       _acl_ioctl_loop            10053393 f   acl_ioctl.obj
 0001:000523ba       _acl_ioctl_event           100533ba f   acl_ioctl.obj
 0001:000523cf       _acl_ioctl_disable_readwrite 100533cf f   acl_ioctl.obj
 0001:00052400       _acl_ioctl_disable_read    10053400 f   acl_ioctl.obj
 0001:00052431       _acl_ioctl_disable_write   10053431 f   acl_ioctl.obj
 0001:00052462       _acl_ioctl_isset           10053462 f   acl_ioctl.obj
 0001:0005247e       _acl_ioctl_isrset          1005347e f   acl_ioctl.obj
 0001:0005249a       _acl_ioctl_iswset          1005349a f   acl_ioctl.obj
 0001:000524b6       _acl_ioctl_enable_read     100534b6 f   acl_ioctl.obj
 0001:000525b2       _acl_ioctl_enable_write    100535b2 f   acl_ioctl.obj
 0001:000526a4       _acl_ioctl_enable_connect  100536a4 f   acl_ioctl.obj
 0001:000526fa       _acl_ioctl_enable_listen   100536fa f   acl_ioctl.obj
 0001:000527ec       _acl_ioctl_connect         100537ec f   acl_ioctl.obj
 0001:00052862       _acl_ioctl_listen          10053862 f   acl_ioctl.obj
 0001:0005287b       _acl_ioctl_listen_ex       1005387b f   acl_ioctl.obj
 0001:0005289e       _acl_ioctl_accept          1005389e f   acl_ioctl.obj
 0001:000528bb       _acl_ioctl_request_timer   100538bb f   acl_ioctl.obj
 0001:00052934       _acl_ioctl_cancel_timer    10053934 f   acl_ioctl.obj
 0001:00052ab4       _read_notify_callback      10053ab4 f   ioctl_proc.obj
 0001:00052b6f       _write_notify_callback     10053b6f f   ioctl_proc.obj
 0001:00052c2a       _listen_notify_callback    10053c2a f   ioctl_proc.obj
 0001:00052ce5       _acl_ioctl_add             10053ce5 f   ioctl_thr.obj
 0001:00052dac       _acl_ioctl_nworker         10053dac f   ioctl_thr.obj
 0001:00052dc4       _read_notify_callback_r    10053dc4 f   ioctl_thr.obj
 0001:00052e4b       _write_notify_callback_r   10053e4b f   ioctl_thr.obj
 0001:00052ed2       _listen_notify_callback_r  10053ed2 f   ioctl_thr.obj
 0001:0005305f       _acl_aio_create            1005405f f   acl_aio.obj
 0001:00053077       _acl_aio_create2           10054077 f   acl_aio.obj
 0001:0005325c       _acl_aio_free              1005425c f   acl_aio.obj
 0001:0005329c       _acl_aio_loop              1005429c f   acl_aio.obj
 0001:000532cc       _acl_aio_check             100542cc f   acl_aio.obj
 0001:000532e1       _acl_aio_event             100542e1 f   acl_aio.obj
 0001:000532f5       _acl_aio_event_mode        100542f5 f   acl_aio.obj
 0001:00053300       _acl_aio_get_keep_read     10054300 f   acl_aio.obj
 0001:00053315       _acl_aio_set_keep_read     10054315 f   acl_aio.obj
 0001:00053329       _acl_aio_get_delay_sec     10054329 f   acl_aio.obj
 0001:0005333f       _acl_aio_get_delay_usec    1005433f f   acl_aio.obj
 0001:00053355       _acl_aio_set_delay_sec     10054355 f   acl_aio.obj
 0001:0005337f       _acl_aio_set_delay_usec    1005437f f   acl_aio.obj
 0001:000533a9       _acl_aio_set_rbuf_size     100543a9 f   acl_aio.obj
 0001:000533b7       _acl_aio_request_timer     100543b7 f   acl_aio.obj
 0001:00053414       _acl_aio_cancel_timer      10054414 f   acl_aio.obj
 0001:00053468       _acl_aio_keep_timer        10054468 f   acl_aio.obj
 0001:000534b9       _acl_aio_timer_ifkeep      100544b9 f   acl_aio.obj
 0001:00053507       _acl_aio_connect           10054507 f   acl_aio_connect.obj
 0001:00053af4       _acl_aio_accept            10054af4 f   acl_aio_listen.obj
 0001:00053b59       _acl_aio_listen            10054b59 f   acl_aio_listen.obj
 0001:00053f18       _acl_aio_gets              10054f18 f   acl_aio_read.obj
 0001:00053f30       _acl_aio_gets_nonl         10054f30 f   acl_aio_read.obj
 0001:00053f48       _acl_aio_read              10054f48 f   acl_aio_read.obj
 0001:00054108       _acl_aio_readn             10055108 f   acl_aio_read.obj
 0001:000542d1       _acl_aio_gets_peek         100552d1 f   acl_aio_read.obj
 0001:000543bb       _acl_aio_gets_nonl_peek    100553bb f   acl_aio_read.obj
 0001:000544a5       _acl_aio_read_peek         100554a5 f   acl_aio_read.obj
 0001:0005454e       _acl_aio_readn_peek        1005554e f   acl_aio_read.obj
 0001:0005463c       _acl_aio_enable_read       1005563c f   acl_aio_read.obj
 0001:000547ba       _acl_aio_can_read          100557ba f   acl_aio_read.obj
 0001:000547d2       _acl_aio_disable_read      100557d2 f   acl_aio_read.obj
 0001:0005482b       _acl_aio_isrset            1005582b f   acl_aio_read.obj
 0001:0005625f       _acl_aio_set_accept_nloop  1005725f f   acl_aio_stream.obj
 0001:00056270       _acl_aio_handle            10057270 f   acl_aio_stream.obj
 0001:00056284       _acl_aio_set_ctx           10057284 f   acl_aio_stream.obj
 0001:0005629b       _acl_aio_get_ctx           1005729b f   acl_aio_stream.obj
 0001:000562c3       _acl_aio_open              100572c3 f   acl_aio_stream.obj
 0001:00056564       _acl_aio_iocp_close        10057564 f   acl_aio_stream.obj
 0001:000566e1       _acl_aio_cancel            100576e1 f   acl_aio_stream.obj
 0001:00056731       _acl_aio_add_read_hook     10057731 f   acl_aio_stream.obj
 0001:0005686e       _acl_aio_add_write_hook    1005786e f   acl_aio_stream.obj
 0001:000569ab       _acl_aio_add_close_hook    100579ab f   acl_aio_stream.obj
 0001:00056aec       _acl_aio_add_timeo_hook    10057aec f   acl_aio_stream.obj
 0001:00056c2d       _acl_aio_add_connect_hook  10057c2d f   acl_aio_stream.obj
 0001:00056d6e       _acl_aio_del_read_hook     10057d6e f   acl_aio_stream.obj
 0001:00056eaf       _acl_aio_del_write_hook    10057eaf f   acl_aio_stream.obj
 0001:00056ff0       _acl_aio_del_close_hook    10057ff0 f   acl_aio_stream.obj
 0001:000570bd       _acl_aio_del_timeo_hook    100580bd f   acl_aio_stream.obj
 0001:0005718a       _acl_aio_del_connect_hook  1005818a f   acl_aio_stream.obj
 0001:00057257       _acl_aio_clean_read_hooks  10058257 f   acl_aio_stream.obj
 0001:000572c9       _acl_aio_clean_write_hooks 100582c9 f   acl_aio_stream.obj
 0001:0005735e       _acl_aio_clean_close_hooks 1005835e f   acl_aio_stream.obj
 0001:0005737f       _acl_aio_clean_timeo_hooks 1005837f f   acl_aio_stream.obj
 0001:000573a0       _acl_aio_clean_connect_hooks 100583a0 f   acl_aio_stream.obj
 0001:000573c1       _acl_aio_clean_hooks       100583c1 f   acl_aio_stream.obj
 0001:000573fa       _acl_aio_ctl               100583fa f   acl_aio_stream.obj
 0001:00057886       _acl_aio_vstream           10058886 f   acl_aio_stream.obj
 0001:000578a4       _acl_aio_stream_set_keep_read 100588a4 f   acl_aio_stream.obj
 0001:000578b5       _acl_aio_stream_get_keep_read 100588b5 f   acl_aio_stream.obj
 0001:000578c3       _acl_aio_disable_readwrite 100588c3 f   acl_aio_stream.obj
 0001:000578e1       _acl_aio_isset             100588e1 f   acl_aio_stream.obj
 0001:00057937       _acl_aio_refer_value       10058937 f   acl_aio_stream.obj
 0001:0005797b       _acl_aio_refer             1005897b f   acl_aio_stream.obj
 0001:00057993       _acl_aio_unrefer           10058993 f   acl_aio_stream.obj
 0001:000579ab       _aio_delay_check           100589ab f   acl_aio_stream.obj
 0001:00057cf3       _acl_aio_writen            10058cf3 f   acl_aio_write.obj
 0001:00058069       _acl_aio_writev            10059069 f   acl_aio_write.obj
 0001:000584f6       _acl_aio_vfprintf          100594f6 f   acl_aio_write.obj
 0001:000588e8       _acl_aio_fprintf           100598e8 f   acl_aio_write.obj
 0001:0005891a       _acl_aio_enable_write      1005991a f   acl_aio_write.obj
 0001:0005898c       _acl_aio_disable_write     1005998c f   acl_aio_write.obj
 0001:000589e5       _acl_aio_iswset            100599e5 f   acl_aio_write.obj
 0001:00059471       _aio_timeout_callback      1005a471 f   aio_callback.obj
 0001:000595f0       _aio_close_callback        1005a5f0 f   aio_callback.obj
 0001:00059773       _acl_dbpool_create         1005a773 f   acl_dbpool.obj
 0001:00059896       _acl_dbpool_destroy        1005a896 f   acl_dbpool.obj
 0001:000598ba       _acl_dbpool_peek           1005a8ba f   acl_dbpool.obj
 0001:000598de       _acl_dbpool_check          1005a8de f   acl_dbpool.obj
 0001:00059902       _acl_dbpool_release        1005a902 f   acl_dbpool.obj
 0001:0005993a       _acl_dbpool_export         1005a93a f   acl_dbpool.obj
 0001:00059972       _acl_dbpool_close          1005a972 f   acl_dbpool.obj
 0001:000599aa       _acl_dbpool_set_ping       1005a9aa f   acl_dbpool.obj
 0001:000599bb       _acl_dbsql_select          1005a9bb f   acl_dbsql.obj
 0001:00059a39       _acl_dbsql_free_result     1005aa39 f   acl_dbsql.obj
 0001:00059aa7       _acl_dbsql_results         1005aaa7 f   acl_dbsql.obj
 0001:00059b7f       _acl_dbsql_result          1005ab7f f   acl_dbsql.obj
 0001:00059c57       _acl_dbsql_update          1005ac57 f   acl_dbsql.obj
 0001:00059d23       _acl_mdb_create            1005ad23 f   acl_mdb.obj
 0001:00059e69       _acl_mdb_free              1005ae69 f   acl_mdb.obj
 0001:00059ea4       _acl_mdb_tbl_create        1005aea4 f   acl_mdb.obj
 0001:00059f5c       _acl_mdb_add               1005af5c f   acl_mdb.obj
 0001:0005a02a       _acl_mdb_probe             1005b02a f   acl_mdb.obj
 0001:0005a11d       _acl_mdb_find              1005b11d f   acl_mdb.obj
 0001:0005a21f       _acl_mdb_list              1005b21f f   acl_mdb.obj
 0001:0005a2c3       _acl_mdb_del               1005b2c3 f   acl_mdb.obj
 0001:0005a3c6       _acl_mdb_walk              1005b3c6 f   acl_mdb.obj
 0001:0005a46f       _acl_mdb_cnt               1005b46f f   acl_mdb.obj
 0001:0005a527       _acl_mdt_create            1005b527 f   acl_mdt.obj
 0001:0005a7c9       _acl_mdt_free              1005b7c9 f   acl_mdt.obj
 0001:0005a85e       _acl_mdt_add               1005b85e f   acl_mdt.obj
 0001:0005a88d       _acl_mdt_probe             1005b88d f   acl_mdt.obj
 0001:0005a8b6       _acl_mdt_find              1005b8b6 f   acl_mdt.obj
 0001:0005a8e5       _acl_mdt_list              1005b8e5 f   acl_mdt.obj
 0001:0005a90e       _acl_mdt_delete            1005b90e f   acl_mdt.obj
 0001:0005a93a       _acl_mdt_walk              1005b93a f   acl_mdt.obj
 0001:0005a966       _acl_mdt_fetch_row         1005b966 f   acl_mdt.obj
 0001:0005aa08       _acl_mdt_row_count         1005ba08 f   acl_mdt.obj
 0001:0005aa3a       _acl_mdt_res_free          1005ba3a f   acl_mdt.obj
 0001:0005aa7c       _acl_mdt_cnt               1005ba7c f   acl_mdt.obj
 0001:0005ba88       _acl_mdt_avl_create        1005ca88 f   acl_mdt_avl.obj
 0001:0005c005       _acl_mdt_binhash_create    1005d005 f   acl_mdt_binhash.obj
 0001:0005c2fe       _acl_mdt_hash_create       1005d2fe f   acl_mdt_hash.obj
 0001:0005c576       _acl_dbnull_results        1005d576 f   acl_dbnull.obj
 0001:0005c5ae       _acl_dbnull_result         1005d5ae f   acl_dbnull.obj
 0001:0005c5e6       _acl_dbnull_update         1005d5e6 f   acl_dbnull.obj
 0001:0005c63f       _acl_dbpool_null_create    1005d63f f   acl_dbpool_null.obj
 0001:0005d3ac       _zdb_init                  1005e3ac f   zdb.obj
 0001:0005d3c9       _zdb_end                   1005e3c9 f   zdb.obj
 0001:0005d3da       _zdb_sync                  1005e3da f   zdb.obj
 0001:0005d3ff       _zdb_open                  1005e3ff f   zdb.obj
 0001:0005d620       _zdb_close                 1005e620 f   zdb.obj
 0001:0005d77a       _zdb_lookup                1005e77a f   zdb.obj
 0001:0005d94e       _zdb_update                1005e94e f   zdb.obj
 0001:0005db52       _zdb_disk_select           1005eb52 f   zdb.obj
 0001:0005e482       _dat_store_header_sync     1005f482 f   zdb_dat.obj
 0001:0005e4ef       _zdb_dat_store_close       1005f4ef f   zdb_dat.obj
 0001:0005e507       _zdb_dat_store_open        1005f507 f   zdb_dat.obj
 0001:0005e5aa       _zdb_dat_get               1005f5aa f   zdb_dat.obj
 0001:0005e8e6       _zdb_dat_add               1005f8e6 f   zdb_dat.obj
 0001:0005f1de       _zdb_dat_update            100601de f   zdb_dat.obj
 0001:0005f9fd       _zdb_dat_stat              100609fd f   zdb_dat.obj
 0001:0005fa7b       _zdb_dat_check3            10060a7b f   zdb_dat.obj
 0001:0005fafe       _zdb_dat_check             10060afe f   zdb_dat.obj
 0001:00060cd1       _zdb_dat_iter_set          10061cd1 f   zdb_dat_iter.obj
 0001:000614a7       _zdb_dat_walk              100624a7 f   zdb_dat_walk.obj
 0001:00061746       _zdb_io_cache_sync         10062746 f   zdb_io.obj
 0001:0006199c       _zdb_io_cache_open         1006299c f   zdb_io.obj
 0001:00061aa9       _zdb_io_cache_close        10062aa9 f   zdb_io.obj
 0001:00061b4f       _zdb_write                 10062b4f f   zdb_io.obj
 0001:00061c61       _zdb_read                  10062c61 f   zdb_io.obj
 0001:0006235e       _key_store_header_sync     1006335e f   zdb_key.obj
 0001:000623cb       _zdb_key_store_open        100633cb f   zdb_key.obj
 0001:0006246d       _zdb_key_store_open2       1006346d f   zdb_key.obj
 0001:0006251a       _zdb_key_store_close       1006351a f   zdb_key.obj
 0001:00062532       _zdb_key_set               10063532 f   zdb_key.obj
 0001:00062780       _zdb_key_get               10063780 f   zdb_key.obj
 0001:00062a65       _zdb_key_status            10063a65 f   zdb_key.obj
 0001:00062ae3       _zdb_key_check3            10063ae3 f   zdb_key.obj
 0001:00062b66       _zdb_key_check             10063b66 f   zdb_key.obj
 0001:00062cdf       _zdb_key_init              10063cdf f   zdb_key.obj
 0001:00063a7a       _zdb_key_walk              10064a7a f   zdb_key_walk.obj
 0001:00063c46       _aut_parse_args_list       10064c46 f   acl_test_cfg.obj
 0001:00063ec3       _aut_free_args_list        10064ec3 f   acl_test_cfg.obj
 0001:00063ee6       _aut_cfg_parse             10064ee6 f   acl_test_cfg.obj
 0001:0006403a       _aut_cfg_print             1006503a f   acl_test_cfg.obj
 0001:00064385       _aut_cfg_add_general_line  10065385 f   acl_test_cfg_general.obj
 0001:000645a3       _aut_add_inner_cmd         100655a3 f   acl_test_inner.obj
 0001:00064a0f       _aut_log_open              10065a0f f   acl_test_log.obj
 0001:00064a6e       _aut_log_info              10065a6e f   acl_test_log.obj
 0001:00064ade       _aut_log_warn              10065ade f   acl_test_log.obj
 0001:00064b4e       _aut_log_error             10065b4e f   acl_test_log.obj
 0001:00064bbe       _aut_log_fatal             10065bbe f   acl_test_log.obj
 0001:00064c3c       _aut_log_panic             10065c3c f   acl_test_log.obj
 0001:00064cbd       _aut_loop_make_begin       10065cbd f   acl_test_loop.obj
 0001:00064df6       _aut_loop_make_break       10065df6 f   acl_test_loop.obj
 0001:00064f81       _aut_loop_make_end         10065f81 f   acl_test_loop.obj
 0001:00065170       _aut_loop_end              10066170 f   acl_test_loop.obj
 0001:0006518f       _aut_loop_count            1006618f f   acl_test_loop.obj
 0001:00065210       _aut_loop_from             10066210 f   acl_test_loop.obj
 0001:000652d6       _aut_loop_to               100662d6 f   acl_test_loop.obj
 0001:0006537f       _aut_line_free             1006637f f   acl_test_misc.obj
 0001:00065439       _aut_line_new              10066439 f   acl_test_misc.obj
 0001:000654ac       _aut_args_get              100664ac f   acl_test_misc.obj
 0001:00065593       _aut_size                  10066593 f   acl_test_misc.obj
 0001:0006563a       _aut_index                 1006663a f   acl_test_misc.obj
 0001:00065731       _aut_line_cmdcmp           10066731 f   acl_test_misc.obj
 0001:000657e8       _aut_line_resultcmp        100667e8 f   acl_test_misc.obj
 0001:000658a7       _aut_line_number           100668a7 f   acl_test_misc.obj
 0001:00065952       _aut_line_valid_linenum    10066952 f   acl_test_misc.obj
 0001:0006596b       _aut_line_cmdname          1006696b f   acl_test_misc.obj
 0001:00065a12       _aut_line_argc             10066a12 f   acl_test_misc.obj
 0001:00065abd       _aut_line_getvalue         10066abd f   acl_test_misc.obj
 0001:00065bd4       _aut_line_argstr           10066bd4 f   acl_test_misc.obj
 0001:00065c7f       _aut_line_result           10066c7f f   acl_test_misc.obj
 0001:00065d2a       _aut_line_stop             10066d2a f   acl_test_misc.obj
 0001:00065dd9       _aut_line_reserved         10066dd9 f   acl_test_misc.obj
 0001:00065e8c       _aut_line_add_arg          10066e8c f   acl_test_misc.obj
 0001:00065f33       _aut_line_del_arg          10066f33 f   acl_test_misc.obj
 0001:00065f6f       _aut_line_get_arg          10066f6f f   acl_test_misc.obj
 0001:00065f87       _aut_end_linenum           10066f87 f   acl_test_misc.obj
 0001:00066082       _aut_lookup_from_line      10067082 f   acl_test_misc.obj
 0001:00066117       _aut_add_outer_cmd         10067117 f   acl_test_outer.obj
 0001:000663dd       _aut_start                 100673dd f   acl_test_runner.obj
 0001:000664bc       _aut_stop                  100674bc f   acl_test_runner.obj
 0001:0006650c       _aut_register              1006750c f   acl_test_runner.obj
 0001:00066f19       _aut_line_peer_token       10067f19 f   acl_test_token.obj
 0001:00066fe0       _aut_line_peer             10067fe0 f   acl_test_token.obj
 0001:00067107       _acl_app_conf_load         10068107 f   master_params.obj
 0001:0006723a       _acl_get_app_conf_int_table 1006823a f   master_params.obj
 0001:00067360       _acl_get_app_conf_int64_table 10068360 f   master_params.obj
 0001:00067482       _acl_get_app_conf_str_table 10068482 f   master_params.obj
 0001:000675a8       _acl_get_app_conf_bool_table 100685a8 f   master_params.obj
 0001:00067a69       _acl_proctl_daemon_path    10068a69 f   acl_proctl.obj
 0001:00067ab4       _acl_proctl_deamon_init    10068ab4 f   acl_proctl.obj
 0001:00067b61       _acl_proctl_daemon_loop    10068b61 f   acl_proctl.obj
 0001:00067bfb       _acl_proctl_deamon_start_one 10068bfb f   acl_proctl.obj
 0001:00067c79       _acl_proctl_start_one      10068c79 f   acl_proctl.obj
 0001:00067e9a       _acl_proctl_stop_one       10068e9a f   acl_proctl.obj
 0001:000680bb       _acl_proctl_stop_all       100690bb f   acl_proctl.obj
 0001:000680db       _acl_proctl_quit           100690db f   acl_proctl.obj
 0001:00068224       _acl_proctl_list           10069224 f   acl_proctl.obj
 0001:00068385       _acl_proctl_probe          10069385 f   acl_proctl.obj
 0001:000684e6       _acl_proctl_child          100694e6 f   acl_proctl.obj
 0001:00068733       _proctl_child_atexit       10069733 f   proctl_child.obj
 0001:00068748       _proctl_child_thread       10069748 f   proctl_child.obj
 0001:00068f1e       _proctl_monitor_thread     10069f1e f   proctl_monitor.obj
 0001:00069dfe       _proctl_msg_new            1006adfe f   proctl_service.obj
 0001:00069e39       _proctl_msg_free           1006ae39 f   proctl_service.obj
 0001:00069e8c       _proctl_service_init       1006ae8c f   proctl_service.obj
 0001:00069f91       _proctl_service_alloc      1006af91 f   proctl_service.obj
 0001:0006a009       _proctl_service_new        1006b009 f   proctl_service.obj
 0001:0006a109       _proctl_service_free       1006b109 f   proctl_service.obj
 0001:0006a1b0       _proctl_serivce_get_all    1006b1b0 f   proctl_service.obj
 0001:0006a261       _proctl_service_free_all   1006b261 f   proctl_service.obj
 0001:0006a27c       _proctl_service_exist      1006b27c f   proctl_service.obj
 0001:0006a325       _proctl_service_start      1006b325 f   proctl_service.obj
 0001:0006a43a       _proctl_service_wait       1006b43a f   proctl_service.obj
 0001:0006a58b       _proctl_service_join       1006b58b f   proctl_service.obj
 0001:0006a77b       _proctl_msg_push           1006b77b f   proctl_service.obj
 0001:0006abdd       _get_lock_file             1006bbdd f   proctl_utils.obj
 0001:0006ad1e       _get_exec_path             1006bd1e f   proctl_utils.obj
 0001:0006aeab       _get_lock_file2            1006beab f   proctl_utils.obj
 0001:0006af2f       _get_addr_from_file        1006bf2f f   proctl_utils.obj
 0001:0006b040       _local_listen              1006c040 f   proctl_utils.obj
 0001:0006b363       _acl_init                  1006c363 f   acl_init.obj
 0001:0006b398       _acl_end                   1006c398 f   acl_init.obj
 0001:0006b3c3       _acl_poll_prefered         1006c3c3 f   acl_init.obj
 0001:0006b3d0       _acl_version               1006c3d0 f   acl_init.obj
 0001:0006b3da       _acl_main_thread_self      1006c3da f   acl_init.obj
 0001:0006b4ce       _private_array_create      1006c4ce f   private_array.obj
 0001:0006b55f       _private_array_clean       1006c55f f   private_array.obj
 0001:0006b5d4       _private_array_destroy     1006c5d4 f   private_array.obj
 0001:0006b621       _private_array_push        1006c621 f   private_array.obj
 0001:0006b674       _private_array_pop         1006c674 f   private_array.obj
 0001:0006b6c0       _private_array_delete      1006c6c0 f   private_array.obj
 0001:0006b750       _private_array_delete_obj  1006c750 f   private_array.obj
 0001:0006b7b9       _private_array_index       1006c7b9 f   private_array.obj
 0001:0006b7e0       _private_array_size        1006c7e0 f   private_array.obj
 0001:0006b7f6       _private_array_grow        1006c7f6 f   private_array.obj
 0001:0006badc       _private_fifo_init         1006cadc f   private_fifo.obj
 0001:0006bb27       _private_fifo_new          1006cb27 f   private_fifo.obj
 0001:0006bb94       _private_fifo_free         1006cb94 f   private_fifo.obj
 0001:0006bbea       _private_fifo_push         1006cbea f   private_fifo.obj
 0001:0006bc82       _private_fifo_pop          1006cc82 f   private_fifo.obj
 0001:0006bd15       _private_delete_info       1006cd15 f   private_fifo.obj
 0001:0006bd8e       _private_fifo_head         1006cd8e f   private_fifo.obj
 0001:0006bda8       _private_fifo_tail         1006cda8 f   private_fifo.obj
 0001:0006bdc4       _private_fifo_size         1006cdc4 f   private_fifo.obj
 0001:0006bfbd       _private_vstream_getc      1006cfbd f   private_vstream.obj
 0001:0006c03b       _private_vstream_ungetc    1006d03b f   private_vstream.obj
 0001:0006c0a5       _private_vstream_gets      1006d0a5 f   private_vstream.obj
 0001:0006c192       _private_vstream_gets_nonl 1006d192 f   private_vstream.obj
 0001:0006c2c3       _private_vstream_readn     1006d2c3 f   private_vstream.obj
 0001:0006c393       _private_vstream_read      1006d393 f   private_vstream.obj
 0001:0006c44a       _private_vstream_write     1006d44a f   private_vstream.obj
 0001:0006c467       _private_vstream_writen    1006d467 f   private_vstream.obj
 0001:0006c4c7       _private_vstream_buffed_writen 1006d4c7 f   private_vstream.obj
 0001:0006c5be       _private_vstream_fflush    1006d5be f   private_vstream.obj
 0001:0006c6a0       _private_vstream_fhopen    1006d6a0 f   private_vstream.obj
 0001:0006c700       _private_vstream_fdopen    1006d700 f   private_vstream.obj
 0001:0006c95a       _private_vstream_fopen     1006d95a f   private_vstream.obj
 0001:0006ca24       _private_vstream_connect   1006da24 f   private_vstream.obj
 0001:0006ca4a       _private_vstream_connect_ex 1006da4a f   private_vstream.obj
 0001:0006cb4c       _private_vstream_ctl       1006db4c f   private_vstream.obj
 0001:0006cd2b       _private_vstream_free      1006dd2b f   private_vstream.obj
 0001:0006ce68       _private_vstream_close     1006de68 f   private_vstream.obj
 0001:0006dae5       _sem_create2               1006eae5 f   sem.obj
 0001:0006db74       _sem_create                1006eb74 f   sem.obj
 0001:0006db8c       _sem_destroy               1006eb8c f   sem.obj
 0001:0006dbd5       _sem_wait_timeout          1006ebd5 f   sem.obj
 0001:0006dc77       _sem_try_wait              1006ec77 f   sem.obj
 0001:0006dc8f       _sem_wait                  1006ec8f f   sem.obj
 0001:0006dca7       _sem_value                 1006eca7 f   sem.obj
 0001:0006dcd4       _sem_post                  1006ecd4 f   sem.obj
 0001:0006dd38       _thread_mutex_destroy      1006ed38 f   thread_mutex.obj
 0001:0006dd95       _thread_mutex_init         1006ed95 f   thread_mutex.obj
 0001:0006ddfb       _thread_mutex_lock         1006edfb f   thread_mutex.obj
 0001:0006de44       _thread_mutex_unlock       1006ee44 f   thread_mutex.obj
 0001:0006de8a       _thread_mutex_create       1006ee8a f   thread_mutex.obj
 0001:0006df13       _acl_json_node_alloc       1006ef13 f   acl_json.obj
 0001:0006e050       _acl_json_node_delete      1006f050 f   acl_json.obj
 0001:0006e127       _acl_json_node_append      1006f127 f   acl_json.obj
 0001:0006e154       _acl_json_node_add_child   1006f154 f   acl_json.obj
 0001:0006e17e       _acl_json_node_parent      1006f17e f   acl_json.obj
 0001:0006e189       _acl_json_node_next        1006f189 f   acl_json.obj
 0001:0006e1f9       _acl_json_node_prev        1006f1f9 f   acl_json.obj
 0001:0006e269       _acl_json_node_type        1006f269 f   acl_json.obj
 0001:0006e294       _acl_json_alloc            1006f294 f   acl_json.obj
 0001:0006e2a8       _acl_json_alloc1           1006f2a8 f   acl_json.obj
 0001:0006e35c       _acl_json_foreach_init     1006f35c f   acl_json.obj
 0001:0006e392       _acl_json_cache            1006f392 f   acl_json.obj
 0001:0006e3e5       _acl_json_cache_free       1006f3e5 f   acl_json.obj
 0001:0006e41a       _acl_json_free             1006f41a f   acl_json.obj
 0001:0006e50d       _acl_json_reset            1006f50d f   acl_json.obj
 0001:0006ecad       _acl_json_update           1006fcad f   acl_json_parse.obj
 0001:0006fcdd       _acl_json_free_array       10070cdd f   acl_json_util.obj
 0001:0006fcf5       _acl_json_getElementsByTagName 10070cf5 f   acl_json_util.obj
 0001:0006fdd2       _acl_json_getElementsByTags 10070dd2 f   acl_json_util.obj
 0001:0006ff7b       _acl_json_create_leaf      10070f7b f   acl_json_util.obj
 0001:0006ffc7       _acl_json_create_obj       10070fc7 f   acl_json_util.obj
 0001:0007000b       _acl_json_create_array     1007100b f   acl_json_util.obj
 0001:0007004f       _acl_json_create_node      1007104f f   acl_json_util.obj
 0001:000700a4       _acl_json_node_append_child 100710a4 f   acl_json_util.obj
 0001:00070104       _acl_json_build            10071104 f   acl_json_util.obj
 0001:000707a6       _WSASetLastError@4         100717a6 f   wsock32:WSOCK32.dll
 0001:000707ac       _WSAGetLastError@0         100717ac f   wsock32:WSOCK32.dll
 0001:000707b2       _htons@4                   100717b2 f   wsock32:WSOCK32.dll
 0001:000707b8       _inet_addr@4               100717b8 f   wsock32:WSOCK32.dll
 0001:000707be       _recvfrom@24               100717be f   wsock32:WSOCK32.dll
 0001:000707c4       _sendto@24                 100717c4 f   wsock32:WSOCK32.dll
 0001:000707ca       _socket@12                 100717ca f   wsock32:WSOCK32.dll
 0001:000707d0       _ioctlsocket@12            100717d0 f   wsock32:WSOCK32.dll
 0001:000707d6       _select@20                 100717d6 f   wsock32:WSOCK32.dll
 0001:000707dc       ___WSAFDIsSet@8            100717dc f   wsock32:WSOCK32.dll
 0001:000707e2       _ntohl@4                   100717e2 f   wsock32:WSOCK32.dll
 0001:000707e8       _closesocket@4             100717e8 f   wsock32:WSOCK32.dll
 0001:000707ee       _recv@16                   100717ee f   wsock32:WSOCK32.dll
 0001:000707f4       _send@16                   100717f4 f   wsock32:WSOCK32.dll
 0001:000707fa       _WSAStartup@8              100717fa f   wsock32:WSOCK32.dll
 0001:00070800       _WSACleanup@0              10071800 f   wsock32:WSOCK32.dll
 0001:00070806       _getpeername@12            10071806 f   wsock32:WSOCK32.dll
 0001:0007080c       _getsockname@12            1007180c f   wsock32:WSOCK32.dll
 0001:00070812       _ntohs@4                   10071812 f   wsock32:WSOCK32.dll
 0001:00070818       _getsockopt@20             10071818 f   wsock32:WSOCK32.dll
 0001:0007081e       _setsockopt@20             1007181e f   wsock32:WSOCK32.dll
 0001:00070824       _bind@12                   10071824 f   wsock32:WSOCK32.dll
 0001:0007082a       _listen@8                  1007182a f   wsock32:WSOCK32.dll
 0001:00070830       _accept@12                 10071830 f   wsock32:WSOCK32.dll
 0001:00070836       _connect@12                10071836 f   wsock32:WSOCK32.dll
 0001:0007083c       _gethostbyname@4           1007183c f   wsock32:WSOCK32.dll
 0001:00070842       _htonl@4                   10071842 f   wsock32:WSOCK32.dll
 0001:00070848       _AcceptEx@32               10071848 f   wsock32:WSOCK32.dll
 0001:0007084e       _WSAAsyncSelect@16         1007184e f   wsock32:WSOCK32.dll
 0001:00070854       _WSAIoctl@36               10071854 f   ws2_32:WS2_32.dll
 0001:0007085a       _WSASocketA@24             1007185a f   ws2_32:WS2_32.dll
 0001:00070860       _GetAdaptersInfo@8         10071860 f   IPHlpApi:IPHLPAPI.DLL
 0001:00070866       _FormatMessageA@28         10071866 f   kernel32:KERNEL32.dll
 0001:0007086c       _LockFileEx@24             1007186c f   kernel32:KERNEL32.dll
 0001:00070872       _UnlockFileEx@20           10071872 f   kernel32:KERNEL32.dll
 0001:00070878       _GetStdHandle@4            10071878 f   kernel32:KERNEL32.dll
 0001:0007087e       _SetEndOfFile@4            1007187e f   kernel32:KERNEL32.dll
 0001:00070884       _CloseHandle@4             10071884 f   kernel32:KERNEL32.dll
 0001:0007088a       _DuplicateHandle@28        1007188a f   kernel32:KERNEL32.dll
 0001:00070890       _WaitForSingleObject@8     10071890 f   kernel32:KERNEL32.dll
 0001:00070896       _GetCurrentProcess@0       10071896 f   kernel32:KERNEL32.dll
 0001:0007089c       _GetExitCodeProcess@8      1007189c f   kernel32:KERNEL32.dll
 0001:000708a2       _CreateProcessA@40         100718a2 f   kernel32:KERNEL32.dll
 0001:000708a8       _Sleep@4                   100718a8 f   kernel32:KERNEL32.dll
 0001:000708ae       _CreateFileA@28            100718ae f   kernel32:KERNEL32.dll
 0001:000708b4       _InterlockedIncrement@4    100718b4 f   kernel32:KERNEL32.dll
 0001:000708ba       _CreateNamedPipeA@32       100718ba f   kernel32:KERNEL32.dll
 0001:000708c0       _FindClose@4               100718c0 f   kernel32:KERNEL32.dll
 0001:000708c6       _FindFirstFileA@8          100718c6 f   kernel32:KERNEL32.dll
 0001:000708cc       _FindNextFileA@8           100718cc f   kernel32:KERNEL32.dll
 0001:000708d2       _CreateDirectoryA@8        100718d2 f   kernel32:KERNEL32.dll
 0001:000708d8       _FreeLibrary@4             100718d8 f   kernel32:KERNEL32.dll
 0001:000708de       _GetProcAddress@8          100718de f   kernel32:KERNEL32.dll
 0001:000708e4       _LoadLibraryA@4            100718e4 f   kernel32:KERNEL32.dll
 0001:000708ea       _GetEnvironmentStrings@0   100718ea f   kernel32:KERNEL32.dll
 0001:000708f0       _FreeEnvironmentStringsA@4 100718f0 f   kernel32:KERNEL32.dll
 0001:000708f6       _GetEnvironmentVariableA@12 100718f6 f   kernel32:KERNEL32.dll
 0001:000708fc       _SetEnvironmentVariableA@8 100718fc f   kernel32:KERNEL32.dll
 0001:00070902       _GetModuleFileNameA@12     10071902 f   kernel32:KERNEL32.dll
 0001:00070908       _FileTimeToLocalFileTime@8 10071908 f   kernel32:KERNEL32.dll
 0001:0007090e       _FlushFileBuffers@4        1007190e f   kernel32:KERNEL32.dll
 0001:00070914       _GetFileInformationByHandle@8 10071914 f   kernel32:KERNEL32.dll
 0001:0007091a       _GetFileSize@8             1007191a f   kernel32:KERNEL32.dll
 0001:00070920       _GetFileType@4             10071920 f   kernel32:KERNEL32.dll
 0001:00070926       _ReadFile@20               10071926 f   kernel32:KERNEL32.dll
 0001:0007092c       _SetFilePointer@16         1007192c f   kernel32:KERNEL32.dll
 0001:00070932       _WriteFile@20              10071932 f   kernel32:KERNEL32.dll
 0001:00070938       _PeekNamedPipe@24          10071938 f   kernel32:KERNEL32.dll
 0001:0007093e       _FileTimeToSystemTime@8    1007193e f   kernel32:KERNEL32.dll
 0001:00070944       _QueryPerformanceCounter@4 10071944 f   kernel32:KERNEL32.dll
 0001:0007094a       _QueryPerformanceFrequency@4 1007194a f   kernel32:KERNEL32.dll
 0001:00070950       _GetSystemTimeAsFileTime@4 10071950 f   kernel32:KERNEL32.dll
 0001:00070956       _GetSystemInfo@4           10071956 f   kernel32:KERNEL32.dll
 0001:0007095c       _InterlockedExchange@8     1007195c f   kernel32:KERNEL32.dll
 0001:00070962       _InterlockedCompareExchange@12 10071962 f   kernel32:KERNEL32.dll
 0001:00070968       _GetCurrentThreadId@0      10071968 f   kernel32:KERNEL32.dll
 0001:0007096e       _GetExitCodeThread@8       1007196e f   kernel32:KERNEL32.dll
 0001:00070974       _ResumeThread@4            10071974 f   kernel32:KERNEL32.dll
 0001:0007097a       _TlsAlloc@0                1007197a f   kernel32:KERNEL32.dll
 0001:00070980       _TlsGetValue@4             10071980 f   kernel32:KERNEL32.dll
 0001:00070986       _TlsSetValue@8             10071986 f   kernel32:KERNEL32.dll
 0001:0007098c       _TlsFree@4                 1007198c f   kernel32:KERNEL32.dll
 0001:00070992       _ReleaseMutex@4            10071992 f   kernel32:KERNEL32.dll
 0001:00070998       _CreateMutexA@12           10071998 f   kernel32:KERNEL32.dll
 0001:0007099e       _ReleaseSemaphore@12       1007199e f   kernel32:KERNEL32.dll
 0001:000709a4       _CreateSemaphoreA@16       100719a4 f   kernel32:KERNEL32.dll
 0001:000709aa       _CreateIoCompletionPort@16 100719aa f   kernel32:KERNEL32.dll
 0001:000709b0       _GetQueuedCompletionStatus@20 100719b0 f   kernel32:KERNEL32.dll
 0001:000709b6       _GetModuleHandleA@4        100719b6 f   kernel32:KERNEL32.dll
 0001:000709bc       _WaitForMultipleObjects@16 100719bc f   kernel32:KERNEL32.dll
 0001:000709c2       _GetCurrentProcessId@0     100719c2 f   kernel32:KERNEL32.dll
 0001:000709c8       _CreateToolhelp32Snapshot@8 100719c8 f   kernel32:KERNEL32.dll
 0001:000709ce       _Thread32First@8           100719ce f   kernel32:KERNEL32.dll
 0001:000709d4       _Thread32Next@8            100719d4 f   kernel32:KERNEL32.dll
 0001:000709da       _DefWindowProcA@16         100719da f   user32:USER32.dll
 0001:000709e0       _UnregisterClassA@8        100719e0 f   user32:USER32.dll
 0001:000709e6       _RegisterClassExA@4        100719e6 f   user32:USER32.dll
 0001:000709ec       _GetClassInfoExA@12        100719ec f   user32:USER32.dll
 0001:000709f2       _CreateWindowExA@48        100719f2 f   user32:USER32.dll
 0001:000709f8       _DestroyWindow@4           100719f8 f   user32:USER32.dll
 0001:000709fe       _SetTimer@16               100719fe f   user32:USER32.dll
 0001:00070a04       _KillTimer@8               10071a04 f   user32:USER32.dll
 0001:00070a0a       _GetSystemMetrics@4        10071a0a f   user32:USER32.dll
 0001:00070a10       _GetWindowLongA@8          10071a10 f   user32:USER32.dll
 0001:00070a16       _SetWindowLongA@12         10071a16 f   user32:USER32.dll
 0001:00070a1c       _LoadCursorA@8             10071a1c f   user32:USER32.dll
 0001:00070a22       _LoadIconA@8               10071a22 f   user32:USER32.dll
 0001:00070a28       _LoadImageA@24             10071a28 f   user32:USER32.dll
 0001:00070a2e       _GetStockObject@4          10071a2e f   gdi32:GDI32.dll
 0001:00070a34       _strlen                    10071a34 f   MSVCRTD:MSVCR110D.dll
 0001:00070a40       @_RTC_AllocaHelper@12      10071a40 f   MSVCRTD:stack.obj
 0001:00070a80       @_RTC_CheckStackVars2@12   10071a80 f   MSVCRTD:stack.obj
 0001:00070b60       @_RTC_CheckStackVars@8     10071b60 f   MSVCRTD:stack.obj
 0001:00070bc0       __RTC_CheckEsp             10071bc0 f   MSVCRTD:stack.obj
 0001:00070bf0       __RTC_InitBase             10071bf0 f   MSVCRTD:init.obj
 0001:00070c20       __RTC_Shutdown             10071c20 f   MSVCRTD:init.obj
 0001:00070c40       ___raise_securityfailure   10071c40 f   MSVCRTD:gs_report.obj
 0001:00070c90       ___report_gsfailure        10071c90 f   MSVCRTD:gs_report.obj
 0001:00070da0       ___report_rangecheckfailure 10071da0 f   MSVCRTD:gs_report.obj
 0001:00070db0       ___report_securityfailure  10071db0 f   MSVCRTD:gs_report.obj
 0001:00070e90       ___report_securityfailureEx 10071e90 f   MSVCRTD:gs_report.obj
 0001:00070fb6       _isxdigit                  10071fb6 f   MSVCRTD:MSVCR110D.dll
 0001:00070fbc       _abort                     10071fbc f   MSVCRTD:MSVCR110D.dll
 0001:00070fe0       ___atonexitinit            10071fe0 f   MSVCRTD:atonexit.obj
 0001:00071090       __onexit                   10072090 f   MSVCRTD:atonexit.obj
 0001:00071190       _atexit                    10072190 f   MSVCRTD:atonexit.obj
 0001:000711bc       _sscanf                    100721bc f   MSVCRTD:MSVCR110D.dll
 0001:000711d0       @__security_check_cookie@4 100721d0 f   MSVCRTD:secchk.obj
 0001:000711e0       _isalnum                   100721e0 f   MSVCRTD:MSVCR110D.dll
 0001:000711e6       _strchr                    100721e6 f   MSVCRTD:MSVCR110D.dll
 0001:000711ec       _memcpy                    100721ec f   MSVCRTD:MSVCR110D.dll
 0001:000711f2       _printf                    100721f2 f   MSVCRTD:MSVCR110D.dll
 0001:000711f8       _atoi                      100721f8 f   MSVCRTD:MSVCR110D.dll
 0001:000711fe       __errno                    100721fe f   MSVCRTD:MSVCR110D.dll
 0001:00071204       _strcmp                    10072204 f   MSVCRTD:MSVCR110D.dll
 0001:00071210       _vprintf                   10072210 f   MSVCRTD:MSVCR110D.dll
 0001:00071216       _memset                    10072216 f   MSVCRTD:MSVCR110D.dll
 0001:0007121c       _strcpy                    1007221c f   MSVCRTD:MSVCR110D.dll
 0001:00071222       __strdup                   10072222 f   MSVCRTD:MSVCR110D.dll
 0001:00071228       _calloc                    10072228 f   MSVCRTD:MSVCR110D.dll
 0001:0007122e       _free                      1007222e f   MSVCRTD:MSVCR110D.dll
 0001:00071234       _malloc                    10072234 f   MSVCRTD:MSVCR110D.dll
 0001:0007123a       _realloc                   1007223a f   MSVCRTD:MSVCR110D.dll
 0001:00071240       __getpid                   10072240 f   MSVCRTD:MSVCR110D.dll
 0001:00071246       _strftime                  10072246 f   MSVCRTD:MSVCR110D.dll
 0001:0007124c       __localtime64              1007224c f   MSVCRTD:MSVCR110D.dll
 0001:00071252       __time64                   10072252 f   MSVCRTD:MSVCR110D.dll
 0001:00071260       __allmul                   10072260 f   MSVCRTD:llmul.obj
 0001:00071294       _isspace                   10072294 f   MSVCRTD:MSVCR110D.dll
 0001:0007129a       _isdigit                   1007229a f   MSVCRTD:MSVCR110D.dll
 0001:000712a0       _sprintf                   100722a0 f   MSVCRTD:MSVCR110D.dll
 0001:000712b0       __chkstk                   100722b0 f   MSVCRTD:chkstk.obj
 0001:000712b0       __alloca_probe             100722b0     MSVCRTD:chkstk.obj
 0001:000712dc       _memchr                    100722dc f   MSVCRTD:MSVCR110D.dll
 0001:000712e2       _memmove                   100722e2 f   MSVCRTD:MSVCR110D.dll
 0001:000712e8       _memcmp                    100722e8 f   MSVCRTD:MSVCR110D.dll
 0001:000712ee       ___iob_func                100722ee f   MSVCRTD:MSVCR110D.dll
 0001:000712f4       _fflush                    100722f4 f   MSVCRTD:MSVCR110D.dll
 0001:00071300       __aullshr                  10072300 f   MSVCRTD:ullshr.obj
 0001:00071320       _strerror                  10072320 f   MSVCRTD:MSVCR110D.dll
 0001:00071326       __stat64i32                10072326 f   MSVCRTD:MSVCR110D.dll
 0001:0007132c       _strcat                    1007232c f   MSVCRTD:MSVCR110D.dll
 0001:00071332       _exit                      10072332 f   MSVCRTD:MSVCR110D.dll
 0001:00071338       __stat64                   10072338 f   MSVCRTD:MSVCR110D.dll
 0001:0007133e       __unlink                   1007233e f   MSVCRTD:MSVCR110D.dll
 0001:00071344       __rmdir                    10072344 f   MSVCRTD:MSVCR110D.dll
 0001:0007134a       _strspn                    1007234a f   MSVCRTD:MSVCR110D.dll
 0001:00071350       __execl                    10072350 f   MSVCRTD:MSVCR110D.dll
 0001:00071356       __execvp                   10072356 f   MSVCRTD:MSVCR110D.dll
 0001:0007135c       __getcwd                   1007235c f   MSVCRTD:MSVCR110D.dll
 0001:00071362       _getenv                    10072362 f   MSVCRTD:MSVCR110D.dll
 0001:00071368       __mktime64                 10072368 f   MSVCRTD:MSVCR110D.dll
 0001:00071370       __allshl                   10072370 f   MSVCRTD:llshl.obj
 0001:00071390       ___daylight                10072390 f   MSVCRTD:MSVCR110D.dll
 0001:00071396       ___timezone                10072396 f   MSVCRTD:MSVCR110D.dll
 0001:0007139c       __tzset                    1007239c f   MSVCRTD:MSVCR110D.dll
 0001:000713b0       __alldiv                   100723b0 f   MSVCRTD:lldiv.obj
 0001:00071460       __allrem                   10072460 f   MSVCRTD:llrem.obj
 0001:00071512       __vsnprintf_s              10072512 f   MSVCRTD:MSVCR110D.dll
 0001:00071518       _strrchr                   10072518 f   MSVCRTD:MSVCR110D.dll
 0001:0007151e       _toupper                   1007251e f   MSVCRTD:MSVCR110D.dll
 0001:00071524       _tolower                   10072524 f   MSVCRTD:MSVCR110D.dll
 0001:0007152a       _strcspn                   1007252a f   MSVCRTD:MSVCR110D.dll
 0001:00071530       _strstr                    10072530 f   MSVCRTD:MSVCR110D.dll
 0001:00071536       __i64toa                   10072536 f   MSVCRTD:MSVCR110D.dll
 0001:0007153c       __ui64toa                  1007253c f   MSVCRTD:MSVCR110D.dll
 0001:00071542       __atoi64                   10072542 f   MSVCRTD:MSVCR110D.dll
 0001:00071550       __aulldiv                  10072550 f   MSVCRTD:ulldiv.obj
 0001:000715c0       __aullrem                  100725c0 f   MSVCRTD:ullrem.obj
 0001:00071636       _qsort                     10072636 f   MSVCRTD:MSVCR110D.dll
 0001:00071640       __ftol2_sse                10072640 f   MSVCRTD:ftol2.obj
 0001:00071649       __ftol2_pentium4           10072649 f   MSVCRTD:ftol2.obj
 0001:0007165c       __ftol2_sse_excpt          1007265c f   MSVCRTD:ftol2.obj
 0001:00071676       __ftol2                    10072676 f   MSVCRTD:ftol2.obj
 0001:000716ec       _fclose                    100726ec f   MSVCRTD:MSVCR110D.dll
 0001:000716f2       _fopen                     100726f2 f   MSVCRTD:MSVCR110D.dll
 0001:000716f8       _fprintf                   100726f8 f   MSVCRTD:MSVCR110D.dll
 0001:000716fe       __beginthreadex            100726fe f   MSVCRTD:MSVCR110D.dll
 0001:00071704       __splitpath                10072704 f   MSVCRTD:MSVCR110D.dll
 0001:00071790       _NtCurrentTeb              10072790 f i MSVCRTD:crtdll.obj
 0001:000717a0       __CRT_INIT@12              100727a0 f   MSVCRTD:crtdll.obj
 0001:00071a80       __DllMainCRTStartup@12     10072a80 f   MSVCRTD:crtdll.obj
 0001:00071dc0       ?_RTC_AllocaFailure@@YAXPAXPAU_RTC_ALLOCA_NODE@@H@Z 10072dc0 f   MSVCRTD:error.obj
 0001:00071f30       ?_RTC_Failure@@YAXPAXH@Z   10072f30 f   MSVCRTD:error.obj
 0001:00071f80       ?_RTC_StackFailure@@YAXPAXPBD@Z 10072f80 f   MSVCRTD:error.obj
 0001:000722e0       __RTC_UninitUse            100732e0 f   MSVCRTD:error.obj
 0001:000723e0       ?_RTC_GetErrorFunc@@YAP6AHHPBDH00ZZPBX@Z 100733e0 f   MSVCRTD:userapi.obj
 0001:000723f0       ?_RTC_GetErrorFuncW@@YAP6AHHPB_WH00ZZPBX@Z 100733f0 f   MSVCRTD:userapi.obj
 0001:00072400       __RTC_GetErrDesc           10073400 f   MSVCRTD:userapi.obj
 0001:00072420       __RTC_NumErrors            10073420 f   MSVCRTD:userapi.obj
 0001:00072430       __RTC_SetErrorFunc         10073430 f   MSVCRTD:userapi.obj
 0001:00072450       __RTC_SetErrorFuncW        10073450 f   MSVCRTD:userapi.obj
 0001:00072470       __RTC_SetErrorType         10073470 f   MSVCRTD:userapi.obj
 0001:00072494       __CRT_RTC_INITW            10073494 f   MSVCRTD:MSVCR110D.dll
 0001:0007249a       __crt_debugger_hook        1007349a f   MSVCRTD:MSVCR110D.dll
 0001:000724a0       ___crtUnhandledException   100734a0 f   MSVCRTD:MSVCR110D.dll
 0001:000724a6       ___crtTerminateProcess     100734a6 f   MSVCRTD:MSVCR110D.dll
 0001:000724ac       __lock                     100734ac f   MSVCRTD:MSVCR110D.dll
 0001:000724b2       __unlock                   100734b2 f   MSVCRTD:MSVCR110D.dll
 0001:000724b8       __CrtDbgReportW            100734b8 f   MSVCRTD:MSVCR110D.dll
 0001:000724be       __calloc_dbg               100734be f   MSVCRTD:MSVCR110D.dll
 0001:000724c4       ___dllonexit               100734c4 f   MSVCRTD:MSVCR110D.dll
 0001:000724d0       __except_handler4          100734d0 f   MSVCRTD:chandler4gs.obj
 0001:00072500       ___isa_available_init      10073500 f   MSVCRTD:cpu_disp.obj
 0001:000726f6       ___CppXcptFilter           100736f6 f   MSVCRTD:MSVCR110D.dll
 0001:000726fc       __amsg_exit                100736fc f   MSVCRTD:MSVCR110D.dll
 0001:00072702       __malloc_dbg               10073702 f   MSVCRTD:MSVCR110D.dll
 0001:00072708       __free_dbg                 10073708 f   MSVCRTD:MSVCR110D.dll
 0001:0007270e       __CrtSetCheckCount         1007370e f   MSVCRTD:MSVCR110D.dll
 0001:00072720       __FindPESection            10073720 f   MSVCRTD:pesect.obj
 0001:000727a0       __IsNonwritableInCurrentImage 100737a0 f   MSVCRTD:pesect.obj
 0001:000728d0       __ValidateImageBase        100738d0 f   MSVCRTD:pesect.obj
 0001:00072930       ___security_init_cookie    10073930 f   MSVCRTD:gs_support.obj
 0001:00072a10       _DllMain@12                10073a10 f   MSVCRTD:dllmain.obj
 0001:00072a40       __RTC_Initialize           10073a40 f   MSVCRTD:initsect.obj
 0001:00072a70       __RTC_Terminate            10073a70 f   MSVCRTD:initsect.obj
 0001:00072a96       __initterm                 10073a96 f   MSVCRTD:MSVCR110D.dll
 0001:00072a9c       __initterm_e               10073a9c f   MSVCRTD:MSVCR110D.dll
 0001:00072ab0       ___clean_type_info_names   10073ab0 f   MSVCRTD:tncleanup.obj
 0001:00072f00       ?_RTC_GetSrcLine@@YAHPAEPA_WKPAH1K@Z 10073f00 f   MSVCRTD:pdblkup.obj
 0001:000731ae       __except_handler4_common   100741ae f   MSVCRTD:MSVCR110D.dll
 0001:000731b4       ___clean_type_info_names_internal 100741b4 f   MSVCRTD:MSVCR110D.dll
 0001:000731ba       _wcscpy_s                  100741ba f   MSVCRTD:MSVCR110D.dll
 0001:000731c0       __wmakepath_s              100741c0 f   MSVCRTD:MSVCR110D.dll
 0001:000731c6       __wsplitpath_s             100741c6 f   MSVCRTD:MSVCR110D.dll
 0001:000731cc       _IsDebuggerPresent@0       100741cc f   kernel32:KERNEL32.dll
 0001:000731d2       _IsProcessorFeaturePresent@4 100741d2 f   kernel32:KERNEL32.dll
 0001:000731d8       _EncodePointer@4           100741d8 f   kernel32:KERNEL32.dll
 0001:000731de       _DecodePointer@4           100741de f   kernel32:KERNEL32.dll
 0001:000731e4       _RaiseException@16         100741e4 f   kernel32:KERNEL32.dll
 0001:000731ea       _GetLastError@0            100741ea f   kernel32:KERNEL32.dll
 0001:000731f0       _LoadLibraryExW@12         100741f0 f   kernel32:KERNEL32.dll
 0001:000731f6       _lstrlenA@4                100741f6 f   kernel32:KERNEL32.dll
 0001:000731fc       _LoadLibraryW@4            100741fc f   kernel32:KERNEL32.dll
 0001:00073202       _MultiByteToWideChar@24    10074202 f   kernel32:KERNEL32.dll
 0001:00073208       _WideCharToMultiByte@32    10074208 f   kernel32:KERNEL32.dll
 0001:0007320e       _GetTickCount64@0          1007420e f   kernel32:KERNEL32.dll
 0001:00073214       _DisableThreadLibraryCalls@4 10074214 f   kernel32:KERNEL32.dll
 0001:0007321a       _HeapAlloc@12              1007421a f   kernel32:KERNEL32.dll
 0001:00073220       _HeapFree@12               10074220 f   kernel32:KERNEL32.dll
 0001:00073226       _GetProcessHeap@0          10074226 f   kernel32:KERNEL32.dll
 0001:0007322c       _VirtualQuery@12           1007422c f   kernel32:KERNEL32.dll
 0001:00073232       _GetModuleFileNameW@12     10074232 f   kernel32:KERNEL32.dll
 0001:00073238       _GetModuleHandleW@4        10074238 f   kernel32:KERNEL32.dll
 0002:00000000       __imp__GetStockObject@4    10075000     gdi32:GDI32.dll
 0002:00000004       \177GDI32_NULL_THUNK_DATA  10075004     gdi32:GDI32.dll
 0002:00000008       __imp__GetAdaptersInfo@8   10075008     IPHlpApi:IPHLPAPI.DLL
 0002:0000000c       \177IPHLPAPI_NULL_THUNK_DATA 1007500c     IPHlpApi:IPHLPAPI.DLL
 0002:00000010       __imp__HeapFree@12         10075010     kernel32:KERNEL32.dll
 0002:00000014       __imp__HeapAlloc@12        10075014     kernel32:KERNEL32.dll
 0002:00000018       __imp__DisableThreadLibraryCalls@4 10075018     kernel32:KERNEL32.dll
 0002:0000001c       __imp__GetTickCount64@0    1007501c     kernel32:KERNEL32.dll
 0002:00000020       __imp__WideCharToMultiByte@32 10075020     kernel32:KERNEL32.dll
 0002:00000024       __imp__MultiByteToWideChar@24 10075024     kernel32:KERNEL32.dll
 0002:00000028       __imp__LoadLibraryW@4      10075028     kernel32:KERNEL32.dll
 0002:0000002c       __imp__lstrlenA@4          1007502c     kernel32:KERNEL32.dll
 0002:00000030       __imp__LoadLibraryExW@12   10075030     kernel32:KERNEL32.dll
 0002:00000034       __imp__GetLastError@0      10075034     kernel32:KERNEL32.dll
 0002:00000038       __imp__RaiseException@16   10075038     kernel32:KERNEL32.dll
 0002:0000003c       __imp__DecodePointer@4     1007503c     kernel32:KERNEL32.dll
 0002:00000040       __imp__EncodePointer@4     10075040     kernel32:KERNEL32.dll
 0002:00000044       __imp__GetProcessHeap@0    10075044     kernel32:KERNEL32.dll
 0002:00000048       __imp__IsDebuggerPresent@0 10075048     kernel32:KERNEL32.dll
 0002:0000004c       __imp__VirtualQuery@12     1007504c     kernel32:KERNEL32.dll
 0002:00000050       __imp__GetModuleFileNameW@12 10075050     kernel32:KERNEL32.dll
 0002:00000054       __imp__Thread32Next@8      10075054     kernel32:KERNEL32.dll
 0002:00000058       __imp__Thread32First@8     10075058     kernel32:KERNEL32.dll
 0002:0000005c       __imp__CreateToolhelp32Snapshot@8 1007505c     kernel32:KERNEL32.dll
 0002:00000060       __imp__GetCurrentProcessId@0 10075060     kernel32:KERNEL32.dll
 0002:00000064       __imp__WaitForMultipleObjects@16 10075064     kernel32:KERNEL32.dll
 0002:00000068       __imp__GetModuleHandleA@4  10075068     kernel32:KERNEL32.dll
 0002:0000006c       __imp__GetQueuedCompletionStatus@20 1007506c     kernel32:KERNEL32.dll
 0002:00000070       __imp__CreateIoCompletionPort@16 10075070     kernel32:KERNEL32.dll
 0002:00000074       __imp__CreateSemaphoreA@16 10075074     kernel32:KERNEL32.dll
 0002:00000078       __imp__ReleaseSemaphore@12 10075078     kernel32:KERNEL32.dll
 0002:0000007c       __imp__CreateMutexA@12     1007507c     kernel32:KERNEL32.dll
 0002:00000080       __imp__IsProcessorFeaturePresent@4 10075080     kernel32:KERNEL32.dll
 0002:00000084       __imp__GetModuleHandleW@4  10075084     kernel32:KERNEL32.dll
 0002:00000088       __imp__FormatMessageA@28   10075088     kernel32:KERNEL32.dll
 0002:0000008c       __imp__LockFileEx@24       1007508c     kernel32:KERNEL32.dll
 0002:00000090       __imp__UnlockFileEx@20     10075090     kernel32:KERNEL32.dll
 0002:00000094       __imp__GetStdHandle@4      10075094     kernel32:KERNEL32.dll
 0002:00000098       __imp__SetEndOfFile@4      10075098     kernel32:KERNEL32.dll
 0002:0000009c       __imp__CloseHandle@4       1007509c     kernel32:KERNEL32.dll
 0002:000000a0       __imp__DuplicateHandle@28  100750a0     kernel32:KERNEL32.dll
 0002:000000a4       __imp__WaitForSingleObject@8 100750a4     kernel32:KERNEL32.dll
 0002:000000a8       __imp__GetCurrentProcess@0 100750a8     kernel32:KERNEL32.dll
 0002:000000ac       __imp__GetExitCodeProcess@8 100750ac     kernel32:KERNEL32.dll
 0002:000000b0       __imp__CreateProcessA@40   100750b0     kernel32:KERNEL32.dll
 0002:000000b4       __imp__Sleep@4             100750b4     kernel32:KERNEL32.dll
 0002:000000b8       __imp__CreateFileA@28      100750b8     kernel32:KERNEL32.dll
 0002:000000bc       __imp__InterlockedIncrement@4 100750bc     kernel32:KERNEL32.dll
 0002:000000c0       __imp__CreateNamedPipeA@32 100750c0     kernel32:KERNEL32.dll
 0002:000000c4       __imp__FindClose@4         100750c4     kernel32:KERNEL32.dll
 0002:000000c8       __imp__FindFirstFileA@8    100750c8     kernel32:KERNEL32.dll
 0002:000000cc       __imp__FindNextFileA@8     100750cc     kernel32:KERNEL32.dll
 0002:000000d0       __imp__CreateDirectoryA@8  100750d0     kernel32:KERNEL32.dll
 0002:000000d4       __imp__FreeLibrary@4       100750d4     kernel32:KERNEL32.dll
 0002:000000d8       __imp__GetProcAddress@8    100750d8     kernel32:KERNEL32.dll
 0002:000000dc       __imp__LoadLibraryA@4      100750dc     kernel32:KERNEL32.dll
 0002:000000e0       __imp__GetEnvironmentStrings@0 100750e0     kernel32:KERNEL32.dll
 0002:000000e4       __imp__FreeEnvironmentStringsA@4 100750e4     kernel32:KERNEL32.dll
 0002:000000e8       __imp__GetEnvironmentVariableA@12 100750e8     kernel32:KERNEL32.dll
 0002:000000ec       __imp__SetEnvironmentVariableA@8 100750ec     kernel32:KERNEL32.dll
 0002:000000f0       __imp__GetModuleFileNameA@12 100750f0     kernel32:KERNEL32.dll
 0002:000000f4       __imp__FileTimeToLocalFileTime@8 100750f4     kernel32:KERNEL32.dll
 0002:000000f8       __imp__FlushFileBuffers@4  100750f8     kernel32:KERNEL32.dll
 0002:000000fc       __imp__GetFileInformationByHandle@8 100750fc     kernel32:KERNEL32.dll
 0002:00000100       __imp__GetFileSize@8       10075100     kernel32:KERNEL32.dll
 0002:00000104       __imp__GetFileType@4       10075104     kernel32:KERNEL32.dll
 0002:00000108       __imp__ReadFile@20         10075108     kernel32:KERNEL32.dll
 0002:0000010c       __imp__SetFilePointer@16   1007510c     kernel32:KERNEL32.dll
 0002:00000110       __imp__WriteFile@20        10075110     kernel32:KERNEL32.dll
 0002:00000114       __imp__PeekNamedPipe@24    10075114     kernel32:KERNEL32.dll
 0002:00000118       __imp__FileTimeToSystemTime@8 10075118     kernel32:KERNEL32.dll
 0002:0000011c       __imp__QueryPerformanceCounter@4 1007511c     kernel32:KERNEL32.dll
 0002:00000120       __imp__QueryPerformanceFrequency@4 10075120     kernel32:KERNEL32.dll
 0002:00000124       __imp__GetSystemTimeAsFileTime@4 10075124     kernel32:KERNEL32.dll
 0002:00000128       __imp__GetSystemInfo@4     10075128     kernel32:KERNEL32.dll
 0002:0000012c       __imp__InterlockedExchange@8 1007512c     kernel32:KERNEL32.dll
 0002:00000130       __imp__InterlockedCompareExchange@12 10075130     kernel32:KERNEL32.dll
 0002:00000134       __imp__GetCurrentThreadId@0 10075134     kernel32:KERNEL32.dll
 0002:00000138       __imp__GetExitCodeThread@8 10075138     kernel32:KERNEL32.dll
 0002:0000013c       __imp__ResumeThread@4      1007513c     kernel32:KERNEL32.dll
 0002:00000140       __imp__TlsAlloc@0          10075140     kernel32:KERNEL32.dll
 0002:00000144       __imp__TlsGetValue@4       10075144     kernel32:KERNEL32.dll
 0002:00000148       __imp__TlsSetValue@8       10075148     kernel32:KERNEL32.dll
 0002:0000014c       __imp__TlsFree@4           1007514c     kernel32:KERNEL32.dll
 0002:00000150       __imp__ReleaseMutex@4      10075150     kernel32:KERNEL32.dll
 0002:00000154       \177KERNEL32_NULL_THUNK_DATA 10075154     kernel32:KERNEL32.dll
 0002:00000158       __imp___onexit             10075158     MSVCRTD:MSVCR110D.dll
 0002:0000015c       __imp____CppXcptFilter     1007515c     MSVCRTD:MSVCR110D.dll
 0002:00000160       __imp___amsg_exit          10075160     MSVCRTD:MSVCR110D.dll
 0002:00000164       __imp___malloc_dbg         10075164     MSVCRTD:MSVCR110D.dll
 0002:00000168       __imp___free_dbg           10075168     MSVCRTD:MSVCR110D.dll
 0002:0000016c       __imp___CrtSetCheckCount   1007516c     MSVCRTD:MSVCR110D.dll
 0002:00000170       __imp___initterm           10075170     MSVCRTD:MSVCR110D.dll
 0002:00000174       __imp___initterm_e         10075174     MSVCRTD:MSVCR110D.dll
 0002:00000178       __imp___except_handler4_common 10075178     MSVCRTD:MSVCR110D.dll
 0002:0000017c       __imp____clean_type_info_names_internal 1007517c     MSVCRTD:MSVCR110D.dll
 0002:00000180       __imp__wcscpy_s            10075180     MSVCRTD:MSVCR110D.dll
 0002:00000184       __imp___calloc_dbg         10075184     MSVCRTD:MSVCR110D.dll
 0002:00000188       __imp___CrtDbgReportW      10075188     MSVCRTD:MSVCR110D.dll
 0002:0000018c       __imp___unlock             1007518c     MSVCRTD:MSVCR110D.dll
 0002:00000190       __imp___lock               10075190     MSVCRTD:MSVCR110D.dll
 0002:00000194       __imp____crtTerminateProcess 10075194     MSVCRTD:MSVCR110D.dll
 0002:00000198       __imp____crtUnhandledException 10075198     MSVCRTD:MSVCR110D.dll
 0002:0000019c       __imp___crt_debugger_hook  1007519c     MSVCRTD:MSVCR110D.dll
 0002:000001a0       __imp___CRT_RTC_INITW      100751a0     MSVCRTD:MSVCR110D.dll
 0002:000001a4       __imp___splitpath          100751a4     MSVCRTD:MSVCR110D.dll
 0002:000001a8       __imp___beginthreadex      100751a8     MSVCRTD:MSVCR110D.dll
 0002:000001ac       __imp__fprintf             100751ac     MSVCRTD:MSVCR110D.dll
 0002:000001b0       __imp__fopen               100751b0     MSVCRTD:MSVCR110D.dll
 0002:000001b4       __imp__fclose              100751b4     MSVCRTD:MSVCR110D.dll
 0002:000001b8       __imp__qsort               100751b8     MSVCRTD:MSVCR110D.dll
 0002:000001bc       __imp___atoi64             100751bc     MSVCRTD:MSVCR110D.dll
 0002:000001c0       __imp___wmakepath_s        100751c0     MSVCRTD:MSVCR110D.dll
 0002:000001c4       __imp___wsplitpath_s       100751c4     MSVCRTD:MSVCR110D.dll
 0002:000001c8       __imp__strlen              100751c8     MSVCRTD:MSVCR110D.dll
 0002:000001cc       __imp__isxdigit            100751cc     MSVCRTD:MSVCR110D.dll
 0002:000001d0       __imp__abort               100751d0     MSVCRTD:MSVCR110D.dll
 0002:000001d4       __imp__sscanf              100751d4     MSVCRTD:MSVCR110D.dll
 0002:000001d8       __imp__isalnum             100751d8     MSVCRTD:MSVCR110D.dll
 0002:000001dc       __imp__strchr              100751dc     MSVCRTD:MSVCR110D.dll
 0002:000001e0       __imp__memcpy              100751e0     MSVCRTD:MSVCR110D.dll
 0002:000001e4       __imp__printf              100751e4     MSVCRTD:MSVCR110D.dll
 0002:000001e8       __imp__atoi                100751e8     MSVCRTD:MSVCR110D.dll
 0002:000001ec       __imp___errno              100751ec     MSVCRTD:MSVCR110D.dll
 0002:000001f0       __imp__strcmp              100751f0     MSVCRTD:MSVCR110D.dll
 0002:000001f4       __imp__vprintf             100751f4     MSVCRTD:MSVCR110D.dll
 0002:000001f8       __imp__memset              100751f8     MSVCRTD:MSVCR110D.dll
 0002:000001fc       __imp__strcpy              100751fc     MSVCRTD:MSVCR110D.dll
 0002:00000200       __imp___strdup             10075200     MSVCRTD:MSVCR110D.dll
 0002:00000204       __imp__calloc              10075204     MSVCRTD:MSVCR110D.dll
 0002:00000208       __imp__free                10075208     MSVCRTD:MSVCR110D.dll
 0002:0000020c       __imp__malloc              1007520c     MSVCRTD:MSVCR110D.dll
 0002:00000210       __imp__realloc             10075210     MSVCRTD:MSVCR110D.dll
 0002:00000214       __imp___getpid             10075214     MSVCRTD:MSVCR110D.dll
 0002:00000218       __imp__strftime            10075218     MSVCRTD:MSVCR110D.dll
 0002:0000021c       __imp___localtime64        1007521c     MSVCRTD:MSVCR110D.dll
 0002:00000220       __imp___time64             10075220     MSVCRTD:MSVCR110D.dll
 0002:00000224       __imp__isspace             10075224     MSVCRTD:MSVCR110D.dll
 0002:00000228       __imp__isdigit             10075228     MSVCRTD:MSVCR110D.dll
 0002:0000022c       __imp__sprintf             1007522c     MSVCRTD:MSVCR110D.dll
 0002:00000230       __imp__memchr              10075230     MSVCRTD:MSVCR110D.dll
 0002:00000234       __imp__memmove             10075234     MSVCRTD:MSVCR110D.dll
 0002:00000238       __imp__memcmp              10075238     MSVCRTD:MSVCR110D.dll
 0002:0000023c       __imp____iob_func          1007523c     MSVCRTD:MSVCR110D.dll
 0002:00000240       __imp__fflush              10075240     MSVCRTD:MSVCR110D.dll
 0002:00000244       __imp__strerror            10075244     MSVCRTD:MSVCR110D.dll
 0002:00000248       __imp___stat64i32          10075248     MSVCRTD:MSVCR110D.dll
 0002:0000024c       __imp__strcat              1007524c     MSVCRTD:MSVCR110D.dll
 0002:00000250       __imp__exit                10075250     MSVCRTD:MSVCR110D.dll
 0002:00000254       __imp___stat64             10075254     MSVCRTD:MSVCR110D.dll
 0002:00000258       __imp___unlink             10075258     MSVCRTD:MSVCR110D.dll
 0002:0000025c       __imp___rmdir              1007525c     MSVCRTD:MSVCR110D.dll
 0002:00000260       __imp___environ            10075260     MSVCRTD:MSVCR110D.dll
 0002:00000264       __imp__strspn              10075264     MSVCRTD:MSVCR110D.dll
 0002:00000268       __imp___execl              10075268     MSVCRTD:MSVCR110D.dll
 0002:0000026c       __imp___execvp             1007526c     MSVCRTD:MSVCR110D.dll
 0002:00000270       __imp___getcwd             10075270     MSVCRTD:MSVCR110D.dll
 0002:00000274       __imp__getenv              10075274     MSVCRTD:MSVCR110D.dll
 0002:00000278       __imp___mktime64           10075278     MSVCRTD:MSVCR110D.dll
 0002:0000027c       __imp____daylight          1007527c     MSVCRTD:MSVCR110D.dll
 0002:00000280       __imp____timezone          10075280     MSVCRTD:MSVCR110D.dll
 0002:00000284       __imp___tzset              10075284     MSVCRTD:MSVCR110D.dll
 0002:00000288       __imp___vsnprintf_s        10075288     MSVCRTD:MSVCR110D.dll
 0002:0000028c       __imp__strrchr             1007528c     MSVCRTD:MSVCR110D.dll
 0002:00000290       __imp__toupper             10075290     MSVCRTD:MSVCR110D.dll
 0002:00000294       __imp__tolower             10075294     MSVCRTD:MSVCR110D.dll
 0002:00000298       __imp__strcspn             10075298     MSVCRTD:MSVCR110D.dll
 0002:0000029c       __imp__strstr              1007529c     MSVCRTD:MSVCR110D.dll
 0002:000002a0       __imp___i64toa             100752a0     MSVCRTD:MSVCR110D.dll
 0002:000002a4       __imp___ui64toa            100752a4     MSVCRTD:MSVCR110D.dll
 0002:000002a8       __imp____dllonexit         100752a8     MSVCRTD:MSVCR110D.dll
 0002:000002ac       \177MSVCR110D_NULL_THUNK_DATA 100752ac     MSVCRTD:MSVCR110D.dll
 0002:000002b0       __imp__LoadImageA@24       100752b0     user32:USER32.dll
 0002:000002b4       __imp__LoadIconA@8         100752b4     user32:USER32.dll
 0002:000002b8       __imp__LoadCursorA@8       100752b8     user32:USER32.dll
 0002:000002bc       __imp__SetWindowLongA@12   100752bc     user32:USER32.dll
 0002:000002c0       __imp__GetWindowLongA@8    100752c0     user32:USER32.dll
 0002:000002c4       __imp__GetSystemMetrics@4  100752c4     user32:USER32.dll
 0002:000002c8       __imp__KillTimer@8         100752c8     user32:USER32.dll
 0002:000002cc       __imp__SetTimer@16         100752cc     user32:USER32.dll
 0002:000002d0       __imp__DestroyWindow@4     100752d0     user32:USER32.dll
 0002:000002d4       __imp__CreateWindowExA@48  100752d4     user32:USER32.dll
 0002:000002d8       __imp__GetClassInfoExA@12  100752d8     user32:USER32.dll
 0002:000002dc       __imp__RegisterClassExA@4  100752dc     user32:USER32.dll
 0002:000002e0       __imp__UnregisterClassA@8  100752e0     user32:USER32.dll
 0002:000002e4       __imp__DefWindowProcA@16   100752e4     user32:USER32.dll
 0002:000002e8       \177USER32_NULL_THUNK_DATA 100752e8     user32:USER32.dll
 0002:000002ec       __imp__WSASocketA@24       100752ec     ws2_32:WS2_32.dll
 0002:000002f0       __imp__WSAIoctl@36         100752f0     ws2_32:WS2_32.dll
 0002:000002f4       \177WS2_32_NULL_THUNK_DATA 100752f4     ws2_32:WS2_32.dll
 0002:000002f8       __imp__WSAAsyncSelect@16   100752f8     wsock32:WSOCK32.dll
 0002:000002fc       __imp__AcceptEx@32         100752fc     wsock32:WSOCK32.dll
 0002:00000300       __imp__htonl@4             10075300     wsock32:WSOCK32.dll
 0002:00000304       __imp__gethostbyname@4     10075304     wsock32:WSOCK32.dll
 0002:00000308       __imp__connect@12          10075308     wsock32:WSOCK32.dll
 0002:0000030c       __imp__accept@12           1007530c     wsock32:WSOCK32.dll
 0002:00000310       __imp__listen@8            10075310     wsock32:WSOCK32.dll
 0002:00000314       __imp__bind@12             10075314     wsock32:WSOCK32.dll
 0002:00000318       __imp__setsockopt@20       10075318     wsock32:WSOCK32.dll
 0002:0000031c       __imp__getsockopt@20       1007531c     wsock32:WSOCK32.dll
 0002:00000320       __imp__ntohs@4             10075320     wsock32:WSOCK32.dll
 0002:00000324       __imp__getsockname@12      10075324     wsock32:WSOCK32.dll
 0002:00000328       __imp__getpeername@12      10075328     wsock32:WSOCK32.dll
 0002:0000032c       __imp__WSACleanup@0        1007532c     wsock32:WSOCK32.dll
 0002:00000330       __imp__WSAStartup@8        10075330     wsock32:WSOCK32.dll
 0002:00000334       __imp__send@16             10075334     wsock32:WSOCK32.dll
 0002:00000338       __imp__recv@16             10075338     wsock32:WSOCK32.dll
 0002:0000033c       __imp__closesocket@4       1007533c     wsock32:WSOCK32.dll
 0002:00000340       __imp__ntohl@4             10075340     wsock32:WSOCK32.dll
 0002:00000344       __imp____WSAFDIsSet@8      10075344     wsock32:WSOCK32.dll
 0002:00000348       __imp__select@20           10075348     wsock32:WSOCK32.dll
 0002:0000034c       __imp__ioctlsocket@12      1007534c     wsock32:WSOCK32.dll
 0002:00000350       __imp__socket@12           10075350     wsock32:WSOCK32.dll
 0002:00000354       __imp__sendto@24           10075354     wsock32:WSOCK32.dll
 0002:00000358       __imp__recvfrom@24         10075358     wsock32:WSOCK32.dll
 0002:0000035c       __imp__inet_addr@4         1007535c     wsock32:WSOCK32.dll
 0002:00000360       __imp__htons@4             10075360     wsock32:WSOCK32.dll
 0002:00000364       __imp__WSAGetLastError@0   10075364     wsock32:WSOCK32.dll
 0002:00000368       __imp__WSASetLastError@4   10075368     wsock32:WSOCK32.dll
 0002:0000036c       \177WSOCK32_NULL_THUNK_DATA 1007536c     wsock32:WSOCK32.dll
 0002:00000370       ___xc_a                    10075370     MSVCRTD:cinitexe.obj
 0002:00000374       ___xc_z                    10075374     MSVCRTD:cinitexe.obj
 0002:00000378       ___xi_a                    10075378     MSVCRTD:cinitexe.obj
 0002:00000388       ___xi_z                    10075388     MSVCRTD:cinitexe.obj
 0002:000412a8       __real@408f400000000000    100b62a8     acl_meter_time.obj
 0002:000416e0       __real@4130000000000000    100b66e0     squid_allocator.obj
 0002:000416f0       __xmm@41f00000000000000000000000000000 100b66f0     squid_allocator.obj
 0002:00041700       __real@412e848000000000    100b6700     squid_allocator_tools.obj
 0002:00041708       __real@41cdcd6500000000    100b6708     squid_allocator_tools.obj
 0002:00041710       __real@41d0000000000000    100b6710     squid_allocator_tools.obj
 0002:00041718       __real@426d1a94a2000000    100b6718     squid_allocator_tools.obj
 0002:00041848       ??_C@_1LK@BJHNKBFO@?$AA?$CI?$AA_?$AA_?$AAo?$AAn?$AAe?$AAx?$AAi?$AAt?$AAe?$AAn?$AAd?$AA?5?$AA?$CB?$AA?$DN?$AA?5?$AAN?$AAU?$AAL?$AAL?$AA?5?$AA?$CG?$AA?$CG?$AA?5?$AA_?$AA_?$AAo?$AAn?$AAe?$AAx?$AAi?$AAt@ 100b6848     MSVCRTD:atonexit.obj
 0002:00041904       ??_C@_15GANGMFKL@?$AA?$CF?$AAs?$AA?$AA@ 100b6904     MSVCRTD:atonexit.obj
 0002:00041910       ??_C@_1GE@KOKOIPKN@?$AAf?$AA?3?$AA?2?$AAd?$AAd?$AA?2?$AAv?$AAc?$AAt?$AAo?$AAo?$AAl?$AAs?$AA?2?$AAc?$AAr?$AAt?$AA_?$AAb?$AAl?$AAd?$AA?2?$AAs?$AAe?$AAl?$AAf?$AA_?$AAx?$AA8?$AA6?$AA?2?$AAc@ 100b6910     MSVCRTD:atonexit.obj
 0002:00041974       ??_C@_0DC@KIAPAJCJ@f?3?2dd?2vctools?2crt_bld?2self_x86?2c@ 100b6974     MSVCRTD:atonexit.obj
 0002:000419a8       __pDefaultRawDllMain       100b69a8     MSVCRTD:crtdll.obj
 0002:000419a8       __pRawDllMain              100b69a8     MSVCRTD:crtdll.obj
 0002:000419ac       ??_C@_0DA@FJPPCPEH@f?3?2dd?2vctools?2crt_bld?2self_x86?2c@ 100b69ac     MSVCRTD:crtdll.obj
 0002:00041a78       ??_C@_0NN@NGPKDKPD@The?5value?5of?5ESP?5was?5not?5properl@ 100b6a78     MSVCRTD:error.obj
 0002:00041b58       ??_C@_0BBN@GPMLNJCF@A?5cast?5to?5a?5smaller?5data?5type?5ha@ 100b6b58     MSVCRTD:error.obj
 0002:00041c78       ??_C@_0BN@FFOINMNJ@Stack?5memory?5was?5corrupted?6?$AN?$AA@ 100b6c78     MSVCRTD:error.obj
 0002:00041c98       ??_C@_0DG@HKJMLLLP@A?5local?5variable?5was?5used?5before@ 100b6c98     MSVCRTD:error.obj
 0002:00041cd0       ??_C@_0CM@NGINOKPC@Stack?5memory?5around?5_alloca?5was?5@ 100b6cd0     MSVCRTD:error.obj
 0002:00041cfc       ??_C@_0BO@GNIAFIKK@Unknown?5Runtime?5Check?5Error?6?$AN?$AA@ 100b6cfc     MSVCRTD:error.obj
 0002:00041d20       ??_C@_1GM@OLMCBDMB@?$AAR?$AAu?$AAn?$AAt?$AAi?$AAm?$AAe?$AA?5?$AAC?$AAh?$AAe?$AAc?$AAk?$AA?5?$AAE?$AAr?$AAr?$AAo?$AAr?$AA?4?$AA?6?$AA?$AN?$AA?5?$AAU?$AAn?$AAa?$AAb?$AAl?$AAe?$AA?5?$AAt?$AAo@ 100b6d20     MSVCRTD:error.obj
 0002:00041d90       ??_C@_1EA@NFKNIFJP@?$AAR?$AAu?$AAn?$AA?9?$AAT?$AAi?$AAm?$AAe?$AA?5?$AAC?$AAh?$AAe?$AAc?$AAk?$AA?5?$AAF?$AAa?$AAi?$AAl?$AAu?$AAr?$AAe?$AA?5?$AA?$CD?$AA?$CF?$AAd?$AA?5?$AA?9?$AA?5?$AA?$CF?$AAs?$AA?$AA@ 100b6d90     MSVCRTD:error.obj
 0002:00041dd0       ??_C@_0BB@PFFGGCJP@Unknown?5Filename?$AA@ 100b6dd0     MSVCRTD:error.obj
 0002:00041de4       ??_C@_0BE@GNBOBNCK@Unknown?5Module?5Name?$AA@ 100b6de4     MSVCRTD:error.obj
 0002:00041df8       ??_C@_0CA@IODNCDPG@Run?9Time?5Check?5Failure?5?$CD?$CFd?5?9?5?$CFs?$AA@ 100b6df8     MSVCRTD:error.obj
 0002:00041e18       ??_C@_0CG@IAFNJNEE@Stack?5corrupted?5near?5unknown?5var@ 100b6e18     MSVCRTD:error.obj
 0002:00041e40       ??_C@_05MKKEDADM@?$CF?42X?5?$AA@ 100b6e40     MSVCRTD:error.obj
 0002:00041e48       ??_C@_1BG@OILDLIOJ@?$AAu?$AAs?$AAe?$AAr?$AA3?$AA2?$AA?4?$AAd?$AAl?$AAl?$AA?$AA@ 100b6e48     MSVCRTD:error.obj
 0002:00041e60       ??_C@_09FOPFMPEJ@wsprintfA?$AA@ 100b6e60     MSVCRTD:error.obj
 0002:00041e70       ??_C@_0EJ@LJKNEOLN@Stack?5area?5around?5_alloca?5memory@ 100b6e70     MSVCRTD:error.obj
 0002:00041ebc       ??_C@_08OMAHNMHJ@?6Data?3?5?$DM?$AA@ 100b6ebc     MSVCRTD:error.obj
 0002:00041ec8       ??_C@_0CK@DKGBICFE@?6Allocation?5number?5within?5this?5f@ 100b6ec8     MSVCRTD:error.obj
 0002:00041ef4       ??_C@_07DFDJCKFN@?6Size?3?5?$AA@ 100b6ef4     MSVCRTD:error.obj
 0002:00041efc       ??_C@_0N@MHFFIMFG@?6Address?3?50x?$AA@ 100b6efc     MSVCRTD:error.obj
 0002:00041f10       ??_C@_0EI@CLEPFNGI@Stack?5area?5around?5_alloca?5memory@ 100b6f10     MSVCRTD:error.obj
 0002:00041f58       ??_C@_0BC@KIBAILCI@?$CFs?$CFs?$CFp?$CFs?$CFld?$CFs?$CFd?$CFs?$AA@ 100b6f58     MSVCRTD:error.obj
 0002:00041f6c       ??_C@_01EEMJAFIK@?6?$AA@   100b6f6c     MSVCRTD:error.obj
 0002:00041f70       ??_C@_02LLMPMKNF@?$DO?5?$AA@ 100b6f70     MSVCRTD:error.obj
 0002:00041f74       ??_C@_08KJEDNCKC@?$CFs?$CFs?$CFs?$CFs?$AA@ 100b6f74     MSVCRTD:error.obj
 0002:00041f80       ??_C@_0DE@OHJBPMBP@A?5variable?5is?5being?5used?5without@ 100b6f80     MSVCRTD:error.obj
 0002:00041fc8       ??_C@_0BJ@HEGAHDFO@Stack?5pointer?5corruption?$AA@ 100b6fc8     MSVCRTD:userapi.obj
 0002:00041fe4       ??_C@_0CK@FEGOIOPB@Cast?5to?5smaller?5type?5causing?5los@ 100b6fe4     MSVCRTD:userapi.obj
 0002:00042010       ??_C@_0BI@CIGMDCBH@Stack?5memory?5corruption?$AA@ 100b7010     MSVCRTD:userapi.obj
 0002:00042028       ??_C@_0CK@CNLNOEPB@Local?5variable?5used?5before?5initi@ 100b7028     MSVCRTD:userapi.obj
 0002:00042054       ??_C@_0BP@OGBCLIBO@Stack?5around?5_alloca?5corrupted?$AA@ 100b7054     MSVCRTD:userapi.obj
 0002:00042074       ?ProcessDetach@NativeDll@<CrtImplementationDetails>@@0IB 100b7074     MSVCRTD:initsect.obj
 0002:00042078       ?ProcessAttach@NativeDll@<CrtImplementationDetails>@@0IB 100b7078     MSVCRTD:initsect.obj
 0002:0004207c       ?ThreadAttach@NativeDll@<CrtImplementationDetails>@@0IB 100b707c     MSVCRTD:initsect.obj
 0002:00042080       ?ThreadDetach@NativeDll@<CrtImplementationDetails>@@0IB 100b7080     MSVCRTD:initsect.obj
 0002:00042084       ?ProcessVerifier@NativeDll@<CrtImplementationDetails>@@0IB 100b7084     MSVCRTD:initsect.obj
 0002:00042088       ?value@?$_Sizeof@U_Nil@std@@U12@U12@U12@U12@U12@U12@U12@@std@@2IB 100b7088     MSVCRTD:tncleanup.obj
 0002:0004208c       ?value@?$integral_constant@_N$0A@@std@@2_NB 100b708c     MSVCRTD:tncleanup.obj
 0002:0004208d       ?value@?$integral_constant@_N$00@std@@2_NB 100b708d     MSVCRTD:tncleanup.obj
 0002:00042090       ?LocalIdBitWidth@CrossScopeId@CodeViewInfo@@2IB 100b7090     MSVCRTD:pdblkup.obj
 0002:00042094       ?IdScopeBitWidth@CrossScopeId@CodeViewInfo@@2IB 100b7094     MSVCRTD:pdblkup.obj
 0002:00042098       ?StartCrossScopeId@CrossScopeId@CodeViewInfo@@2IB 100b7098     MSVCRTD:pdblkup.obj
 0002:0004209c       ?LocalIdMask@CrossScopeId@CodeViewInfo@@2IB 100b709c     MSVCRTD:pdblkup.obj
 0002:000420a0       ?ScopeIdMask@CrossScopeId@CodeViewInfo@@2IB 100b70a0     MSVCRTD:pdblkup.obj
 0002:000420a4       ?MaxLocalId@CrossScopeId@CodeViewInfo@@2IB 100b70a4     MSVCRTD:pdblkup.obj
 0002:000420a8       ?MaxScopeId@CrossScopeId@CodeViewInfo@@2IB 100b70a8     MSVCRTD:pdblkup.obj
 0002:000420e4       ??_C@_1BK@GAEMIDIL@?$AAA?$AAD?$AAV?$AAA?$AAP?$AAI?$AA3?$AA2?$AA?4?$AAD?$AAL?$AAL?$AA?$AA@ 100b70e4     MSVCRTD:pdblkup.obj
 0002:00042100       ??_C@_0O@COHOBMLB@RegOpenKeyExW?$AA@ 100b7100     MSVCRTD:pdblkup.obj
 0002:00042110       ??_C@_0BB@GLNAEDBD@RegQueryValueExW?$AA@ 100b7110     MSVCRTD:pdblkup.obj
 0002:00042124       ??_C@_0M@HLOHPNFA@RegCloseKey?$AA@ 100b7124     MSVCRTD:pdblkup.obj
 0002:00042130       ??_C@_1FM@OEMPKHJI@?$AAS?$AAO?$AAF?$AAT?$AAW?$AAA?$AAR?$AAE?$AA?2?$AAM?$AAi?$AAc?$AAr?$AAo?$AAs?$AAo?$AAf?$AAt?$AA?2?$AAV?$AAi?$AAs?$AAu?$AAa?$AAl?$AAS?$AAt?$AAu?$AAd?$AAi?$AAo?$AA?2@ 100b7130     MSVCRTD:pdblkup.obj
 0002:0004218c       ??_C@_1CK@HHHCOJPD@?$AAE?$AAn?$AAv?$AAi?$AAr?$AAo?$AAn?$AAm?$AAe?$AAn?$AAt?$AAD?$AAi?$AAr?$AAe?$AAc?$AAt?$AAo?$AAr?$AAy?$AA?$AA@ 100b718c     MSVCRTD:pdblkup.obj
 0002:000421d4       ??_C@_1BC@MIBIBMGK@?$AAM?$AAS?$AAP?$AAD?$AAB?$AA1?$AA1?$AA0?$AA?$AA@ 100b71d4     MSVCRTD:pdblkup.obj
 0002:000421e8       ??_C@_0BB@KCIACLNC@PDBOpenValidate5?$AA@ 100b71e8     MSVCRTD:pdblkup.obj
 0002:000421fc       ??_C@_01KDCPPGHE@r?$AA@    100b71fc     MSVCRTD:pdblkup.obj
 0002:00042200       __load_config_used         100b7200     MSVCRTD:loadcfg.obj
 0002:000422a0       ___safe_se_handler_table   100b72a0     <linker-defined>
 0002:000422a4       ___rtc_iaa                 100b72a4     MSVCRTD:initsect.obj
 0002:00042594       ___rtc_izz                 100b7594     MSVCRTD:initsect.obj
 0002:00042598       ___rtc_taa                 100b7598     MSVCRTD:initsect.obj
 0002:00042888       ___rtc_tzz                 100b7888     MSVCRTD:initsect.obj
 0002:00042934       __IMPORT_DESCRIPTOR_WSOCK32 100b7934     wsock32:WSOCK32.dll
 0002:00042948       __IMPORT_DESCRIPTOR_WS2_32 100b7948     ws2_32:WS2_32.dll
 0002:0004295c       __IMPORT_DESCRIPTOR_IPHLPAPI 100b795c     IPHlpApi:IPHLPAPI.DLL
 0002:00042970       __IMPORT_DESCRIPTOR_KERNEL32 100b7970     kernel32:KERNEL32.dll
 0002:00042984       __IMPORT_DESCRIPTOR_USER32 100b7984     user32:USER32.dll
 0002:00042998       __IMPORT_DESCRIPTOR_GDI32  100b7998     gdi32:GDI32.dll
 0002:000429ac       __IMPORT_DESCRIPTOR_MSVCR110D 100b79ac     MSVCRTD:MSVCR110D.dll
 0002:000429c0       __NULL_IMPORT_DESCRIPTOR   100b79c0     wsock32:WSOCK32.dll
 0003:00042f78       _acl_vstream_fstd          10103f78     acl_vstream.obj
 0003:0004bb64       ___malloc_fn               1010cb64     acl_malloc_glue.obj
 0003:0004bb68       ___calloc_fn               1010cb68     acl_malloc_glue.obj
 0003:0004bb6c       ___realloc_fn              1010cb6c     acl_malloc_glue.obj
 0003:0004bb70       ___strdup_fn               1010cb70     acl_malloc_glue.obj
 0003:0004bb74       ___strndup_fn              1010cb74     acl_malloc_glue.obj
 0003:0004bb78       ___memdup_fn               1010cb78     acl_malloc_glue.obj
 0003:0004bb7c       ___free_fn                 1010cb7c     acl_malloc_glue.obj
 0003:0005b6c4       ___acl_var_use_poll        1011c6c4     acl_init.obj
 0003:0005b980       ___security_cookie         1011c980     MSVCRTD:gs_cookie.obj
 0003:0005b984       ___security_cookie_complement 1011c984     MSVCRTD:gs_cookie.obj
 0003:0005b990       ?_RTC_ErrorLevels@@3PAHA   1011c990     MSVCRTD:error.obj
 0003:0005b9a4       ___isa_enabled             1011c9a4     MSVCRTD:cpu_disp.obj
 0003:0005b9a8       ___native_dllmain_reason   1011c9a8     MSVCRTD:natstart.obj
 0003:0005b9c4       _acl_optind                1011c9c4     acl_getopt.obj
 0003:0005b9c8       _acl_optarg                1011c9c8     acl_getopt.obj
 0003:0005b9e4       _acl_msg_verbose           1011c9e4     acl_msg.obj
 0003:00061c30       _var_aut_log_level         10122c30     acl_test_cfg.obj
 0003:00061c34       _var_aut_line_array        10122c34     acl_test_cfg.obj
 0003:00061c38       _var_aut_valid_line_idx    10122c38     acl_test_cfg.obj
 0003:00061c54       _var_aut_verbose           10122c54     acl_test_runner.obj
 0003:00061c64       _var_progname              10122c64     acl_proctl.obj
 0003:00061fc4       ?wsprintffp@@3P6AHPADPBDZZA 10122fc4     MSVCRTD:error.obj
 0003:00061fd0       ___isa_available           10122fd0     MSVCRTD:cpu_disp.obj
 0003:00061fd4       ___favor                   10122fd4     MSVCRTD:cpu_disp.obj
 0003:00061fd8       ?__type_info_root_node@@3U__type_info_node@@A 10122fd8     MSVCRTD:tncleanup.obj
 0003:00061fe8       ___@@_PchSym_@00@UdlipUzxoUxlwvUgifmpUoryPzxoUwvyftwooUzxoPhgwzucOlyq@45FD0C829A0CD5E2 10122fe8     <common>
 0003:00061fec       ___native_startup_lock     10122fec     <common>
 0003:00061ff0       ___native_startup_state    10122ff0     <common>
 0003:00061ff4       ___dyn_tls_init_callback   10122ff4     <common>
 0003:00061ff8       ___onexitend               10122ff8     <common>
 0003:00061ffc       ___onexitbegin             10122ffc     <common>

 entry point at        0001:00071a80

 Static symbols

 0000:ffed6000       .debug$S                   10000000     MSVCRTD:MSVCR110D.dll
 0000:ffed6000       .debug$S                   10000000     MSVCRTD:MSVCR110D.dll
 0000:ffed6000       .debug$S                   10000000     MSVCRTD:MSVCR110D.dll
 0000:ffed6000       .debug$S                   10000000     MSVCRTD:MSVCR110D.dll
 0000:ffed6000       .debug$S                   10000000     MSVCRTD:MSVCR110D.dll
 0000:ffed6000       .debug$S                   10000000     MSVCRTD:MSVCR110D.dll
 0000:ffed6000       .debug$S                   10000000     MSVCRTD:MSVCR110D.dll
 0000:ffed6000       .debug$S                   10000000     MSVCRTD:MSVCR110D.dll
 0000:ffed6000       .debug$S                   10000000     MSVCRTD:MSVCR110D.dll
 0000:ffed6000       .debug$S                   10000000     MSVCRTD:MSVCR110D.dll
 0000:ffed6000       .debug$S                   10000000     MSVCRTD:MSVCR110D.dll
 0000:ffed6000       .debug$S                   10000000     MSVCRTD:MSVCR110D.dll
 0000:ffed6000       .debug$S                   10000000     MSVCRTD:MSVCR110D.dll
 0000:ffed6000       .debug$S                   10000000     MSVCRTD:MSVCR110D.dll
 0000:ffed6000       .debug$S                   10000000     MSVCRTD:MSVCR110D.dll
 0000:ffed6000       .debug$S                   10000000     MSVCRTD:MSVCR110D.dll
 0000:ffed6000       .debug$S                   10000000     MSVCRTD:MSVCR110D.dll
 0000:ffed6000       .debug$S                   10000000     MSVCRTD:MSVCR110D.dll
 0000:ffed6000       .debug$S                   10000000     MSVCRTD:MSVCR110D.dll
 0000:ffed6000       .debug$S                   10000000     MSVCRTD:MSVCR110D.dll
 0000:ffed6000       .debug$S                   10000000     MSVCRTD:MSVCR110D.dll
 0000:ffed6000       .debug$S                   10000000     MSVCRTD:MSVCR110D.dll
 0000:ffed6000       .debug$S                   10000000     MSVCRTD:MSVCR110D.dll
 0000:ffed6000       .debug$S                   10000000     MSVCRTD:MSVCR110D.dll
 0000:ffed6000       .debug$S                   10000000     MSVCRTD:MSVCR110D.dll
 0000:ffed6000       .debug$S                   10000000     MSVCRTD:MSVCR110D.dll
 0000:ffed6000       .debug$S                   10000000     MSVCRTD:MSVCR110D.dll
 0000:ffed6000       .debug$S                   10000000     MSVCRTD:MSVCR110D.dll
 0000:ffed6000       .debug$S                   10000000     MSVCRTD:MSVCR110D.dll
 0000:ffed6000       .debug$S                   10000000     MSVCRTD:MSVCR110D.dll
 0000:ffed6000       .debug$S                   10000000     MSVCRTD:MSVCR110D.dll
 0000:ffed6000       .debug$S                   10000000     MSVCRTD:MSVCR110D.dll
 0000:ffed6000       .debug$S                   10000000     MSVCRTD:MSVCR110D.dll
 0000:ffed6000       .debug$S                   10000000     MSVCRTD:MSVCR110D.dll
 0000:ffed6000       .debug$S                   10000000     MSVCRTD:MSVCR110D.dll
 0000:ffed6000       .debug$S                   10000000     MSVCRTD:MSVCR110D.dll
 0000:ffed6000       .debug$S                   10000000     MSVCRTD:MSVCR110D.dll
 0000:ffed6000       .debug$S                   10000000     MSVCRTD:MSVCR110D.dll
 0000:ffed6000       .debug$S                   10000000     MSVCRTD:MSVCR110D.dll
 0000:ffed6000       .debug$S                   10000000     MSVCRTD:MSVCR110D.dll
 0000:ffed6000       .debug$S                   10000000     MSVCRTD:MSVCR110D.dll
 0000:ffed6000       .debug$S                   10000000     MSVCRTD:MSVCR110D.dll
 0000:ffed6000       .debug$S                   10000000     MSVCRTD:MSVCR110D.dll
 0000:ffed6000       .debug$S                   10000000     MSVCRTD:MSVCR110D.dll
 0000:ffed6000       .debug$S                   10000000     MSVCRTD:MSVCR110D.dll
 0000:ffed6000       .debug$S                   10000000     MSVCRTD:MSVCR110D.dll
 0000:ffed6000       .debug$S                   10000000     MSVCRTD:MSVCR110D.dll
 0000:ffed6000       .debug$S                   10000000     MSVCRTD:MSVCR110D.dll
 0000:ffed6000       .debug$S                   10000000     MSVCRTD:MSVCR110D.dll
 0000:ffed6000       .debug$S                   10000000     MSVCRTD:MSVCR110D.dll
 0000:ffed6000       .debug$S                   10000000     MSVCRTD:MSVCR110D.dll
 0000:ffed6000       .debug$S                   10000000     MSVCRTD:MSVCR110D.dll
 0000:ffed6000       .debug$S                   10000000     MSVCRTD:MSVCR110D.dll
 0000:ffed6000       .debug$S                   10000000     MSVCRTD:MSVCR110D.dll
 0000:ffed6000       .debug$S                   10000000     MSVCRTD:MSVCR110D.dll
 0000:ffed6000       .debug$S                   10000000     MSVCRTD:MSVCR110D.dll
 0000:ffed6000       .debug$S                   10000000     MSVCRTD:MSVCR110D.dll
 0000:ffed6000       .debug$S                   10000000     MSVCRTD:MSVCR110D.dll
 0000:ffed6000       .debug$S                   10000000     MSVCRTD:MSVCR110D.dll
 0000:ffed6000       .debug$S                   10000000     MSVCRTD:MSVCR110D.dll
 0000:ffed6000       .debug$S                   10000000     MSVCRTD:MSVCR110D.dll
 0000:ffed6000       .debug$S                   10000000     MSVCRTD:MSVCR110D.dll
 0000:ffed6000       .debug$S                   10000000     MSVCRTD:MSVCR110D.dll
 0000:ffed6000       .debug$S                   10000000     MSVCRTD:MSVCR110D.dll
 0000:ffed6000       .debug$S                   10000000     MSVCRTD:MSVCR110D.dll
 0000:ffed6000       .debug$S                   10000000     MSVCRTD:MSVCR110D.dll
 0000:ffed6000       .debug$S                   10000000     MSVCRTD:MSVCR110D.dll
 0000:ffed6000       .debug$S                   10000000     MSVCRTD:MSVCR110D.dll
 0000:ffed6000       .debug$S                   10000000     MSVCRTD:MSVCR110D.dll
 0000:ffed6000       .debug$S                   10000000     MSVCRTD:MSVCR110D.dll
 0000:ffed6000       .debug$S                   10000000     MSVCRTD:MSVCR110D.dll
 0000:ffed6000       .debug$S                   10000000     MSVCRTD:MSVCR110D.dll
 0000:ffed6000       .debug$S                   10000000     MSVCRTD:MSVCR110D.dll
 0000:ffed6000       .debug$S                   10000000     MSVCRTD:MSVCR110D.dll
 0000:ffed6000       .debug$S                   10000000     MSVCRTD:MSVCR110D.dll
 0000:ffed6000       .debug$S                   10000000     MSVCRTD:MSVCR110D.dll
 0000:ffed6000       .debug$S                   10000000     MSVCRTD:MSVCR110D.dll
 0000:ffed6000       .debug$S                   10000000     MSVCRTD:MSVCR110D.dll
 0000:ffed6000       .debug$S                   10000000     MSVCRTD:MSVCR110D.dll
 0000:ffed6000       .debug$S                   10000000     MSVCRTD:MSVCR110D.dll
 0000:ffed6000       .debug$S                   10000000     MSVCRTD:MSVCR110D.dll
 0000:ffed6000       .debug$S                   10000000     MSVCRTD:MSVCR110D.dll
 0000:ffed6000       .debug$S                   10000000     MSVCRTD:MSVCR110D.dll
 0000:ffed6000       .debug$S                   10000000     MSVCRTD:MSVCR110D.dll
 0000:ffed6000       .debug$S                   10000000     MSVCRTD:MSVCR110D.dll
 0000:ffed6000       .debug$S                   10000000     gdi32:GDI32.dll
 0000:ffed6000       .debug$S                   10000000     user32:USER32.dll
 0000:ffed6000       .debug$S                   10000000     user32:USER32.dll
 0000:ffed6000       .debug$S                   10000000     user32:USER32.dll
 0000:ffed6000       .debug$S                   10000000     user32:USER32.dll
 0000:ffed6000       .debug$S                   10000000     user32:USER32.dll
 0000:ffed6000       .debug$S                   10000000     user32:USER32.dll
 0000:ffed6000       .debug$S                   10000000     user32:USER32.dll
 0000:ffed6000       .debug$S                   10000000     user32:USER32.dll
 0000:ffed6000       .debug$S                   10000000     user32:USER32.dll
 0000:ffed6000       .debug$S                   10000000     user32:USER32.dll
 0000:ffed6000       .debug$S                   10000000     user32:USER32.dll
 0000:ffed6000       .debug$S                   10000000     user32:USER32.dll
 0000:ffed6000       .debug$S                   10000000     user32:USER32.dll
 0000:ffed6000       .debug$S                   10000000     user32:USER32.dll
 0000:ffed6000       .debug$S                   10000000     kernel32:KERNEL32.dll
 0000:ffed6000       .debug$S                   10000000     kernel32:KERNEL32.dll
 0000:ffed6000       .debug$S                   10000000     kernel32:KERNEL32.dll
 0000:ffed6000       .debug$S                   10000000     kernel32:KERNEL32.dll
 0000:ffed6000       .debug$S                   10000000     kernel32:KERNEL32.dll
 0000:ffed6000       .debug$S                   10000000     kernel32:KERNEL32.dll
 0000:ffed6000       .debug$S                   10000000     kernel32:KERNEL32.dll
 0000:ffed6000       .debug$S                   10000000     kernel32:KERNEL32.dll
 0000:ffed6000       .debug$S                   10000000     kernel32:KERNEL32.dll
 0000:ffed6000       .debug$S                   10000000     kernel32:KERNEL32.dll
 0000:ffed6000       .debug$S                   10000000     kernel32:KERNEL32.dll
 0000:ffed6000       .debug$S                   10000000     kernel32:KERNEL32.dll
 0000:ffed6000       .debug$S                   10000000     kernel32:KERNEL32.dll
 0000:ffed6000       .debug$S                   10000000     kernel32:KERNEL32.dll
 0000:ffed6000       .debug$S                   10000000     kernel32:KERNEL32.dll
 0000:ffed6000       .debug$S                   10000000     kernel32:KERNEL32.dll
 0000:ffed6000       .debug$S                   10000000     kernel32:KERNEL32.dll
 0000:ffed6000       .debug$S                   10000000     kernel32:KERNEL32.dll
 0000:ffed6000       .debug$S                   10000000     kernel32:KERNEL32.dll
 0000:ffed6000       .debug$S                   10000000     kernel32:KERNEL32.dll
 0000:ffed6000       .debug$S                   10000000     kernel32:KERNEL32.dll
 0000:ffed6000       .debug$S                   10000000     kernel32:KERNEL32.dll
 0000:ffed6000       .debug$S                   10000000     kernel32:KERNEL32.dll
 0000:ffed6000       .debug$S                   10000000     kernel32:KERNEL32.dll
 0000:ffed6000       .debug$S                   10000000     kernel32:KERNEL32.dll
 0000:ffed6000       .debug$S                   10000000     kernel32:KERNEL32.dll
 0000:ffed6000       .debug$S                   10000000     kernel32:KERNEL32.dll
 0000:ffed6000       .debug$S                   10000000     kernel32:KERNEL32.dll
 0000:ffed6000       .debug$S                   10000000     kernel32:KERNEL32.dll
 0000:ffed6000       .debug$S                   10000000     kernel32:KERNEL32.dll
 0000:ffed6000       .debug$S                   10000000     kernel32:KERNEL32.dll
 0000:ffed6000       .debug$S                   10000000     kernel32:KERNEL32.dll
 0000:ffed6000       .debug$S                   10000000     kernel32:KERNEL32.dll
 0000:ffed6000       .debug$S                   10000000     kernel32:KERNEL32.dll
 0000:ffed6000       .debug$S                   10000000     kernel32:KERNEL32.dll
 0000:ffed6000       .debug$S                   10000000     kernel32:KERNEL32.dll
 0000:ffed6000       .debug$S                   10000000     kernel32:KERNEL32.dll
 0000:ffed6000       .debug$S                   10000000     kernel32:KERNEL32.dll
 0000:ffed6000       .debug$S                   10000000     kernel32:KERNEL32.dll
 0000:ffed6000       .debug$S                   10000000     kernel32:KERNEL32.dll
 0000:ffed6000       .debug$S                   10000000     kernel32:KERNEL32.dll
 0000:ffed6000       .debug$S                   10000000     kernel32:KERNEL32.dll
 0000:ffed6000       .debug$S                   10000000     kernel32:KERNEL32.dll
 0000:ffed6000       .debug$S                   10000000     kernel32:KERNEL32.dll
 0000:ffed6000       .debug$S                   10000000     kernel32:KERNEL32.dll
 0000:ffed6000       .debug$S                   10000000     kernel32:KERNEL32.dll
 0000:ffed6000       .debug$S                   10000000     kernel32:KERNEL32.dll
 0000:ffed6000       .debug$S                   10000000     kernel32:KERNEL32.dll
 0000:ffed6000       .debug$S                   10000000     kernel32:KERNEL32.dll
 0000:ffed6000       .debug$S                   10000000     kernel32:KERNEL32.dll
 0000:ffed6000       .debug$S                   10000000     kernel32:KERNEL32.dll
 0000:ffed6000       .debug$S                   10000000     kernel32:KERNEL32.dll
 0000:ffed6000       .debug$S                   10000000     kernel32:KERNEL32.dll
 0000:ffed6000       .debug$S                   10000000     kernel32:KERNEL32.dll
 0000:ffed6000       .debug$S                   10000000     kernel32:KERNEL32.dll
 0000:ffed6000       .debug$S                   10000000     kernel32:KERNEL32.dll
 0000:ffed6000       .debug$S                   10000000     kernel32:KERNEL32.dll
 0000:ffed6000       .debug$S                   10000000     kernel32:KERNEL32.dll
 0000:ffed6000       .debug$S                   10000000     kernel32:KERNEL32.dll
 0000:ffed6000       .debug$S                   10000000     kernel32:KERNEL32.dll
 0000:ffed6000       .debug$S                   10000000     kernel32:KERNEL32.dll
 0000:ffed6000       .debug$S                   10000000     kernel32:KERNEL32.dll
 0000:ffed6000       .debug$S                   10000000     kernel32:KERNEL32.dll
 0000:ffed6000       .debug$S                   10000000     kernel32:KERNEL32.dll
 0000:ffed6000       .debug$S                   10000000     kernel32:KERNEL32.dll
 0000:ffed6000       .debug$S                   10000000     kernel32:KERNEL32.dll
 0000:ffed6000       .debug$S                   10000000     kernel32:KERNEL32.dll
 0000:ffed6000       .debug$S                   10000000     kernel32:KERNEL32.dll
 0000:ffed6000       .debug$S                   10000000     kernel32:KERNEL32.dll
 0000:ffed6000       .debug$S                   10000000     kernel32:KERNEL32.dll
 0000:ffed6000       .debug$S                   10000000     kernel32:KERNEL32.dll
 0000:ffed6000       .debug$S                   10000000     kernel32:KERNEL32.dll
 0000:ffed6000       .debug$S                   10000000     kernel32:KERNEL32.dll
 0000:ffed6000       .debug$S                   10000000     kernel32:KERNEL32.dll
 0000:ffed6000       .debug$S                   10000000     kernel32:KERNEL32.dll
 0000:ffed6000       .debug$S                   10000000     kernel32:KERNEL32.dll
 0000:ffed6000       .debug$S                   10000000     kernel32:KERNEL32.dll
 0000:ffed6000       .debug$S                   10000000     kernel32:KERNEL32.dll
 0000:ffed6000       .debug$S                   10000000     kernel32:KERNEL32.dll
 0000:ffed6000       .debug$S                   10000000     kernel32:KERNEL32.dll
 0000:ffed6000       .debug$S                   10000000     kernel32:KERNEL32.dll
 0000:ffed6000       .debug$S                   10000000     IPHlpApi:IPHLPAPI.DLL
 0000:ffed6000       .debug$S                   10000000     ws2_32:WS2_32.dll
 0000:ffed6000       .debug$S                   10000000     ws2_32:WS2_32.dll
 0000:ffed6000       .debug$S                   10000000     wsock32:WSOCK32.dll
 0000:ffed6000       .debug$S                   10000000     wsock32:WSOCK32.dll
 0000:ffed6000       .debug$S                   10000000     wsock32:WSOCK32.dll
 0000:ffed6000       .debug$S                   10000000     wsock32:WSOCK32.dll
 0000:ffed6000       .debug$S                   10000000     wsock32:WSOCK32.dll
 0000:ffed6000       .debug$S                   10000000     wsock32:WSOCK32.dll
 0000:ffed6000       .debug$S                   10000000     wsock32:WSOCK32.dll
 0000:ffed6000       .debug$S                   10000000     wsock32:WSOCK32.dll
 0000:ffed6000       .debug$S                   10000000     wsock32:WSOCK32.dll
 0000:ffed6000       .debug$S                   10000000     wsock32:WSOCK32.dll
 0000:ffed6000       .debug$S                   10000000     wsock32:WSOCK32.dll
 0000:ffed6000       .debug$S                   10000000     wsock32:WSOCK32.dll
 0000:ffed6000       .debug$S                   10000000     wsock32:WSOCK32.dll
 0000:ffed6000       .debug$S                   10000000     wsock32:WSOCK32.dll
 0000:ffed6000       .debug$S                   10000000     wsock32:WSOCK32.dll
 0000:ffed6000       .debug$S                   10000000     wsock32:WSOCK32.dll
 0000:ffed6000       .debug$S                   10000000     wsock32:WSOCK32.dll
 0000:ffed6000       .debug$S                   10000000     wsock32:WSOCK32.dll
 0000:ffed6000       .debug$S                   10000000     wsock32:WSOCK32.dll
 0000:ffed6000       .debug$S                   10000000     wsock32:WSOCK32.dll
 0000:ffed6000       .debug$S                   10000000     wsock32:WSOCK32.dll
 0000:ffed6000       .debug$S                   10000000     wsock32:WSOCK32.dll
 0000:ffed6000       .debug$S                   10000000     wsock32:WSOCK32.dll
 0000:ffed6000       .debug$S                   10000000     wsock32:WSOCK32.dll
 0000:ffed6000       .debug$S                   10000000     wsock32:WSOCK32.dll
 0000:ffed6000       .debug$S                   10000000     wsock32:WSOCK32.dll
 0000:ffed6000       .debug$S                   10000000     wsock32:WSOCK32.dll
 0000:ffed6000       .debug$S                   10000000     wsock32:WSOCK32.dll
 0000:ffed6000       .debug$S                   10000000     wsock32:WSOCK32.dll
 0001:00000573       _gbtransfer                10001573 f   acl_gbcode.obj
 0001:000009c8       $LN20                      100019c8     acl_htmlcode.obj
 0001:000009d0       $LN19                      100019d0     acl_htmlcode.obj
 0001:000009dc       $LN18                      100019dc     acl_htmlcode.obj
 0001:000009e0       _html_decode_free          100019e0 f   acl_htmlcode.obj
 0001:00000a08       _html_decode_init          10001a08 f   acl_htmlcode.obj
 0001:00000a82       _markup_unescape           10001a82 f   acl_htmlcode.obj
 0001:00000c5a       $LN21                      10001c5a     acl_htmlcode.obj
 0001:00000c62       $LN20                      10001c62     acl_htmlcode.obj
 0001:00000c86       $LN19                      10001c86     acl_htmlcode.obj
 0001:00000c8a       $LN18                      10001c8a     acl_htmlcode.obj
 0001:00000c8f       $LN17                      10001c8f     acl_htmlcode.obj
 0001:0000194a       $LN16                      1000294a     acl_xmlcode.obj
 0001:00001952       $LN15                      10002952     acl_xmlcode.obj
 0001:0000195e       $LN14                      1000295e     acl_xmlcode.obj
 0001:00001962       _xml_decode_free           10002962 f   acl_xmlcode.obj
 0001:0000198a       _xml_decode_init           1000298a f   acl_xmlcode.obj
 0001:000019fc       _markup_unescape           100029fc f   acl_xmlcode.obj
 0001:00001bd4       $LN21                      10002bd4     acl_xmlcode.obj
 0001:00001bdc       $LN20                      10002bdc     acl_xmlcode.obj
 0001:00001c00       $LN19                      10002c00     acl_xmlcode.obj
 0001:00001c04       $LN18                      10002c04     acl_xmlcode.obj
 0001:00001c09       $LN17                      10002c09     acl_xmlcode.obj
 0001:00001efb       $LN8                       10002efb     acl_chunk_chain.obj
 0001:00001f03       $LN7                       10002f03     acl_chunk_chain.obj
 0001:00001f0f       $LN6                       10002f0f     acl_chunk_chain.obj
 0001:00001f80       $LN8                       10002f80     acl_chunk_chain.obj
 0001:00001f88       $LN7                       10002f88     acl_chunk_chain.obj
 0001:00001f94       $LN6                       10002f94     acl_chunk_chain.obj
 0001:0000248d       $LN42                      1000348d     acl_chunk_chain.obj
 0001:00002495       $LN41                      10003495     acl_chunk_chain.obj
 0001:000024a1       $LN40                      100034a1     acl_chunk_chain.obj
 0001:00002597       $LN9                       10003597     acl_chunk_chain.obj
 0001:0000259f       $LN8                       1000359f     acl_chunk_chain.obj
 0001:000025ab       $LN7                       100035ab     acl_chunk_chain.obj
 0001:000025b5       _acl_chunk_new             100035b5 f   acl_chunk_chain.obj
 0001:0000261b       _acl_chunk_free            1000361b f   acl_chunk_chain.obj
 0001:00002661       _acl_chunk_merge           10003661 f   acl_chunk_chain.obj
 0001:00003ab7       $LN9                       10004ab7     acl_meter_time.obj
 0001:00003abf       $LN8                       10004abf     acl_meter_time.obj
 0001:00003acb       $LN7                       10004acb     acl_meter_time.obj
 0001:00003acf       _dummy                     10004acf f   acl_meter_time.obj
 0001:00003ad4       _free_tls                  10004ad4 f   acl_meter_time.obj
 0001:00003afa       _main_free_tls             10004afa f   acl_meter_time.obj
 0001:00003b36       _once_init                 10004b36 f   acl_meter_time.obj
 0001:00003b83       _tls_calloc                10004b83 f   acl_meter_time.obj
 0001:00003dcb       $LN12                      10004dcb     acl_msg.obj
 0001:00003dd3       $LN11                      10004dd3     acl_msg.obj
 0001:00003deb       $LN10                      10004deb     acl_msg.obj
 0001:00003df0       $LN9                       10004df0     acl_msg.obj
 0001:0000492a       $LN11                      1000592a     acl_msg.obj
 0001:00004932       $LN10                      10005932     acl_msg.obj
 0001:0000493e       $LN9                       1000593e     acl_msg.obj
 0001:00004b1f       $LN5                       10005b1f     acl_msg.obj
 0001:00004b27       $LN4                       10005b27     acl_msg.obj
 0001:00004b33       $LN3                       10005b33     acl_msg.obj
 0001:00004b37       _free_buf                  10005b37 f   acl_msg.obj
 0001:00004b71       _dummy_free                10005b71 f   acl_msg.obj
 0001:00004b76       _free_main_buf             10005b76 f   acl_msg.obj
 0001:00004bae       _error_buf_init            10005bae f   acl_msg.obj
 0001:00004e7f       $LN23                      10005e7f     acl_myflock.obj
 0001:00004e87       $LN22                      10005e87     acl_myflock.obj
 0001:00004e9f       $LN21                      10005e9f     acl_myflock.obj
 0001:00004ea4       $LN20                      10005ea4     acl_myflock.obj
 0001:00004ea9       _localtime                 10005ea9 f   acl_mylog.obj
 0001:00004eca       _time                      10005eca f   acl_mylog.obj
 0001:00004f5b       $LN5                       10005f5b     acl_mylog.obj
 0001:00004f63       $LN4                       10005f63     acl_mylog.obj
 0001:00004f6f       $LN3                       10005f6f     acl_mylog.obj
 0001:00005157       $LN16                      10006157     acl_mylog.obj
 0001:0000515f       $LN15                      1000615f     acl_mylog.obj
 0001:0000516b       $LN14                      1000616b     acl_mylog.obj
 0001:000052b0       $LN15                      100062b0     acl_mylog.obj
 0001:000052b8       $LN14                      100062b8     acl_mylog.obj
 0001:000052c4       $LN13                      100062c4     acl_mylog.obj
 0001:00005407       $LN15                      10006407     acl_mylog.obj
 0001:0000540f       $LN14                      1000640f     acl_mylog.obj
 0001:0000541b       $LN13                      1000641b     acl_mylog.obj
 0001:000054f6       _open_file_log             100064f6 f   acl_mylog.obj
 0001:0000570e       $LN12                      1000670e     acl_mylog.obj
 0001:00005716       $LN11                      10006716     acl_mylog.obj
 0001:00005722       $LN10                      10006722     acl_mylog.obj
 0001:00005727       _reopen_log                10006727 f   acl_mylog.obj
 0001:000059a8       _open_stream_log           100069a8 f   acl_mylog.obj
 0001:00005ba4       $LN12                      10006ba4     acl_mylog.obj
 0001:00005bac       $LN11                      10006bac     acl_mylog.obj
 0001:00005bb8       $LN10                      10006bb8     acl_mylog.obj
 0001:00005bbd       _open_tcp_log              10006bbd f   acl_mylog.obj
 0001:00005bd9       _open_unix_log             10006bd9 f   acl_mylog.obj
 0001:00005bf5       _udp_read                  10006bf5 f   acl_mylog.obj
 0001:00005c4e       _udp_write                 10006c4e f   acl_mylog.obj
 0001:00005ca0       _open_udp_log              10006ca0 f   acl_mylog.obj
 0001:00005fa0       $LN24                      10006fa0     acl_mylog.obj
 0001:00005fa8       $LN23                      10006fa8     acl_mylog.obj
 0001:00005fc0       $LN22                      10006fc0     acl_mylog.obj
 0001:00005fc3       $LN21                      10006fc3     acl_mylog.obj
 0001:00005fc8       _open_log                  10006fc8 f   acl_mylog.obj
 0001:00006199       _get_buf                   10007199 f   acl_mylog.obj
 0001:00006323       _file_vsyslog              10007323 f   acl_mylog.obj
 0001:000064eb       $LN14                      100074eb     acl_mylog.obj
 0001:000064f3       $LN13                      100074f3     acl_mylog.obj
 0001:00006517       $LN12                      10007517     acl_mylog.obj
 0001:0000651b       $LN11                      1000751b     acl_mylog.obj
 0001:00006520       $LN10                      10007520     acl_mylog.obj
 0001:00006527       _net_vsyslog               10007527 f   acl_mylog.obj
 0001:00006713       $LN15                      10007713     acl_mylog.obj
 0001:0000671b       $LN14                      1000771b     acl_mylog.obj
 0001:00006733       $LN13                      10007733     acl_mylog.obj
 0001:00006737       $LN12                      10007737     acl_mylog.obj
 0001:000077c1       $LN96                      100087c1     acl_vbuf_print.obj
 0001:000077c9       $LN95                      100087c9     acl_vbuf_print.obj
 0001:000077d5       $LN94                      100087d5     acl_vbuf_print.obj
 0001:00007eb3       _number                    10008eb3 f   acl_vsprintf.obj
 0001:000082bf       $LN65                      100092bf     acl_vsprintf.obj
 0001:000082c7       $LN64                      100092c7     acl_vsprintf.obj
 0001:000082eb       $LN63                      100092eb     acl_vsprintf.obj
 0001:000082f8       $LN62                      100092f8     acl_vsprintf.obj
 0001:00008305       $LN61                      10009305     acl_vsprintf.obj
 0001:00008309       _skip_atoi                 10009309 f   acl_vsprintf.obj
 0001:00008d6b       $LN15                      10009d6b     acl_vstream.obj
 0001:00008d73       $LN14                      10009d73     acl_vstream.obj
 0001:00008d7f       $LN13                      10009d7f     acl_vstream.obj
 0001:00009c88       $LN5                       1000ac88     acl_vstream.obj
 0001:00009c90       $LN4                       1000ac90     acl_vstream.obj
 0001:00009c9c       $LN3                       1000ac9c     acl_vstream.obj
 0001:0000bea8       $LN14                      1000cea8     acl_vstream.obj
 0001:0000beb0       $LN13                      1000ceb0     acl_vstream.obj
 0001:0000bebc       $LN12                      1000cebc     acl_vstream.obj
 0001:0000c1bb       ___sys_getc                1000d1bb f   acl_vstream.obj
 0001:0000c258       ___vstream_sys_read        1000d258 f   acl_vstream.obj
 0001:0000c624       $LN33                      1000d624     acl_vstream.obj
 0001:0000c62c       $LN32                      1000d62c     acl_vstream.obj
 0001:0000c638       $LN31                      1000d638     acl_vstream.obj
 0001:0000c63d       _vstream_memmove           1000d63d f   acl_vstream.obj
 0001:0000c6c2       ___bfgets_crlf_peek        1000d6c2 f   acl_vstream.obj
 0001:0000c7d3       ___bfgets_no_crlf_peek     1000d7d3 f   acl_vstream.obj
 0001:0000c94d       ___bfread_cnt_peek         1000d94d f   acl_vstream.obj
 0001:0000ca27       ___bfread_peek             1000da27 f   acl_vstream.obj
 0001:0000cab1       ___vstream_sys_write       1000dab1 f   acl_vstream.obj
 0001:0000ce0c       ___vstream_sys_writev      1000de0c f   acl_vstream.obj
 0001:0000d0ea       ___loop_writen             1000e0ea f   acl_vstream.obj
 0001:0000d6f4       $LN35                      1000e6f4     acl_vstream_popen.obj
 0001:0000d6fc       $LN34                      1000e6fc     acl_vstream_popen.obj
 0001:0000d738       $LN33                      1000e738     acl_vstream_popen.obj
 0001:0000d73e       $LN32                      1000e73e     acl_vstream_popen.obj
 0001:0000d744       $LN31                      1000e744     acl_vstream_popen.obj
 0001:0000d74b       $LN30                      1000e74b     acl_vstream_popen.obj
 0001:0000d74f       $LN29                      1000e74f     acl_vstream_popen.obj
 0001:0000d787       _vstream_parse_args        1000e787 f   acl_vstream_popen.obj
 0001:0000d903       _wait_child                1000e903 f   acl_vstream_popen.obj
 0001:0000da1b       $LN12                      1000ea1b     acl_vstream_popen.obj
 0001:0000da23       $LN11                      1000ea23     acl_vstream_popen.obj
 0001:0000da2f       $LN10                      1000ea2f     acl_vstream_popen.obj
 0001:0000eafb       $LN7                       1000fafb     acl_vstring.obj
 0001:0000eb03       $LN6                       1000fb03     acl_vstring.obj
 0001:0000eb0f       $LN5                       1000fb0f     acl_vstring.obj
 0001:0000ef43       _vstring_extend            1000ff43 f   acl_vstring.obj
 0001:0000f01a       _vstring_buf_get_ready     1001001a f   acl_vstring.obj
 0001:0000f033       _vstring_buf_put_ready     10010033 f   acl_vstring.obj
 0001:0000f04d       _vstring_buf_space         1001004d f   acl_vstring.obj
 0001:0000fba9       $LN7                       10010ba9     acl_peekfd.obj
 0001:0000fbb1       $LN6                       10010bb1     acl_peekfd.obj
 0001:0000fbbd       $LN5                       10010bbd     acl_peekfd.obj
 0001:0000fd47       $LN7                       10010d47     acl_pipe.obj
 0001:0000fd4f       $LN6                       10010d4f     acl_pipe.obj
 0001:0000fd67       $LN5                       10010d67     acl_pipe.obj
 0001:0000fd6a       $LN4                       10010d6a     acl_pipe.obj
 0001:0000fdd8       _select_read_wait          10010dd8 f   acl_read_wait.obj
 0001:0000fff4       $LN35                      10010ff4     acl_read_wait.obj
 0001:0000fffc       $LN34                      10010ffc     acl_read_wait.obj
 0001:00010020       $LN33                      10011020     acl_read_wait.obj
 0001:00010023       $LN32                      10011023     acl_read_wait.obj
 0001:0001002e       $LN31                      1001102e     acl_read_wait.obj
 0001:00010233       $LN35                      10011233     acl_readable.obj
 0001:0001023b       $LN34                      1001123b     acl_readable.obj
 0001:0001026b       $LN33                      1001126b     acl_readable.obj
 0001:00010270       $LN32                      10011270     acl_readable.obj
 0001:0001027b       $LN31                      1001127b     acl_readable.obj
 0001:00010284       $LN30                      10011284     acl_readable.obj
 0001:0001044c       _select_write_wait         1001144c f   acl_write_wait.obj
 0001:00010690       $LN36                      10011690     acl_write_wait.obj
 0001:00010698       $LN35                      10011698     acl_write_wait.obj
 0001:000106c8       $LN34                      100116c8     acl_write_wait.obj
 0001:000106cc       $LN33                      100116cc     acl_write_wait.obj
 0001:000106cf       $LN32                      100116cf     acl_write_wait.obj
 0001:000106da       $LN31                      100116da     acl_write_wait.obj
 0001:00010da4       _argv_extend               10011da4 f   acl_argv.obj
 0001:00010e2a       _argv_push_back            10011e2a f   acl_argv.obj
 0001:00010e46       _argv_push_front           10011e46 f   acl_argv.obj
 0001:00010f0b       _argv_pop_back             10011f0b f   acl_argv.obj
 0001:00010f44       _argv_pop_front            10011f44 f   acl_argv.obj
 0001:00010fbd       _argv_iter_head            10011fbd f   acl_argv.obj
 0001:0001100e       _argv_iter_next            1001200e f   acl_argv.obj
 0001:00011061       _argv_iter_tail            10012061 f   acl_argv.obj
 0001:000110d0       _argv_iter_prev            100120d0 f   acl_argv.obj
 0001:00011232       $LN14                      10012232     acl_argv_split.obj
 0001:0001123a       $LN13                      1001223a     acl_argv_split.obj
 0001:00011246       $LN12                      10012246     acl_argv_split.obj
 0001:00011390       $LN18                      10012390     acl_argv_split.obj
 0001:00011398       $LN17                      10012398     acl_argv_split.obj
 0001:000113a4       $LN16                      100123a4     acl_argv_split.obj
 0001:00011497       $LN14                      10012497     acl_argv_split.obj
 0001:0001149f       $LN13                      1001249f     acl_argv_split.obj
 0001:000114ab       $LN12                      100124ab     acl_argv_split.obj
 0001:000115ca       $LN16                      100125ca     acl_argv_split.obj
 0001:000115d2       $LN15                      100125d2     acl_argv_split.obj
 0001:000115de       $LN14                      100125de     acl_argv_split.obj
 0001:00011e8b       $LN8                       10012e8b     acl_array.obj
 0001:00011e93       $LN7                       10012e93     acl_array.obj
 0001:00011e9f       $LN6                       10012e9f     acl_array.obj
 0001:00011ee9       _array_push_back           10012ee9 f   acl_array.obj
 0001:00011f02       _array_push_front          10012f02 f   acl_array.obj
 0001:00011f1b       _array_pop_back            10012f1b f   acl_array.obj
 0001:00011f57       _array_pop_front           10012f57 f   acl_array.obj
 0001:00011fd0       _array_iter_head           10012fd0 f   acl_array.obj
 0001:00012043       _array_iter_next           10013043 f   acl_array.obj
 0001:00012096       _array_iter_tail           10013096 f   acl_array.obj
 0001:0001210e       _array_iter_prev           1001310e f   acl_array.obj
 0001:0001215c       _acl_array_grow            1001315c f   acl_array.obj
 0001:00012ce5       _binhash_iter_head         10013ce5 f   acl_binhash.obj
 0001:00012da7       _binhash_iter_next         10013da7 f   acl_binhash.obj
 0001:00012ea5       _binhash_iter_tail         10013ea5 f   acl_binhash.obj
 0001:00012f67       _binhash_iter_prev         10013f67 f   acl_binhash.obj
 0001:00013043       _binhash_iter_info         10014043 f   acl_binhash.obj
 0001:00013069       _binhash_hash              10014069 f   acl_binhash.obj
 0001:000130f4       _binhash_size              100140f4 f   acl_binhash.obj
 0001:0001318f       _acl_binhash_grow          1001418f f   acl_binhash.obj
 0001:00013677       _btree_validate            10014677 f   acl_btree.obj
 0001:000136b9       _btree_min                 100146b9 f   acl_btree.obj
 0001:000136df       _btree_max                 100146df f   acl_btree.obj
 0001:00013705       _btree_successor           10014705 f   acl_btree.obj
 0001:00013761       _btree_search              10014761 f   acl_btree.obj
 0001:00013799       _btree_insert_node         10014799 f   acl_btree.obj
 0001:0001387f       _btree_delete_node         1001487f f   acl_btree.obj
 0001:00013966       _btree_depth               10014966 f   acl_btree.obj
 0001:000139c1       _btree_dump_node           100149c1 f   acl_btree.obj
 0001:00013ad7       _time                      10014ad7 f   acl_cache.obj
 0001:00013fb3       $LN21                      10014fb3     acl_cache.obj
 0001:00013fbb       $LN20                      10014fbb     acl_cache.obj
 0001:00013fc7       $LN19                      10014fc7     acl_cache.obj
 0001:00014541       $LN10                      10015541     acl_cache.obj
 0001:00014549       $LN9                       10015549     acl_cache.obj
 0001:00014555       $LN8                       10015555     acl_cache.obj
 0001:00014651       _cache_iter_head           10015651 f   acl_cache.obj
 0001:000146d7       _cache_iter_next           100156d7 f   acl_cache.obj
 0001:00014757       _cache_iter_tail           10015757 f   acl_cache.obj
 0001:000147e3       _cache_iter_prev           100157e3 f   acl_cache.obj
 0001:00014864       _cache_iter_info           10015864 f   acl_cache.obj
 0001:00014898       _time                      10015898 f   acl_cache2.obj
 0001:00014e4e       $LN26                      10015e4e     acl_cache2.obj
 0001:00014e56       $LN25                      10015e56     acl_cache2.obj
 0001:00014e62       $LN24                      10015e62     acl_cache2.obj
 0001:000153e3       $LN20                      100163e3     acl_cache2.obj
 0001:000153eb       $LN19                      100163eb     acl_cache2.obj
 0001:000153f7       $LN18                      100163f7     acl_cache2.obj
 0001:0001576c       _cmp_fn                    1001676c f   acl_cache2.obj
 0001:000157d5       _cache_iter_head           100167d5 f   acl_cache2.obj
 0001:00015894       _cache_iter_next           10016894 f   acl_cache2.obj
 0001:000159a3       _cache_iter_tail           100169a3 f   acl_cache2.obj
 0001:00015a69       _cache_iter_prev           10016a69 f   acl_cache2.obj
 0001:00015b79       _cache_iter_info           10016b79 f   acl_cache2.obj
 0001:000160ef       $LN6                       100170ef     acl_dlink.obj
 0001:000160f7       $LN5                       100170f7     acl_dlink.obj
 0001:00016103       $LN4                       10017103     acl_dlink.obj
 0001:0001669d       _dlink_free_callback       1001769d f   acl_dlink.obj
 0001:000166e3       _scope_pos                 100176e3 f   acl_dlink.obj
 0001:00016833       _begin_pos                 10017833 f   acl_dlink.obj
 0001:00016850       _end_pos                   10017850 f   acl_dlink.obj
 0001:0001686d       _dlink_succ_insert         1001786d f   acl_dlink.obj
 0001:0001690f       _dlink_append              1001790f f   acl_dlink.obj
 0001:000169ad       _dlink_prepend             100179ad f   acl_dlink.obj
 0001:00016a4b       _dlink_node_merge          10017a4b f   acl_dlink.obj
 0001:00016a94       _dlink_add                 10017a94 f   acl_dlink.obj
 0001:00016d7f       _dlink_iter_head           10017d7f f   acl_dlink.obj
 0001:00016da8       _dlink_iter_next           10017da8 f   acl_dlink.obj
 0001:00016dd1       _dlink_iter_tail           10017dd1 f   acl_dlink.obj
 0001:00016dfa       _dlink_iter_prev           10017dfa f   acl_dlink.obj
 0001:0001763f       _fifo_push_back            1001863f f   acl_fifo.obj
 0001:00017658       _fifo_push_front           10018658 f   acl_fifo.obj
 0001:00017671       _fifo_pop_back             10018671 f   acl_fifo.obj
 0001:00017686       _fifo_pop_front            10018686 f   acl_fifo.obj
 0001:0001769b       _fifo_iter_head            1001869b f   acl_fifo.obj
 0001:0001770a       _fifo_iter_next            1001870a f   acl_fifo.obj
 0001:00017774       _fifo_iter_tail            10018774 f   acl_fifo.obj
 0001:000177ea       _fifo_iter_prev            100187ea f   acl_fifo.obj
 0001:00017854       _fifo_iter_info            10018854 f   acl_fifo.obj
 0001:00017d87       $LN16                      10018d87     acl_hash.obj
 0001:0001a71f       _htable_iter_head          1001b71f f   acl_htable.obj
 0001:0001a7d5       _htable_iter_next          1001b7d5 f   acl_htable.obj
 0001:0001a8b4       _htable_iter_tail          1001b8b4 f   acl_htable.obj
 0001:0001a96a       _htable_iter_prev          1001b96a f   acl_htable.obj
 0001:0001aa44       _htable_iter_info          1001ba44 f   acl_htable.obj
 0001:0001aa6a       ___def_hash_fn             1001ba6a f   acl_htable.obj
 0001:0001aaf5       _htable_size               1001baf5 f   acl_htable.obj
 0001:0001abd6       _htable_grow               1001bbd6 f   acl_htable.obj
 0001:0001ad46       ___init_table_rwlock       1001bd46 f   acl_htable.obj
 0001:0001af3e       $LN22                      1001bf3e     acl_htable.obj
 0001:0001af46       $LN21                      1001bf46     acl_htable.obj
 0001:0001af52       $LN20                      1001bf52     acl_htable.obj
 0001:0001b33a       $LN9                       1001c33a     acl_iplink.obj
 0001:0001b342       $LN8                       1001c342     acl_iplink.obj
 0001:0001b34e       $LN7                       1001c34e     acl_iplink.obj
 0001:0001b352       __check_ip_addr            1001c352 f   acl_iplink.obj
 0001:0001b42e       ___sane_inet_ntoa          1001c42e f   acl_iplink.obj
 0001:0001b4c6       $LN6                       1001c4c6     acl_iplink.obj
 0001:0001b4ce       $LN5                       1001c4ce     acl_iplink.obj
 0001:0001b4da       $LN4                       1001c4da     acl_iplink.obj
 0001:0001b82b       $LN8                       1001c82b     acl_stack.obj
 0001:0001b833       $LN7                       1001c833     acl_stack.obj
 0001:0001b83f       $LN6                       1001c83f     acl_stack.obj
 0001:0001bc10       _stack_push_back           1001cc10 f   acl_stack.obj
 0001:0001bc29       _stack_push_front          1001cc29 f   acl_stack.obj
 0001:0001bc42       _stack_pop_back            1001cc42 f   acl_stack.obj
 0001:0001bc57       _stack_pop_front           1001cc57 f   acl_stack.obj
 0001:0001bcd0       _stack_iter_head           1001ccd0 f   acl_stack.obj
 0001:0001bd3b       _stack_iter_next           1001cd3b f   acl_stack.obj
 0001:0001bd8e       _stack_iter_tail           1001cd8e f   acl_stack.obj
 0001:0001be06       _stack_iter_prev           1001ce06 f   acl_stack.obj
 0001:0001be54       _stack_grow                1001ce54 f   acl_stack.obj
 0001:0001bfc0       $LN10                      1001cfc0     acl_stack.obj
 0001:0001bfc8       $LN9                       1001cfc8     acl_stack.obj
 0001:0001bfd4       $LN8                       1001cfd4     acl_stack.obj
 0001:0001cd40       $LN17                      1001dd40     acl_token_tree.obj
 0001:0001cd48       $LN16                      1001dd48     acl_token_tree.obj
 0001:0001cd54       $LN15                      1001dd54     acl_token_tree.obj
 0001:0001cf4a       $LN17                      1001df4a     acl_token_tree.obj
 0001:0001cf52       $LN16                      1001df52     acl_token_tree.obj
 0001:0001cf5e       $LN15                      1001df5e     acl_token_tree.obj
 0001:0001d0fe       $LN17                      1001e0fe     acl_token_tree.obj
 0001:0001d106       $LN16                      1001e106     acl_token_tree.obj
 0001:0001d112       $LN15                      1001e112     acl_token_tree.obj
 0001:0001d170       _acl_token_name_walk       1001e170 f   acl_token_tree.obj
 0001:0001d223       _token_word_test           1001e223 f   acl_token_tree.obj
 0001:0001d2cb       _token_tree_test           1001e2cb f   acl_token_tree.obj
 0001:0001d41f       $LN14                      1001e41f     acl_token_tree.obj
 0001:0001d427       $LN13                      1001e427     acl_token_tree.obj
 0001:0001d433       $LN12                      1001e433     acl_token_tree.obj
 0001:0001da87       $LN10                      1001ea87     avl.obj
 0001:0001da8f       $LN9                       1001ea8f     avl.obj
 0001:0001da9b       $LN8                       1001ea9b     avl.obj
 0001:0001dd59       $LN34                      1001ed59     avl.obj
 0001:0001dd61       $LN33                      1001ed61     avl.obj
 0001:0001dd6d       $LN32                      1001ed6d     avl.obj
 0001:0001e298       _avl_rotation              1001f298 f   avl.obj
 0001:0001e507       _stat                      1001f507 f   acl_loadcfg.obj
 0001:0001f038       $LN200                     10020038     acl_loadcfg.obj
 0001:0001f040       $LN199                     10020040     acl_loadcfg.obj
 0001:0001f064       $LN198                     10020064     acl_loadcfg.obj
 0001:0001f069       $LN197                     10020069     acl_loadcfg.obj
 0001:0001f072       $LN196                     10020072     acl_loadcfg.obj
 0001:0001f427       $LN34                      10020427     acl_loadcfg.obj
 0001:0001f42f       $LN33                      1002042f     acl_loadcfg.obj
 0001:0001f447       $LN32                      10020447     acl_loadcfg.obj
 0001:0001f44c       $LN31                      1002044c     acl_loadcfg.obj
 0001:0001f619       $LN26                      10020619     acl_loadcfg.obj
 0001:0001f621       $LN25                      10020621     acl_loadcfg.obj
 0001:0001f639       $LN24                      10020639     acl_loadcfg.obj
 0001:0001f63e       $LN23                      1002063e     acl_loadcfg.obj
 0001:0001f7b5       $LN12                      100207b5     acl_loadcfg.obj
 0001:0001f7bd       $LN11                      100207bd     acl_loadcfg.obj
 0001:0001f7d5       $LN10                      100207d5     acl_loadcfg.obj
 0001:0001f7da       $LN9                       100207da     acl_loadcfg.obj
 0001:0001f995       $LN20                      10020995     acl_loadcfg.obj
 0001:0001f99d       $LN19                      1002099d     acl_loadcfg.obj
 0001:0001f9a9       $LN18                      100209a9     acl_loadcfg.obj
 0001:0001fc68       __cfg_file_load            10020c68 f   acl_loadcfg.obj
 0001:0001fd29       __backup_junk_line         10020d29 f   acl_loadcfg.obj
 0001:0001fe49       $LN9                       10020e49     acl_loadcfg.obj
 0001:0001fe51       $LN8                       10020e51     acl_loadcfg.obj
 0001:0001fe69       $LN7                       10020e69     acl_loadcfg.obj
 0001:0001fe6e       $LN6                       10020e6e     acl_loadcfg.obj
 0001:0001fe75       __create_cfg_line          10020e75 f   acl_loadcfg.obj
 0001:000201b5       $LN67                      100211b5     acl_loadcfg.obj
 0001:000201bd       $LN66                      100211bd     acl_loadcfg.obj
 0001:000201c9       $LN65                      100211c9     acl_loadcfg.obj
 0001:000201cf       __cfg_line_free            100211cf f   acl_loadcfg.obj
 0001:000202d2       __cfg_line_dump            100212d2 f   acl_loadcfg.obj
 0001:0002058a       $LN27                      1002158a     acl_loadcfg.obj
 0001:00020592       $LN26                      10021592     acl_loadcfg.obj
 0001:000205aa       $LN25                      100215aa     acl_loadcfg.obj
 0001:000205af       $LN24                      100215af     acl_loadcfg.obj
 0001:000206b2       $LN12                      100216b2     acl_xinetd_cfg.obj
 0001:000206ba       $LN11                      100216ba     acl_xinetd_cfg.obj
 0001:000206c6       $LN10                      100216c6     acl_xinetd_cfg.obj
 0001:000207bd       $LN12                      100217bd     acl_xinetd_cfg.obj
 0001:000207c5       $LN11                      100217c5     acl_xinetd_cfg.obj
 0001:000207d1       $LN10                      100217d1     acl_xinetd_cfg.obj
 0001:00020946       $LN10                      10021946     acl_xinetd_cfg.obj
 0001:0002094e       $LN9                       1002194e     acl_xinetd_cfg.obj
 0001:0002095a       $LN8                       1002195a     acl_xinetd_cfg.obj
 0001:00020d35       $LN65                      10021d35     acl_xinetd_cfg.obj
 0001:00020d3d       $LN64                      10021d3d     acl_xinetd_cfg.obj
 0001:00020d61       $LN63                      10021d61     acl_xinetd_cfg.obj
 0001:00020d66       $LN62                      10021d66     acl_xinetd_cfg.obj
 0001:00020d6c       $LN61                      10021d6c     acl_xinetd_cfg.obj
 0001:00020d73       ___nv_pair_free            10021d73 f   acl_xinetd_cfg.obj
 0001:00020df1       ___nv_pair_new             10021df1 f   acl_xinetd_cfg.obj
 0001:00021091       $LN47                      10022091     acl_xinetd_cfg.obj
 0001:00021099       $LN46                      10022099     acl_xinetd_cfg.obj
 0001:000210b1       $LN45                      100220b1     acl_xinetd_cfg.obj
 0001:000210b6       $LN44                      100220b6     acl_xinetd_cfg.obj
 0001:000210bd       ___nv_pair_append          100220bd f   acl_xinetd_cfg.obj
 0001:0002119d       $LN11                      1002219d     acl_xinetd_cfg.obj
 0001:000211a5       $LN10                      100221a5     acl_xinetd_cfg.obj
 0001:000211bd       $LN9                       100221bd     acl_xinetd_cfg.obj
 0001:000211c2       $LN8                       100221c2     acl_xinetd_cfg.obj
 0001:000211c9       ___xinetd_cfg_parse        100221c9 f   acl_xinetd_cfg.obj
 0001:000214cd       $LN46                      100224cd     acl_xinetd_cfg.obj
 0001:000214d5       $LN45                      100224d5     acl_xinetd_cfg.obj
 0001:000214ed       $LN44                      100224ed     acl_xinetd_cfg.obj
 0001:000214f2       $LN43                      100224f2     acl_xinetd_cfg.obj
 0001:000215a9       $LN12                      100225a9     acl_xinetd_params.obj
 0001:000215b1       $LN11                      100225b1     acl_xinetd_params.obj
 0001:000215c9       $LN10                      100225c9     acl_xinetd_params.obj
 0001:000215cf       $LN9                       100225cf     acl_xinetd_params.obj
 0001:00021684       $LN12                      10022684     acl_xinetd_params.obj
 0001:0002168c       $LN11                      1002268c     acl_xinetd_params.obj
 0001:000216a4       $LN10                      100226a4     acl_xinetd_params.obj
 0001:000216aa       $LN9                       100226aa     acl_xinetd_params.obj
 0001:0002175f       $LN12                      1002275f     acl_xinetd_params.obj
 0001:00021767       $LN11                      10022767     acl_xinetd_params.obj
 0001:0002177f       $LN10                      1002277f     acl_xinetd_params.obj
 0001:00021785       $LN9                       10022785     acl_xinetd_params.obj
 0001:0002183a       $LN12                      1002283a     acl_xinetd_params.obj
 0001:00021842       $LN11                      10022842     acl_xinetd_params.obj
 0001:0002185a       $LN10                      1002285a     acl_xinetd_params.obj
 0001:00021860       $LN9                       10022860     acl_xinetd_params.obj
 0001:00021865       ___init_conf_int_vars      10022865 f   acl_xinetd_params.obj
 0001:000218ac       ___init_conf_int64_vars    100228ac f   acl_xinetd_params.obj
 0001:000218fc       ___init_conf_str_vars      100228fc f   acl_xinetd_params.obj
 0001:0002195c       ___init_conf_bool_vars     1002295c f   acl_xinetd_params.obj
 0001:000219bc       ___update_conf_int_vars    100229bc f   acl_xinetd_params.obj
 0001:00021a2f       ___update_conf_int64_vars  10022a2f f   acl_xinetd_params.obj
 0001:00021a9b       ___update_conf_str_vars    10022a9b f   acl_xinetd_params.obj
 0001:00021b40       ___update_conf_bool_vars   10022b40 f   acl_xinetd_params.obj
 0001:00021edd       _time                      10022edd f   acl_fhandle.obj
 0001:00022712       $LN41                      10023712     acl_fhandle.obj
 0001:0002271a       $LN40                      1002371a     acl_fhandle.obj
 0001:00022732       $LN39                      10023732     acl_fhandle.obj
 0001:0002273c       $LN38                      1002373c     acl_fhandle.obj
 0001:00022943       ___fhandle_alloc           10023943 f   acl_fhandle.obj
 0001:000229e2       ___fhandle_free            100239e2 f   acl_fhandle.obj
 0001:00022a33       ___fhandle_close           10023a33 f   acl_fhandle.obj
 0001:00022abf       ___fhandle_close2          10023abf f   acl_fhandle.obj
 0001:00022b7d       _stat                      10023b7d f   acl_make_dirs.obj
 0001:00022ebe       $LN38                      10023ebe     acl_make_dirs.obj
 0001:00022ec6       $LN37                      10023ec6     acl_make_dirs.obj
 0001:00022ede       $LN36                      10023ede     acl_make_dirs.obj
 0001:00022ee2       $LN35                      10023ee2     acl_make_dirs.obj
 0001:000234a8       $LN9                       100244a8     acl_scan_dir.obj
 0001:000234b0       $LN8                       100244b0     acl_scan_dir.obj
 0001:000234bc       $LN7                       100244bc     acl_scan_dir.obj
 0001:000235fd       $LN16                      100245fd     acl_scan_dir.obj
 0001:00023605       $LN15                      10024605     acl_scan_dir.obj
 0001:00023611       $LN14                      10024611     acl_scan_dir.obj
 0001:00023868       $LN16                      10024868     acl_scan_dir.obj
 0001:00023870       $LN15                      10024870     acl_scan_dir.obj
 0001:00023894       $LN14                      10024894     acl_scan_dir.obj
 0001:00023899       $LN13                      10024899     acl_scan_dir.obj
 0001:0002389e       $LN12                      1002489e     acl_scan_dir.obj
 0001:00023af6       $LN23                      10024af6     acl_scan_dir.obj
 0001:00023afe       $LN22                      10024afe     acl_scan_dir.obj
 0001:00023b22       $LN21                      10024b22     acl_scan_dir.obj
 0001:00023b27       $LN20                      10024b27     acl_scan_dir.obj
 0001:00023b2c       $LN19                      10024b2c     acl_scan_dir.obj
 0001:00023ef1       $LN30                      10024ef1     acl_scan_dir.obj
 0001:00023ef9       $LN29                      10024ef9     acl_scan_dir.obj
 0001:00023f1d       $LN28                      10024f1d     acl_scan_dir.obj
 0001:00023f22       $LN27                      10024f22     acl_scan_dir.obj
 0001:00023f27       $LN26                      10024f27     acl_scan_dir.obj
 0001:000240e4       $LN16                      100250e4     acl_scan_dir.obj
 0001:000240ec       $LN15                      100250ec     acl_scan_dir.obj
 0001:00024104       $LN14                      10025104     acl_scan_dir.obj
 0001:00024109       $LN13                      10025109     acl_scan_dir.obj
 0001:000246e2       _free_vstring              100256e2 f   acl_env.obj
 0001:000248ff       _get_tls_buf               100258ff f   acl_process.obj
 0001:00024e0b       $LN36                      10025e0b     acl_sys_file.obj
 0001:00024e13       $LN35                      10025e13     acl_sys_file.obj
 0001:00024e4f       $LN34                      10025e4f     acl_sys_file.obj
 0001:00024e57       $LN33                      10025e57     acl_sys_file.obj
 0001:00024e59       $LN32                      10025e59     acl_sys_file.obj
 0001:00024e64       $LN31                      10025e64     acl_sys_file.obj
 0001:00024e6f       $LN30                      10025e6f     acl_sys_file.obj
 0001:000250d5       $LN12                      100260d5     acl_sys_file.obj
 0001:000250dd       $LN11                      100260dd     acl_sys_file.obj
 0001:000250e9       $LN10                      100260e9     acl_sys_file.obj
 0001:00025154       $LN6                       10026154     acl_sys_file.obj
 0001:0002515c       $LN5                       1002615c     acl_sys_file.obj
 0001:00025168       $LN4                       10026168     acl_sys_file.obj
 0001:000251d6       $LN6                       100261d6     acl_sys_file.obj
 0001:000251de       $LN5                       100261de     acl_sys_file.obj
 0001:000251ea       $LN4                       100261ea     acl_sys_file.obj
 0001:000252af       $LN11                      100262af     acl_sys_file.obj
 0001:000252b7       $LN10                      100262b7     acl_sys_file.obj
 0001:000252c3       $LN9                       100262c3     acl_sys_file.obj
 0001:0002536b       $LN6                       1002636b     acl_sys_file.obj
 0001:00025373       $LN5                       10026373     acl_sys_file.obj
 0001:0002537f       $LN4                       1002637f     acl_sys_file.obj
 0001:00025410       $LN6                       10026410     acl_sys_file.obj
 0001:00025418       $LN5                       10026418     acl_sys_file.obj
 0001:00025424       $LN4                       10026424     acl_sys_file.obj
 0001:0002542a       _mktime                    1002642a f   acl_sys_file.obj
 0001:000255bb       $LN10                      100265bb     acl_sys_socket.obj
 0001:000255c3       $LN9                       100265c3     acl_sys_socket.obj
 0001:000255db       $LN8                       100265db     acl_sys_socket.obj
 0001:000255e0       $LN7                       100265e0     acl_sys_socket.obj
 0001:000256b1       $LN7                       100266b1     acl_sys_socket.obj
 0001:000256b9       $LN6                       100266b9     acl_sys_socket.obj
 0001:000256c5       $LN5                       100266c5     acl_sys_socket.obj
 0001:00025ae5       $LN16                      10026ae5     gettimeofday.obj
 0001:00025aed       $LN15                      10026aed     gettimeofday.obj
 0001:00025b1d       $LN14                      10026b1d     gettimeofday.obj
 0001:00025b21       $LN13                      10026b21     gettimeofday.obj
 0001:00025b27       $LN12                      10026b27     gettimeofday.obj
 0001:00025b2a       $LN11                      10026b2a     gettimeofday.obj
 0001:00025b2d       _time                      10026b2d f   gettimeofday.obj
 0001:00025b4e       _dummy                     10026b4e f   gettimeofday.obj
 0001:00025b53       _free_tls                  10026b53 f   gettimeofday.obj
 0001:00025b79       _main_free_tls             10026b79 f   gettimeofday.obj
 0001:00025bb5       _once_init                 10026bb5 f   gettimeofday.obj
 0001:00025c02       _tls_calloc                10026c02 f   gettimeofday.obj
 0001:00026b93       _path_str_strip            10027b93 f   acl_mystring.obj
 0001:00026c3f       _x64toa                    10027c3f f   acl_mystring.obj
 0001:00026f9d       _mktime                    10027f9d f   acl_str2time.obj
 0001:00027072       $LN7                       10028072     acl_str2time.obj
 0001:0002707a       $LN6                       1002807a     acl_str2time.obj
 0001:00027086       $LN5                       10028086     acl_str2time.obj
 0001:00027a23       $LN11                      10028a23     acl_allocator.obj
 0001:00027a2b       $LN10                      10028a2b     acl_allocator.obj
 0001:00027a37       $LN9                       10028a37     acl_allocator.obj
 0001:00027cb8       $LN7                       10028cb8     acl_allocator.obj
 0001:00027cc0       $LN6                       10028cc0     acl_allocator.obj
 0001:00027ccc       $LN5                       10028ccc     acl_allocator.obj
 0001:00027d83       $LN8                       10028d83     acl_allocator.obj
 0001:00027d8b       $LN7                       10028d8b     acl_allocator.obj
 0001:00027d97       $LN6                       10028d97     acl_allocator.obj
 0001:00027e25       $LN7                       10028e25     acl_allocator.obj
 0001:00027e2d       $LN6                       10028e2d     acl_allocator.obj
 0001:00027e39       $LN5                       10028e39     acl_allocator.obj
 0001:00027ee2       _pool_create               10028ee2 f   acl_allocator.obj
 0001:00027f11       _pool_destroy              10028f11 f   acl_allocator.obj
 0001:00027f3e       _pool_clean                10028f3e f   acl_allocator.obj
 0001:00027f6b       _mem_alloc                 10028f6b f   acl_allocator.obj
 0001:00027f9a       _mem_free                  10028f9a f   acl_allocator.obj
 0001:00027fc7       _pool_ifused               10028fc7 f   acl_allocator.obj
 0001:00027ff6       _pool_inuse_count          10028ff6 f   acl_allocator.obj
 0001:00028025       _pool_inuse_size           10029025 f   acl_allocator.obj
 0001:00028054       _pool_total_allocated      10029054 f   acl_allocator.obj
 0001:00028083       _memBufFindSizeType        10029083 f   acl_allocator.obj
 0001:00028367       $LN7                       10029367     acl_dbuf_pool.obj
 0001:0002836f       $LN6                       1002936f     acl_dbuf_pool.obj
 0001:0002837b       $LN5                       1002937b     acl_dbuf_pool.obj
 0001:0002875b       $LN22                      1002975b     acl_dbuf_pool.obj
 0001:00028783       _acl_dbuf_alloc            10029783 f   acl_dbuf_pool.obj
 0001:0002880d       _acl_dbuf_free             1002980d f   acl_dbuf_pool.obj
 0001:0002966a       $LN11                      1002a66a     acl_malloc_glue.obj
 0001:00029672       $LN10                      1002a672     acl_malloc_glue.obj
 0001:0002967e       $LN9                       1002a67e     acl_malloc_glue.obj
 0001:00029a22       $LN8                       1002aa22     acl_malloc_glue.obj
 0001:00029a2a       $LN7                       1002aa2a     acl_malloc_glue.obj
 0001:00029a36       $LN6                       1002aa36     acl_malloc_glue.obj
 0001:00029af6       $LN7                       1002aaf6     acl_malloc_glue.obj
 0001:00029afe       $LN6                       1002aafe     acl_malloc_glue.obj
 0001:00029b0a       $LN5                       1002ab0a     acl_malloc_glue.obj
 0001:00029b0e       ___mem_alloc_stat          1002ab0e f   acl_malloc_glue.obj
 0001:0002a160       _mem_slice_gc              1002b160 f   acl_mem_slice.obj
 0001:0002a241       _mem_slice_free            1002b241 f   acl_mem_slice.obj
 0001:0002a394       _main_thread_slice_free    1002b394 f   acl_mem_slice.obj
 0001:0002a3bc       _free_global_ctx           1002b3bc f   acl_mem_slice.obj
 0001:0002a403       _slice_key_init            1002b403 f   acl_mem_slice.obj
 0001:0002a466       _mem_slice_create          1002b466 f   acl_mem_slice.obj
 0001:0002a5d3       _tls_mem_free              1002b5d3 f   acl_mem_slice.obj
 0001:0002a72d       _tls_mem_alloc             1002b72d f   acl_mem_slice.obj
 0001:0002a852       _tls_mem_calloc            1002b852 f   acl_mem_slice.obj
 0001:0002a89a       _tls_mem_realloc           1002b89a f   acl_mem_slice.obj
 0001:0002aa36       _tls_mem_memdup            1002ba36 f   acl_mem_slice.obj
 0001:0002aa75       _tls_mem_strdup            1002ba75 f   acl_mem_slice.obj
 0001:0002aac9       _tls_mem_strndup           1002bac9 f   acl_mem_slice.obj
 0001:0002acfa       _mempool_malloc            1002bcfa f   acl_mempool.obj
 0001:0002ad1d       _mempool_calloc            1002bd1d f   acl_mempool.obj
 0001:0002ad6b       _mempool_realloc           1002bd6b f   acl_mempool.obj
 0001:0002ad91       _mempool_strdup            1002bd91 f   acl_mempool.obj
 0001:0002ade7       _mempool_strndup           1002bde7 f   acl_mempool.obj
 0001:0002ae6d       _mempool_memdup            1002be6d f   acl_mempool.obj
 0001:0002aeb4       _mempool_free              1002beb4 f   acl_mempool.obj
 0001:0002aed7       _mempool_malloc_with_mutex 1002bed7 f   acl_mempool.obj
 0001:0002af21       _mempool_calloc_with_mutex 1002bf21 f   acl_mempool.obj
 0001:0002af85       _mempool_realloc_with_mutex 1002bf85 f   acl_mempool.obj
 0001:0002afd2       _mempool_strdup_with_mutex 1002bfd2 f   acl_mempool.obj
 0001:0002b03e       _mempool_strndup_with_mutex 1002c03e f   acl_mempool.obj
 0001:0002b0da       _mempool_memdup_with_mutex 1002c0da f   acl_mempool.obj
 0001:0002b137       _mempool_free_with_mutex   1002c137 f   acl_mempool.obj
 0001:0002b170       _mempool_init_with_mutex   1002c170 f   acl_mempool.obj
 0001:0002b1c8       _mempool_init_no_mutex     1002c1c8 f   acl_mempool.obj
 0001:0002b1ff       _mempool_close             1002c1ff f   acl_mempool.obj
 0001:0002b37a       $LN14                      1002c37a     acl_slice.obj
 0001:0002b382       $LN13                      1002c382     acl_slice.obj
 0001:0002b38e       $LN12                      1002c38e     acl_slice.obj
 0001:0002b79a       $LN38                      1002c79a     acl_slice.obj
 0001:0002b7a2       $LN37                      1002c7a2     acl_slice.obj
 0001:0002b7ae       $LN36                      1002c7ae     acl_slice.obj
 0001:0002bc31       _slice_init                1002cc31 f   acl_slice.obj
 0001:0002bc6a       _slice3_mbuf_alloc         1002cc6a f   acl_slice.obj
 0001:0002bfae       _slice3_alloc              1002cfae f   acl_slice.obj
 0001:0002c214       _slice3_mbuf_free          1002d214 f   acl_slice.obj
 0001:0002c2fd       _slice3_free               1002d2fd f   acl_slice.obj
 0001:0002c4cb       _slice3_gc                 1002d4cb f   acl_slice.obj
 0001:0002c544       _slice3_used               1002d544 f   acl_slice.obj
 0001:0002c5a3       _slice3_destroy            1002d5a3 f   acl_slice.obj
 0001:0002c63a       _slice3_stat               1002d63a f   acl_slice.obj
 0001:0002c724       _slice3_create             1002d724 f   acl_slice.obj
 0001:0002c8b9       _slice2_mbuf_alloc         1002d8b9 f   acl_slice.obj
 0001:0002cb17       _slice2_alloc              1002db17 f   acl_slice.obj
 0001:0002cc8e       _slice2_mbuf_free          1002dc8e f   acl_slice.obj
 0001:0002cea0       _slice2_free               1002dea0 f   acl_slice.obj
 0001:0002d104       _slice2_gc                 1002e104 f   acl_slice.obj
 0001:0002d17e       _slice2_used               1002e17e f   acl_slice.obj
 0001:0002d1dc       _slice2_destroy            1002e1dc f   acl_slice.obj
 0001:0002d288       _slice2_stat               1002e288 f   acl_slice.obj
 0001:0002d324       _slice2_create             1002e324 f   acl_slice.obj
 0001:0002d43f       _slice1_mbuf_alloc         1002e43f f   acl_slice.obj
 0001:0002d677       _slice1_alloc              1002e677 f   acl_slice.obj
 0001:0002d6f9       _slice1_free               1002e6f9 f   acl_slice.obj
 0001:0002d840       _slice1_mbuf_free          1002e840 f   acl_slice.obj
 0001:0002d971       _cmp_fn                    1002e971 f   acl_slice.obj
 0001:0002d9b7       _slice1_gc                 1002e9b7 f   acl_slice.obj
 0001:0002dba0       _slice1_destroy            1002eba0 f   acl_slice.obj
 0001:0002dc61       _slice1_used               1002ec61 f   acl_slice.obj
 0001:0002dc96       _slice1_stat               1002ec96 f   acl_slice.obj
 0001:0002dd32       _slice1_create             1002ed32 f   acl_slice.obj
 0001:0002e052       _time                      1002f052 f   squid_allocator.obj
 0001:0002e11a       _memPoolInUseSize          1002f11a f   squid_allocator.obj
 0001:0002e14e       _memPoolInUseCount         1002f14e f   squid_allocator.obj
 0001:0002e17b       _memMeterSyncHWater        1002f17b f   squid_allocator.obj
 0001:0002e1cb       _toMB                      1002f1cb f   squid_allocator.obj
 0001:0002e212       _toKB                      1002f212 f   squid_allocator.obj
 0001:0002e222       _memPoolDescribe           1002f222 f   squid_allocator.obj
 0001:0002e27d       _memPoolShrink             1002f27d f   squid_allocator.obj
 0001:0002e356       _memShrink                 1002f356 f   squid_allocator.obj
 0001:0002e4f6       $LN15                      1002f4f6     squid_allocator.obj
 0001:0002e4fe       $LN14                      1002f4fe     squid_allocator.obj
 0001:0002e50a       $LN13                      1002f50a     squid_allocator.obj
 0001:0002e50f       _memCleanModule            1002f50f f   squid_allocator.obj
 0001:0002e5ef       $LN12                      1002f5ef     squid_allocator.obj
 0001:0002e5f7       $LN11                      1002f5f7     squid_allocator.obj
 0001:0002e603       $LN10                      1002f603     squid_allocator.obj
 0001:0002e608       _memConfigure              1002f608 f   squid_allocator.obj
 0001:0002e6ac       _memPoolCreate             1002f6ac f   squid_allocator.obj
 0001:0002e700       _memPoolDestroy            1002f700 f   squid_allocator.obj
 0001:0002e7cc       $LN9                       1002f7cc     squid_allocator.obj
 0001:0002e7d4       $LN8                       1002f7d4     squid_allocator.obj
 0001:0002e7e0       $LN7                       1002f7e0     squid_allocator.obj
 0001:0002e7e5       _memPoolAlloc              1002f7e5 f   squid_allocator.obj
 0001:0002eb2e       _memPoolFree               1002fb2e f   squid_allocator.obj
 0001:0002ece4       _memPoolWasUsed            1002fce4 f   squid_allocator.obj
 0001:0002ed2f       _memTotalAllocated         1002fd2f f   squid_allocator.obj
 0001:0002edd1       $LN8                       1002fdd1     squid_allocator_tools.obj
 0001:0002edd9       $LN7                       1002fdd9     squid_allocator_tools.obj
 0001:0002ede5       $LN6                       1002fde5     squid_allocator_tools.obj
 0001:0002efa2       _vstring_extend            1002ffa2 f   vstring_pool.obj
 0001:0002f045       _vstring_buf_get_ready     10030045 f   vstring_pool.obj
 0001:0002f05e       _vstring_buf_put_ready     1003005e f   vstring_pool.obj
 0001:0002f078       _vstring_buf_space         10030078 f   vstring_pool.obj
 0001:0002f0c5       _after_alloc_fn            100300c5 f   vstring_pool.obj
 0001:0002f13a       _before_free_fn            1003013a f   vstring_pool.obj
 0001:0002f3b2       _acl_debug_malloc          100303b2 f   acl_debug_malloc.obj
 0001:0002f512       $LN23                      10030512     acl_debug_malloc.obj
 0001:0002f51a       $LN22                      1003051a     acl_debug_malloc.obj
 0001:0002f526       $LN21                      10030526     acl_debug_malloc.obj
 0001:0002f52a       _acl_debug_calloc          1003052a f   acl_debug_malloc.obj
 0001:0002f6b2       $LN27                      100306b2     acl_debug_malloc.obj
 0001:0002f6ba       $LN26                      100306ba     acl_debug_malloc.obj
 0001:0002f6c6       $LN25                      100306c6     acl_debug_malloc.obj
 0001:0002f6ca       _acl_debug_realloc         100306ca f   acl_debug_malloc.obj
 0001:0002f90a       $LN35                      1003090a     acl_debug_malloc.obj
 0001:0002f912       $LN34                      10030912     acl_debug_malloc.obj
 0001:0002f91e       $LN33                      1003091e     acl_debug_malloc.obj
 0001:0002f922       _acl_debug_strdup          10030922 f   acl_debug_malloc.obj
 0001:0002fab2       $LN27                      10030ab2     acl_debug_malloc.obj
 0001:0002faba       $LN26                      10030aba     acl_debug_malloc.obj
 0001:0002fac6       $LN25                      10030ac6     acl_debug_malloc.obj
 0001:0002faca       _acl_debug_strndup         10030aca f   acl_debug_malloc.obj
 0001:0002fcd6       $LN33                      10030cd6     acl_debug_malloc.obj
 0001:0002fcde       $LN32                      10030cde     acl_debug_malloc.obj
 0001:0002fcea       $LN31                      10030cea     acl_debug_malloc.obj
 0001:0002fcee       _acl_debug_memdup          10030cee f   acl_debug_malloc.obj
 0001:0002fe7e       $LN27                      10030e7e     acl_debug_malloc.obj
 0001:0002fe86       $LN26                      10030e86     acl_debug_malloc.obj
 0001:0002fe92       $LN25                      10030e92     acl_debug_malloc.obj
 0001:0002fe96       _acl_debug_free            10030e96 f   acl_debug_malloc.obj
 0001:0002ffe2       $LN18                      10030fe2     acl_debug_malloc.obj
 0001:0002ffea       $LN17                      10030fea     acl_debug_malloc.obj
 0001:0002fff6       $LN16                      10030ff6     acl_debug_malloc.obj
 0001:0002fffa       _walk_fn                   10030ffa f   acl_debug_malloc.obj
 0001:00030040       ___free_fn                 10031040 f   acl_debug_malloc.obj
 0001:00030061       _debug_dump_atexit         10031061 f   acl_debug_malloc.obj
 0001:000309c8       ___def_hash_fn             100319c8 f   debug_htable.obj
 0001:00030a53       _debug_htable_size         10031a53 f   debug_htable.obj
 0001:00030afe       _debug_htable_grow         10031afe f   debug_htable.obj
 0001:0003108c       $LN53                      1003208c     acl_access.obj
 0001:00031094       $LN52                      10032094     acl_access.obj
 0001:000310c4       $LN51                      100320c4     acl_access.obj
 0001:000310c9       $LN50                      100320c9     acl_access.obj
 0001:000310cd       $LN49                      100320cd     acl_access.obj
 0001:000310d1       $LN48                      100320d1     acl_access.obj
 0001:000311c0       $LN10                      100321c0     acl_access.obj
 0001:000311c8       $LN9                       100321c8     acl_access.obj
 0001:000311d4       $LN8                       100321d4     acl_access.obj
 0001:000312f2       $LN16                      100322f2     acl_access.obj
 0001:000312fa       $LN15                      100322fa     acl_access.obj
 0001:00031306       $LN14                      10032306     acl_access.obj
 0001:0003131a       ___access_init             1003231a f   acl_access.obj
 0001:000313e2       $LN8                       100323e2     acl_access.obj
 0001:000313ea       $LN7                       100323ea     acl_access.obj
 0001:00031402       $LN6                       10032402     acl_access.obj
 0001:00031407       $LN5                       10032407     acl_access.obj
 0001:0003140e       ___access_cfg_out          1003240e f   acl_access.obj
 0001:00031a1a       $LN28                      10032a1a     acl_ifconf.obj
 0001:00031a22       $LN27                      10032a22     acl_ifconf.obj
 0001:00031a3a       $LN26                      10032a3a     acl_ifconf.obj
 0001:00031a3e       $LN25                      10032a3e     acl_ifconf.obj
 0001:00031b54       _ifaddrs_iter_head         10032b54 f   acl_ifconf.obj
 0001:00031baf       _ifaddrs_iter_next         10032baf f   acl_ifconf.obj
 0001:00031c0f       _ifaddrs_iter_tail         10032c0f f   acl_ifconf.obj
 0001:00031c8b       _ifaddrs_iter_prev         10032c8b f   acl_ifconf.obj
 0001:00032454       $LN12                      10033454     acl_sane_socket.obj
 0001:0003245c       $LN11                      1003345c     acl_sane_socket.obj
 0001:00032480       $LN10                      10033480     acl_sane_socket.obj
 0001:00032483       $LN9                       10033483     acl_sane_socket.obj
 0001:00032487       $LN8                       10033487     acl_sane_socket.obj
 0001:0003258c       $LN12                      1003358c     acl_sane_socket.obj
 0001:00032594       $LN11                      10033594     acl_sane_socket.obj
 0001:000325b8       $LN10                      100335b8     acl_sane_socket.obj
 0001:000325bb       $LN9                       100335bb     acl_sane_socket.obj
 0001:000325bf       $LN8                       100335bf     acl_sane_socket.obj
 0001:0003265c       $LN9                       1003365c     acl_sane_socket.obj
 0001:00032664       $LN8                       10033664     acl_sane_socket.obj
 0001:0003267c       $LN7                       1003367c     acl_sane_socket.obj
 0001:00032680       $LN6                       10033680     acl_sane_socket.obj
 0001:0003272d       $LN6                       1003372d     acl_tcp_ctl.obj
 0001:00032735       $LN5                       10033735     acl_tcp_ctl.obj
 0001:00032741       $LN4                       10033741     acl_tcp_ctl.obj
 0001:000327ee       $LN6                       100337ee     acl_tcp_ctl.obj
 0001:000327f6       $LN5                       100337f6     acl_tcp_ctl.obj
 0001:00032802       $LN4                       10033802     acl_tcp_ctl.obj
 0001:000328cf       $LN8                       100338cf     acl_tcp_ctl.obj
 0001:000328d7       $LN7                       100338d7     acl_tcp_ctl.obj
 0001:000328fb       $LN6                       100338fb     acl_tcp_ctl.obj
 0001:000328ff       $LN5                       100338ff     acl_tcp_ctl.obj
 0001:00032904       $LN4                       10033904     acl_tcp_ctl.obj
 0001:000329d1       $LN8                       100339d1     acl_tcp_ctl.obj
 0001:000329d9       $LN7                       100339d9     acl_tcp_ctl.obj
 0001:000329fd       $LN6                       100339fd     acl_tcp_ctl.obj
 0001:00032a01       $LN5                       10033a01     acl_tcp_ctl.obj
 0001:00032a06       $LN4                       10033a06     acl_tcp_ctl.obj
 0001:00032ae7       $LN9                       10033ae7     acl_tcp_ctl.obj
 0001:00032aef       $LN8                       10033aef     acl_tcp_ctl.obj
 0001:00032b07       $LN7                       10033b07     acl_tcp_ctl.obj
 0001:00032b0c       $LN6                       10033b0c     acl_tcp_ctl.obj
 0001:00032c08       $LN11                      10033c08     acl_tcp_ctl.obj
 0001:00032c10       $LN10                      10033c10     acl_tcp_ctl.obj
 0001:00032c28       $LN9                       10033c28     acl_tcp_ctl.obj
 0001:00032c2d       $LN8                       10033c2d     acl_tcp_ctl.obj
 0001:00033483       $LN13                      10034483     acl_vstream_net.obj
 0001:0003348b       $LN12                      1003448b     acl_vstream_net.obj
 0001:000334af       $LN11                      100344af     acl_vstream_net.obj
 0001:000334b2       $LN10                      100344b2     acl_vstream_net.obj
 0001:000334b6       $LN9                       100344b6     acl_vstream_net.obj
 0001:000337a8       $LN33                      100347a8     acl_vstream_net.obj
 0001:000337b0       $LN32                      100347b0     acl_vstream_net.obj
 0001:000337c8       $LN31                      100347c8     acl_vstream_net.obj
 0001:000337cc       $LN30                      100347cc     acl_vstream_net.obj
 0001:00033c57       $LN30                      10034c57     acl_inet_listen.obj
 0001:00033c5f       $LN29                      10034c5f     acl_inet_listen.obj
 0001:00033c9b       $LN28                      10034c9b     acl_inet_listen.obj
 0001:00033ca0       $LN27                      10034ca0     acl_inet_listen.obj
 0001:00033ca3       $LN26                      10034ca3     acl_inet_listen.obj
 0001:00033ca9       $LN25                      10034ca9     acl_inet_listen.obj
 0001:00033cae       $LN24                      10034cae     acl_inet_listen.obj
 0001:00033dcc       $LN10                      10034dcc     acl_inet_listen.obj
 0001:00033dd4       $LN9                       10034dd4     acl_inet_listen.obj
 0001:00033dec       $LN8                       10034dec     acl_inet_listen.obj
 0001:00033df5       $LN7                       10034df5     acl_inet_listen.obj
 0001:00033fdf       $LN12                      10034fdf     acl_sane_accept.obj
 0001:00033fe7       $LN11                      10034fe7     acl_sane_accept.obj
 0001:00033fff       $LN10                      10034fff     acl_sane_accept.obj
 0001:00034003       $LN9                       10035003     acl_sane_accept.obj
 0001:0003405c       $LN5                       1003505c     acl_inet_connect.obj
 0001:00034064       $LN4                       10035064     acl_inet_connect.obj
 0001:00034070       $LN3                       10035070     acl_inet_connect.obj
 0001:00034380       $LN20                      10035380     acl_inet_connect.obj
 0001:00034388       $LN19                      10035388     acl_inet_connect.obj
 0001:000343a0       $LN18                      100353a0     acl_inet_connect.obj
 0001:000343a4       $LN17                      100353a4     acl_inet_connect.obj
 0001:000343ab       _inet_connect_one          100353ab f   acl_inet_connect.obj
 0001:0003462b       $LN19                      1003562b     acl_inet_connect.obj
 0001:00034633       $LN18                      10035633     acl_inet_connect.obj
 0001:00034657       $LN17                      10035657     acl_inet_connect.obj
 0001:0003465b       $LN16                      1003565b     acl_inet_connect.obj
 0001:0003465f       $LN15                      1003565f     acl_inet_connect.obj
 0001:00034731       $LN8                       10035731     acl_sane_connect.obj
 0001:00034739       $LN7                       10035739     acl_sane_connect.obj
 0001:00034751       $LN6                       10035751     acl_sane_connect.obj
 0001:00034756       $LN5                       10035756     acl_sane_connect.obj
 0001:00034875       $LN12                      10035875     acl_timed_connect.obj
 0001:0003487d       $LN11                      1003587d     acl_timed_connect.obj
 0001:00034889       $LN10                      10035889     acl_timed_connect.obj
 0001:00034d12       $LN25                      10035d12     acl_dns.obj
 0001:00034d1a       $LN24                      10035d1a     acl_dns.obj
 0001:00034d26       $LN23                      10035d26     acl_dns.obj
 0001:00035348       $LN55                      10036348     acl_dns.obj
 0001:00035350       $LN54                      10036350     acl_dns.obj
 0001:00035380       $LN53                      10036380     acl_dns.obj
 0001:00035386       $LN52                      10036386     acl_dns.obj
 0001:0003538b       $LN51                      1003638b     acl_dns.obj
 0001:00035392       $LN50                      10036392     acl_dns.obj
 0001:00035556       $LN16                      10036556     acl_dns.obj
 0001:0003555e       $LN15                      1003655e     acl_dns.obj
 0001:0003556a       $LN14                      1003656a     acl_dns.obj
 0001:000357e3       $LN31                      100367e3     acl_dns.obj
 0001:000357eb       $LN30                      100367eb     acl_dns.obj
 0001:000357f7       $LN29                      100367f7     acl_dns.obj
 0001:000358cf       _dns_stream_open           100368cf f   acl_dns.obj
 0001:000359b6       _dns_read                  100369b6 f   acl_dns.obj
 0001:00035a47       _dns_write                 10036a47 f   acl_dns.obj
 0001:00035b17       _build_dns_db              10036b17 f   acl_dns.obj
 0001:00035d7f       _dns_lookup_callback       10036d7f f   acl_dns.obj
 0001:00036257       $LN34                      10037257     acl_dns.obj
 0001:0003625f       $LN33                      1003725f     acl_dns.obj
 0001:000362bf       $LN32                      100372bf     acl_dns.obj
 0001:000362c7       $LN31                      100372c7     acl_dns.obj
 0001:000362ca       $LN30                      100372ca     acl_dns.obj
 0001:000362cf       $LN29                      100372cf     acl_dns.obj
 0001:000362d2       $LN28                      100372d2     acl_dns.obj
 0001:000362d5       $LN27                      100372d5     acl_dns.obj
 0001:000362da       $LN26                      100372da     acl_dns.obj
 0001:000362de       $LN25                      100372de     acl_dns.obj
 0001:000362e2       _dns_lookup_error          100372e2 f   acl_dns.obj
 0001:00036341       _dns_lookup_send           10037341 f   acl_dns.obj
 0001:00036459       $LN6                       10037459     acl_dns.obj
 0001:00036461       $LN5                       10037461     acl_dns.obj
 0001:0003646d       $LN4                       1003746d     acl_dns.obj
 0001:00036471       _dns_lookup_timeout        10037471 f   acl_dns.obj
 0001:0003666d       $LN19                      1003766d     acl_dns.obj
 0001:00036675       $LN18                      10037675     acl_dns.obj
 0001:00036681       $LN17                      10037681     acl_dns.obj
 0001:00036688       _cache_free_fn             10037688 f   acl_dns.obj
 0001:00036bd6       $LN10                      10037bd6     acl_netdb.obj
 0001:00036bde       $LN9                       10037bde     acl_netdb.obj
 0001:00036bea       $LN8                       10037bea     acl_netdb.obj
 0001:00036dbe       $LN14                      10037dbe     acl_netdb.obj
 0001:00036dc6       $LN13                      10037dc6     acl_netdb.obj
 0001:00036dd2       $LN12                      10037dd2     acl_netdb.obj
 0001:0003709e       $LN23                      1003809e     acl_netdb.obj
 0001:000370a6       $LN22                      100380a6     acl_netdb.obj
 0001:000370b2       $LN21                      100380b2     acl_netdb.obj
 0001:0003757a       $LN56                      1003857a     acl_netdb.obj
 0001:00037582       $LN55                      10038582     acl_netdb.obj
 0001:0003759a       $LN54                      1003859a     acl_netdb.obj
 0001:0003759e       $LN53                      1003859e     acl_netdb.obj
 0001:000375f8       _free_dns_db               100385f8 f   acl_netdb.obj
 0001:00037621       _netdb_iter_head           10038621 f   acl_netdb.obj
 0001:0003764a       _netdb_iter_next           1003864a f   acl_netdb.obj
 0001:00037673       _netdb_iter_tail           10038673 f   acl_netdb.obj
 0001:0003769c       _netdb_iter_prev           1003869c f   acl_netdb.obj
 0001:000376c5       _netdb_iter_info           100386c5 f   acl_netdb.obj
 0001:000376eb       _time                      100386eb f   acl_netdb_cache.obj
 0001:00037ab0       $LN30                      10038ab0     acl_netdb_cache.obj
 0001:00037ab8       $LN29                      10038ab8     acl_netdb_cache.obj
 0001:00037ac4       $LN28                      10038ac4     acl_netdb_cache.obj
 0001:00037d10       $LN22                      10038d10     acl_netdb_cache.obj
 0001:00037d18       $LN21                      10038d18     acl_netdb_cache.obj
 0001:00037d24       $LN20                      10038d24     acl_netdb_cache.obj
 0001:00037e7a       $LN9                       10038e7a     acl_netdb_cache.obj
 0001:00037e82       $LN8                       10038e82     acl_netdb_cache.obj
 0001:00037e8e       $LN7                       10038e8e     acl_netdb_cache.obj
 0001:00037e92       _cache_lock                10038e92 f   acl_netdb_cache.obj
 0001:00037f26       $LN6                       10038f26     acl_netdb_cache.obj
 0001:00037f2e       $LN5                       10038f2e     acl_netdb_cache.obj
 0001:00037f3a       $LN4                       10038f3a     acl_netdb_cache.obj
 0001:00037f3e       _cache_trylock             10038f3e f   acl_netdb_cache.obj
 0001:00037f72       _cache_unlock              10038f72 f   acl_netdb_cache.obj
 0001:00038006       $LN6                       10039006     acl_netdb_cache.obj
 0001:0003800e       $LN5                       1003900e     acl_netdb_cache.obj
 0001:0003801a       $LN4                       1003901a     acl_netdb_cache.obj
 0001:0003801e       _free_cache_fn             1003901e f   acl_netdb_cache.obj
 0001:0003808e       _cache_timer_fn            1003908e f   acl_netdb_cache.obj
 0001:00038146       $LN11                      10039146     acl_netdb_cache.obj
 0001:0003814e       $LN10                      1003914e     acl_netdb_cache.obj
 0001:0003815a       $LN9                       1003915a     acl_netdb_cache.obj
 0001:0003815f       _time                      1003915f f   acl_res.obj
 0001:0003864b       $LN22                      1003964b     acl_res.obj
 0001:00038653       $LN21                      10039653     acl_res.obj
 0001:00038677       $LN20                      10039677     acl_res.obj
 0001:0003867d       $LN19                      1003967d     acl_res.obj
 0001:00038685       $LN18                      10039685     acl_res.obj
 0001:0003871f       _udp_res_lookup            1003971f f   acl_res.obj
 0001:00038893       $LN9                       10039893     acl_res.obj
 0001:0003889b       $LN8                       1003989b     acl_res.obj
 0001:000388a7       $LN7                       100398a7     acl_res.obj
 0001:000388ac       _tcp_res_lookup            100398ac f   acl_res.obj
 0001:00038c1c       $LN54                      10039c1c     acl_res.obj
 0001:00038c24       $LN53                      10039c24     acl_res.obj
 0001:00038c54       $LN52                      10039c54     acl_res.obj
 0001:00038c56       $LN51                      10039c56     acl_res.obj
 0001:00038c5a       $LN50                      10039c5a     acl_res.obj
 0001:00038c5f       $LN49                      10039c5f     acl_res.obj
 0001:00038c64       _res_lookup                10039c64 f   acl_res.obj
 0001:00038d83       $LN11                      10039d83     res_util.obj
 0001:00038d8b       $LN10                      10039d8b     res_util.obj
 0001:00038da3       $LN9                       10039da3     res_util.obj
 0001:00038da6       $LN8                       10039da6     res_util.obj
 0001:00038f4f       $LN12                      10039f4f     rfc1035.obj
 0001:00038f57       $LN11                      10039f57     rfc1035.obj
 0001:00038f63       $LN10                      10039f63     rfc1035.obj
 0001:00039109       $LN12                      1003a109     rfc1035.obj
 0001:00039111       $LN11                      1003a111     rfc1035.obj
 0001:0003911d       $LN10                      1003a11d     rfc1035.obj
 0001:00039183       $LN5                       1003a183     rfc1035.obj
 0001:0003918b       $LN4                       1003a18b     rfc1035.obj
 0001:00039197       $LN3                       1003a197     rfc1035.obj
 0001:00039495       $LN39                      1003a495     rfc1035.obj
 0001:0003949d       $LN38                      1003a49d     rfc1035.obj
 0001:000394a9       $LN37                      1003a4a9     rfc1035.obj
 0001:00039a5e       $LN25                      1003aa5e     rfc1035.obj
 0001:00039a66       $LN24                      1003aa66     rfc1035.obj
 0001:00039a8a       $LN23                      1003aa8a     rfc1035.obj
 0001:00039a8e       $LN22                      1003aa8e     rfc1035.obj
 0001:00039a91       $LN21                      1003aa91     rfc1035.obj
 0001:00039a93       _rfc1035HeaderPack         1003aa93 f   rfc1035.obj
 0001:00039d07       $LN7                       1003ad07     rfc1035.obj
 0001:00039d0f       $LN6                       1003ad0f     rfc1035.obj
 0001:00039d1b       $LN5                       1003ad1b     rfc1035.obj
 0001:00039d1d       _rfc1035LabelPack          1003ad1d f   rfc1035.obj
 0001:00039dfd       _rfc1035NamePack           1003adfd f   rfc1035.obj
 0001:00039f0d       $LN12                      1003af0d     rfc1035.obj
 0001:00039f15       $LN11                      1003af15     rfc1035.obj
 0001:00039f21       $LN10                      1003af21     rfc1035.obj
 0001:00039f25       _rfc1035QuestionPack       1003af25 f   rfc1035.obj
 0001:0003a011       $LN6                       1003b011     rfc1035.obj
 0001:0003a019       $LN5                       1003b019     rfc1035.obj
 0001:0003a025       $LN4                       1003b025     rfc1035.obj
 0001:0003a027       _rfc1035HeaderUnpack       1003b027 f   rfc1035.obj
 0001:0003a2ff       $LN8                       1003b2ff     rfc1035.obj
 0001:0003a307       $LN7                       1003b307     rfc1035.obj
 0001:0003a313       $LN6                       1003b313     rfc1035.obj
 0001:0003a315       _rfc1035NameUnpack         1003b315 f   rfc1035.obj
 0001:0003a559       $LN26                      1003b559     rfc1035.obj
 0001:0003a561       $LN25                      1003b561     rfc1035.obj
 0001:0003a579       $LN24                      1003b579     rfc1035.obj
 0001:0003a57d       $LN23                      1003b57d     rfc1035.obj
 0001:0003a57f       _rfc1035RRUnpack           1003b57f f   rfc1035.obj
 0001:0003a88f       $LN20                      1003b88f     rfc1035.obj
 0001:0003a897       $LN19                      1003b897     rfc1035.obj
 0001:0003a8bb       $LN18                      1003b8bb     rfc1035.obj
 0001:0003a8c5       $LN17                      1003b8c5     rfc1035.obj
 0001:0003a8c7       $LN16                      1003b8c7     rfc1035.obj
 0001:0003a8c9       _rfc1035SetErrno           1003b8c9 f   rfc1035.obj
 0001:0003a8eb       _rfc1035RRDestroy          1003b8eb f   rfc1035.obj
 0001:0003a9ba       _rfc1035QueryUnpack        1003b9ba f   rfc1035.obj
 0001:0003aad6       $LN7                       1003bad6     rfc1035.obj
 0001:0003aade       $LN6                       1003bade     rfc1035.obj
 0001:0003aaea       $LN5                       1003baea     rfc1035.obj
 0001:0003aaec       _rfc1035RRPack             1003baec f   rfc1035.obj
 0001:0003ad24       $LN12                      1003bd24     rfc1035.obj
 0001:0003ad2c       $LN11                      1003bd2c     rfc1035.obj
 0001:0003ad44       $LN10                      1003bd44     rfc1035.obj
 0001:0003ad46       $LN9                       1003bd46     rfc1035.obj
 0001:0003b1b5       $LN17                      1003c1b5     acl_pthread.obj
 0001:0003b1bd       $LN16                      1003c1bd     acl_pthread.obj
 0001:0003b1d5       $LN15                      1003c1d5     acl_pthread.obj
 0001:0003b1d9       $LN14                      1003c1d9     acl_pthread.obj
 0001:0003b572       $LN20                      1003c572     acl_pthread.obj
 0001:0003b57a       $LN19                      1003c57a     acl_pthread.obj
 0001:0003b592       $LN18                      1003c592     acl_pthread.obj
 0001:0003b596       $LN17                      1003c596     acl_pthread.obj
 0001:0003b641       $LN8                       1003c641     acl_pthread.obj
 0001:0003b649       $LN7                       1003c649     acl_pthread.obj
 0001:0003b655       $LN6                       1003c655     acl_pthread.obj
 0001:0003b76d       $LN11                      1003c76d     acl_pthread.obj
 0001:0003b775       $LN10                      1003c775     acl_pthread.obj
 0001:0003b78d       $LN9                       1003c78d     acl_pthread.obj
 0001:0003b791       $LN8                       1003c791     acl_pthread.obj
 0001:0003ba43       $LN12                      1003ca43     acl_pthread.obj
 0001:0003ba4b       $LN11                      1003ca4b     acl_pthread.obj
 0001:0003ba57       $LN10                      1003ca57     acl_pthread.obj
 0001:0003c022       _tls_value_list_free       1003d022 f   acl_pthread.obj
 0001:0003c07f       _acl_pthread_init_once     1003d07f f   acl_pthread.obj
 0001:0003c1d3       $LN11                      1003d1d3     acl_pthread.obj
 0001:0003c1db       $LN10                      1003d1db     acl_pthread.obj
 0001:0003c1e7       $LN9                       1003d1e7     acl_pthread.obj
 0001:0003c1eb       _tls_value_list_get        1003d1eb f   acl_pthread.obj
 0001:0003c245       _tls_value_list_on_free    1003d245 f   acl_pthread.obj
 0001:0003c263       _RunThreadWrap@4           1003d263 f   acl_pthread.obj
 0001:0003c40f       $LN16                      1003d40f     acl_pthread.obj
 0001:0003c417       $LN15                      1003d417     acl_pthread.obj
 0001:0003c423       $LN14                      1003d423     acl_pthread.obj
 0001:0003c427       _pthread_atexit_done       1003d427 f   acl_pthread.obj
 0001:0003c4a7       _pthread_atexit_init       1003d4a7 f   acl_pthread.obj
 0001:0003c4c4       _tls_ctx_free              1003d4c4 f   acl_pthread.obj
 0001:0003c55e       _main_tls_ctx_free         1003d55e f   acl_pthread.obj
 0001:0003c57f       _dummy_free                1003d57f f   acl_pthread.obj
 0001:0003c584       _tls_ctx_once_init         1003d584 f   acl_pthread.obj
 0001:0003c6c1       $LN8                       1003d6c1     acl_pthread_cond.obj
 0001:0003c6c9       $LN7                       1003d6c9     acl_pthread_cond.obj
 0001:0003c6d5       $LN6                       1003d6d5     acl_pthread_cond.obj
 0001:0003c7b0       $LN8                       1003d7b0     acl_pthread_cond.obj
 0001:0003c7b8       $LN7                       1003d7b8     acl_pthread_cond.obj
 0001:0003c7d0       $LN6                       1003d7d0     acl_pthread_cond.obj
 0001:0003c7d4       $LN5                       1003d7d4     acl_pthread_cond.obj
 0001:0003c93a       $LN8                       1003d93a     acl_pthread_cond.obj
 0001:0003c942       $LN7                       1003d942     acl_pthread_cond.obj
 0001:0003c94e       $LN6                       1003d94e     acl_pthread_cond.obj
 0001:0003ca69       $LN14                      1003da69     acl_pthread_cond.obj
 0001:0003ca71       $LN13                      1003da71     acl_pthread_cond.obj
 0001:0003ca7d       $LN12                      1003da7d     acl_pthread_cond.obj
 0001:0003cc20       $LN12                      1003dc20     acl_pthread_cond.obj
 0001:0003cc28       $LN11                      1003dc28     acl_pthread_cond.obj
 0001:0003cc40       $LN10                      1003dc40     acl_pthread_cond.obj
 0001:0003cc43       $LN9                       1003dc43     acl_pthread_cond.obj
 0001:0003cdc6       $LN11                      1003ddc6     acl_pthread_mutex.obj
 0001:0003cdce       $LN10                      1003ddce     acl_pthread_mutex.obj
 0001:0003cde6       $LN9                       1003dde6     acl_pthread_mutex.obj
 0001:0003cdea       $LN8                       1003ddea     acl_pthread_mutex.obj
 0001:0003cec5       $LN8                       1003dec5     acl_pthread_mutex.obj
 0001:0003cecd       $LN7                       1003decd     acl_pthread_mutex.obj
 0001:0003cee5       $LN6                       1003dee5     acl_pthread_mutex.obj
 0001:0003cee9       $LN5                       1003dee9     acl_pthread_mutex.obj
 0001:0003cfc0       $LN8                       1003dfc0     acl_pthread_mutex.obj
 0001:0003cfc8       $LN7                       1003dfc8     acl_pthread_mutex.obj
 0001:0003cfe0       $LN6                       1003dfe0     acl_pthread_mutex.obj
 0001:0003cfe4       $LN5                       1003dfe4     acl_pthread_mutex.obj
 0001:0003d16f       $LN16                      1003e16f     acl_pthread_mutex.obj
 0001:0003d177       $LN15                      1003e177     acl_pthread_mutex.obj
 0001:0003d183       $LN14                      1003e183     acl_pthread_mutex.obj
 0001:0003d2c8       $LN20                      1003e2c8     acl_pthread_mutex.obj
 0001:0003d2d0       $LN19                      1003e2d0     acl_pthread_mutex.obj
 0001:0003d2dc       $LN18                      1003e2dc     acl_pthread_mutex.obj
 0001:0003d389       $LN12                      1003e389     acl_pthread_mutex.obj
 0001:0003d391       $LN11                      1003e391     acl_pthread_mutex.obj
 0001:0003d39d       $LN10                      1003e39d     acl_pthread_mutex.obj
 0001:0003d4c6       $LN11                      1003e4c6     acl_pthread_mutex.obj
 0001:0003d4ce       $LN10                      1003e4ce     acl_pthread_mutex.obj
 0001:0003d4e6       $LN9                       1003e4e6     acl_pthread_mutex.obj
 0001:0003d4ea       $LN8                       1003e4ea     acl_pthread_mutex.obj
 0001:0003d4f1       _free_header               1003e4f1 f   acl_pthread_mutex.obj
 0001:0003d579       $LN10                      1003e579     acl_pthread_mutex.obj
 0001:0003d581       $LN9                       1003e581     acl_pthread_mutex.obj
 0001:0003d58d       $LN8                       1003e58d     acl_pthread_mutex.obj
 0001:0003d592       _acl_thread_mutex_init_once 1003e592 f   acl_pthread_mutex.obj
 0001:0003d5af       _time                      1003e5af f   acl_pthread_pool.obj
 0001:0003d658       $LN5                       1003e658     acl_pthread_pool.obj
 0001:0003d660       $LN4                       1003e660     acl_pthread_pool.obj
 0001:0003d66c       $LN3                       1003e66c     acl_pthread_pool.obj
 0001:0003e391       $LN12                      1003f391     acl_pthread_pool.obj
 0001:0003e399       $LN11                      1003f399     acl_pthread_pool.obj
 0001:0003e3a5       $LN10                      1003f3a5     acl_pthread_pool.obj
 0001:0003e5cd       ___poller_thread           1003f5cd f   acl_pthread_pool.obj
 0001:0003e861       ___worker_thread           1003f861 f   acl_pthread_pool.obj
 0001:0003eccd       $LN36                      1003fccd     acl_pthread_pool.obj
 0001:0003ecd5       $LN35                      1003fcd5     acl_pthread_pool.obj
 0001:0003eced       $LN34                      1003fced     acl_pthread_pool.obj
 0001:0003ecf0       $LN33                      1003fcf0     acl_pthread_pool.obj
 0001:0003ecf8       ___init_workq              1003fcf8 f   acl_pthread_pool.obj
 0001:0003ed3f       ___wait_poller_exit        1003fd3f f   acl_pthread_pool.obj
 0001:0003ef33       $LN21                      1003ff33     acl_pthread_pool.obj
 0001:0003ef3b       $LN20                      1003ff3b     acl_pthread_pool.obj
 0001:0003ef53       $LN19                      1003ff53     acl_pthread_pool.obj
 0001:0003ef5b       $LN18                      1003ff5b     acl_pthread_pool.obj
 0001:0003ef5e       ___wait_worker_exit        1003ff5e f   acl_pthread_pool.obj
 0001:0003f1a4       ___workq_addone            100401a4 f   acl_pthread_pool.obj
 0001:0003f3a0       $LN20                      100403a0     acl_pthread_pool.obj
 0001:0003f3a8       $LN19                      100403a8     acl_pthread_pool.obj
 0001:0003f3b4       $LN18                      100403b4     acl_pthread_pool.obj
 0001:0003fae6       $LN11                      10040ae6     acl_sem.obj
 0001:0003faee       $LN10                      10040aee     acl_sem.obj
 0001:0003fb06       $LN9                       10040b06     acl_sem.obj
 0001:0003fb0a       $LN8                       10040b0a     acl_sem.obj
 0001:0003fc95       $LN14                      10040c95     acl_sem.obj
 0001:0003fc9d       $LN13                      10040c9d     acl_sem.obj
 0001:0003fcb5       $LN12                      10040cb5     acl_sem.obj
 0001:0003fcb9       $LN11                      10040cb9     acl_sem.obj
 0001:0003fd7c       $LN6                       10040d7c     acl_sem.obj
 0001:0003fd84       $LN5                       10040d84     acl_sem.obj
 0001:0003fd90       $LN4                       10040d90     acl_sem.obj
 0001:0003fe87       $LN8                       10040e87     acl_sem.obj
 0001:0003fe8f       $LN7                       10040e8f     acl_sem.obj
 0001:0003fea7       $LN6                       10040ea7     acl_sem.obj
 0001:0003feab       $LN5                       10040eab     acl_sem.obj
 0001:0003ffa6       $LN6                       10040fa6     acl_aqueue.obj
 0001:0003ffae       $LN5                       10040fae     acl_aqueue.obj
 0001:0003ffba       $LN4                       10040fba     acl_aqueue.obj
 0001:00040192       $LN19                      10041192     acl_aqueue.obj
 0001:0004019a       $LN18                      1004119a     acl_aqueue.obj
 0001:000401a6       $LN17                      100411a6     acl_aqueue.obj
 0001:0004040d       $LN24                      1004140d     acl_aqueue.obj
 0001:00040415       $LN23                      10041415     acl_aqueue.obj
 0001:00040439       $LN22                      10041439     acl_aqueue.obj
 0001:0004043d       $LN21                      1004143d     acl_aqueue.obj
 0001:00040445       $LN20                      10041445     acl_aqueue.obj
 0001:00040630       $LN15                      10041630     acl_aqueue.obj
 0001:00040638       $LN14                      10041638     acl_aqueue.obj
 0001:00040644       $LN13                      10041644     acl_aqueue.obj
 0001:00040673       _aqueue_wait               10041673 f   acl_aqueue.obj
 0001:000407f7       $LN12                      100417f7     acl_aqueue.obj
 0001:000407ff       $LN11                      100417ff     acl_aqueue.obj
 0001:0004080b       $LN10                      1004180b     acl_aqueue.obj
 0001:00040c25       $LN14                      10041c25     acl_msgio.obj
 0001:00040c2d       $LN13                      10041c2d     acl_msgio.obj
 0001:00040c39       $LN12                      10041c39     acl_msgio.obj
 0001:00040f53       $LN9                       10041f53     acl_msgio.obj
 0001:00040f5b       $LN8                       10041f5b     acl_msgio.obj
 0001:00040f67       $LN7                       10041f67     acl_msgio.obj
 0001:00041028       _msgio_ctx_new             10042028 f   acl_msgio.obj
 0001:000410dd       _msg_ctx_free              100420dd f   acl_msgio.obj
 0001:0004110f       _msg_call_new              1004210f f   acl_msgio.obj
 0001:00041159       _msg_call_free             10042159 f   acl_msgio.obj
 0001:0004117f       _msg_new                   1004217f f   acl_msgio.obj
 0001:000411cd       _msg_add                   100421cd f   acl_msgio.obj
 0001:000411ee       _msg_free                  100421ee f   acl_msgio.obj
 0001:00041254       _msg_append                10042254 f   acl_msgio.obj
 0001:000412e8       $LN9                       100422e8     acl_msgio.obj
 0001:000412f0       $LN8                       100422f0     acl_msgio.obj
 0001:000412fc       $LN7                       100422fc     acl_msgio.obj
 0001:00041301       _msg_clone                 10042301 f   acl_msgio.obj
 0001:00041389       $LN8                       10042389     acl_msgio.obj
 0001:00041391       $LN7                       10042391     acl_msgio.obj
 0001:0004139d       $LN6                       1004239d     acl_msgio.obj
 0001:000413a2       _msg_list_clone            100423a2 f   acl_msgio.obj
 0001:00041446       $LN9                       10042446     acl_msgio.obj
 0001:0004144e       $LN8                       1004244e     acl_msgio.obj
 0001:0004145a       $LN7                       1004245a     acl_msgio.obj
 0001:0004145f       _msg_find                  1004245f f   acl_msgio.obj
 0001:000414c3       $LN9                       100424c3     acl_msgio.obj
 0001:000414cb       $LN8                       100424cb     acl_msgio.obj
 0001:000414d7       $LN7                       100424d7     acl_msgio.obj
 0001:000414dc       _msg_unreg                 100424dc f   acl_msgio.obj
 0001:0004155c       $LN9                       1004255c     acl_msgio.obj
 0001:00041564       $LN8                       10042564     acl_msgio.obj
 0001:00041570       $LN7                       10042570     acl_msgio.obj
 0001:00041575       _msg_unreg_all             10042575 f   acl_msgio.obj
 0001:0004158a       _msgio_new                 1004258a f   acl_msgio.obj
 0001:00041636       $LN6                       10042636     acl_msgio.obj
 0001:0004163e       $LN5                       1004263e     acl_msgio.obj
 0001:0004164a       $LN4                       1004264a     acl_msgio.obj
 0001:0004164f       _msgio_reg                 1004264f f   acl_msgio.obj
 0001:0004170f       _dispatch_foreach          1004270f f   acl_msgio.obj
 0001:000417ff       $LN12                      100427ff     acl_msgio.obj
 0001:00041807       $LN11                      10042807     acl_msgio.obj
 0001:00041813       $LN10                      10042813     acl_msgio.obj
 0001:00041818       _message_dispatch          10042818 f   acl_msgio.obj
 0001:000418e5       _read_body_callback        100428e5 f   acl_msgio.obj
 0001:00041966       _read_hdr_callback         10042966 f   acl_msgio.obj
 0001:00041a2e       _async_wait_msg            10042a2e f   acl_msgio.obj
 0001:00041a6b       _sync_wait_msg             10042a6b f   acl_msgio.obj
 0001:00041bcb       $LN10                      10042bcb     acl_msgio.obj
 0001:00041bd3       $LN9                       10042bd3     acl_msgio.obj
 0001:00041bdf       $LN8                       10042bdf     acl_msgio.obj
 0001:00041be3       _free_mio_onclose          10042be3 f   acl_msgio.obj
 0001:00041c26       _free_msg_ctx_onclose      10042c26 f   acl_msgio.obj
 0001:00041c4c       _close_callback            10042c4c f   acl_msgio.obj
 0001:00041cb6       _io_timeout_callback       10042cb6 f   acl_msgio.obj
 0001:00041cfe       _accept_connection         10042cfe f   acl_msgio.obj
 0001:00041e40       _listen_callback           10042e40 f   acl_msgio.obj
 0001:00041ef0       _connect_timeout_callback  10042ef0 f   acl_msgio.obj
 0001:00041f30       _connect_callback          10042f30 f   acl_msgio.obj
 0001:00041f92       _async_connect             10042f92 f   acl_msgio.obj
 0001:00041ffa       _send_msg                  10042ffa f   acl_msgio.obj
 0001:00042126       $LN13                      10043126     acl_msgio.obj
 0001:0004212e       $LN12                      1004312e     acl_msgio.obj
 0001:00042146       $LN11                      10043146     acl_msgio.obj
 0001:0004214d       $LN10                      1004314d     acl_msgio.obj
 0001:00042a35       _node_iter_head            10043a35 f   acl_xml.obj
 0001:00042aaa       _node_iter_next            10043aaa f   acl_xml.obj
 0001:00042b15       _node_iter_tail            10043b15 f   acl_xml.obj
 0001:00042b8a       _node_iter_prev            10043b8a f   acl_xml.obj
 0001:00042bf5       _acl_xml_node_reset        10043bf5 f   acl_xml.obj
 0001:00042d85       _acl_xml_node_free         10043d85 f   acl_xml.obj
 0001:00042e13       _xml_iter_head             10043e13 f   acl_xml.obj
 0001:00042e8e       _xml_iter_next             10043e8e f   acl_xml.obj
 0001:00042fe1       _xml_iter_tail             10043fe1 f   acl_xml.obj
 0001:0004305c       _xml_iter_prev             1004405c f   acl_xml.obj
 0001:000432b0       _xml_parse_next_left_lt    100442b0 f   acl_xml_parse.obj
 0001:0004332d       _xml_parse_left_lt         1004432d f   acl_xml_parse.obj
 0001:00043342       _xml_parse_check_self_closed 10044342 f   acl_xml_parse.obj
 0001:000433ca       _xml_parse_left_gt         100443ca f   acl_xml_parse.obj
 0001:000433e9       _xml_parse_left_ch         100443e9 f   acl_xml_parse.obj
 0001:00043482       _xml_parse_left_em         10044482 f   acl_xml_parse.obj
 0001:00043637       _xml_parse_meta_tag        10044637 f   acl_xml_parse.obj
 0001:00043747       _xml_meta_attr_name        10044747 f   acl_xml_parse.obj
 0001:00043844       _xml_meta_attr_value       10044844 f   acl_xml_parse.obj
 0001:00043b5e       _xml_meta_attr             10044b5e f   acl_xml_parse.obj
 0001:00043c35       _xml_parse_meta_text       10044c35 f   acl_xml_parse.obj
 0001:000440f9       _xml_parse_meta_comment    100450f9 f   acl_xml_parse.obj
 0001:0004470d       _xml_parse_meta_end        1004570d f   acl_xml_parse.obj
 0001:00044722       _xml_parse_left_tag        10045722 f   acl_xml_parse.obj
 0001:00044900       _xml_parse_attr            10045900 f   acl_xml_parse.obj
 0001:00044b3d       _xml_parse_attr_val        10045b3d f   acl_xml_parse.obj
 0001:00044fbe       _xml_parse_text            10045fbe f   acl_xml_parse.obj
 0001:000451a5       _xml_parse_right_lt        100461a5 f   acl_xml_parse.obj
 0001:00045405       _xml_parse_right_gt        10046405 f   acl_xml_parse.obj
 0001:0004543b       _update_children_depth     1004643b f   acl_xml_parse.obj
 0001:000454c7       $LN8                       100464c7     acl_xml_parse.obj
 0001:000454cf       $LN7                       100464cf     acl_xml_parse.obj
 0001:000454db       $LN6                       100464db     acl_xml_parse.obj
 0001:000454e0       _search_match_node         100464e0 f   acl_xml_parse.obj
 0001:000456e4       $LN14                      100466e4     acl_xml_parse.obj
 0001:000456ec       $LN13                      100466ec     acl_xml_parse.obj
 0001:000456f8       $LN12                      100466f8     acl_xml_parse.obj
 0001:000456fd       _xml_parse_right_tag       100466fd f   acl_xml_parse.obj
 0001:00045a7d       $LN13                      10046a7d     acl_xml_util.obj
 0001:00045a85       $LN12                      10046a85     acl_xml_util.obj
 0001:00045a91       $LN11                      10046a91     acl_xml_util.obj
 0001:00045bb5       $LN15                      10046bb5     acl_xml_util.obj
 0001:00045bbd       $LN14                      10046bbd     acl_xml_util.obj
 0001:00045bc9       $LN13                      10046bc9     acl_xml_util.obj
 0001:00045ccf       $LN10                      10046ccf     acl_xml_util.obj
 0001:00045cd7       $LN9                       10046cd7     acl_xml_util.obj
 0001:00045ce3       $LN8                       10046ce3     acl_xml_util.obj
 0001:00045e7c       $LN14                      10046e7c     acl_xml_util.obj
 0001:00045e84       $LN13                      10046e84     acl_xml_util.obj
 0001:00045e90       $LN12                      10046e90     acl_xml_util.obj
 0001:00045fe4       $LN14                      10046fe4     acl_xml_util.obj
 0001:00045fec       $LN13                      10046fec     acl_xml_util.obj
 0001:00046004       $LN12                      10047004     acl_xml_util.obj
 0001:0004600a       $LN11                      1004700a     acl_xml_util.obj
 0001:00046143       $LN11                      10047143     acl_xml_util.obj
 0001:0004614b       $LN10                      1004714b     acl_xml_util.obj
 0001:00046157       $LN9                       10047157     acl_xml_util.obj
 0001:00046280       $LN9                       10047280     acl_xml_util.obj
 0001:00046288       $LN8                       10047288     acl_xml_util.obj
 0001:00046294       $LN7                       10047294     acl_xml_util.obj
 0001:000468a0       $LN30                      100478a0     acl_xml_util.obj
 0001:000468a8       $LN29                      100478a8     acl_xml_util.obj
 0001:000468c0       $LN28                      100478c0     acl_xml_util.obj
 0001:000468c6       $LN27                      100478c6     acl_xml_util.obj
 0001:00046a74       $LN20                      10047a74     acl_xml_util.obj
 0001:00046a7c       $LN19                      10047a7c     acl_xml_util.obj
 0001:00046a94       $LN18                      10047a94     acl_xml_util.obj
 0001:00046a9a       $LN17                      10047a9a     acl_xml_util.obj
 0001:00046c30       $LN20                      10047c30     acl_xml_util.obj
 0001:00046c38       $LN19                      10047c38     acl_xml_util.obj
 0001:00046c50       $LN18                      10047c50     acl_xml_util.obj
 0001:00046c56       $LN17                      10047c56     acl_xml_util.obj
 0001:00046c5c       _xml_escape_append         10047c5c f   acl_xml_util.obj
 0001:00047699       $LN7                       10048699     acl_events.obj
 0001:000476a1       $LN6                       100486a1     acl_events.obj
 0001:000476ad       $LN5                       100486ad     acl_events.obj
 0001:0004779d       _event_init                1004879d f   acl_events.obj
 0001:00047915       $LN7                       10048915     acl_events.obj
 0001:0004791d       $LN6                       1004891d     acl_events.obj
 0001:00047935       $LN5                       10048935     acl_events.obj
 0001:00047939       $LN4                       10048939     acl_events.obj
 0001:0004793d       _event_limit               1004893d f   acl_events.obj
 0001:00047b17       $LN16                      10048b17     acl_timer.obj
 0001:00047b1f       $LN15                      10048b1f     acl_timer.obj
 0001:00047b37       $LN14                      10048b37     acl_timer.obj
 0001:00047b3b       $LN13                      10048b3b     acl_timer.obj
 0001:00047c4c       $LN15                      10048c4c     acl_timer.obj
 0001:00047c54       $LN14                      10048c54     acl_timer.obj
 0001:00047c6c       $LN13                      10048c6c     acl_timer.obj
 0001:00047c70       $LN12                      10048c70     acl_timer.obj
 0001:00047d81       $LN13                      10048d81     acl_timer.obj
 0001:00047d89       $LN12                      10048d89     acl_timer.obj
 0001:00047d95       $LN11                      10048d95     acl_timer.obj
 0001:00047e85       $LN11                      10048e85     acl_timer.obj
 0001:00047e8d       $LN10                      10048e8d     acl_timer.obj
 0001:00047e99       $LN9                       10048e99     acl_timer.obj
 0001:00047f11       $LN8                       10048f11     acl_timer.obj
 0001:00047f19       $LN7                       10048f19     acl_timer.obj
 0001:00047f25       $LN6                       10048f25     acl_timer.obj
 0001:00048080       _timer_iter_head           10049080 f   acl_timer.obj
 0001:000480f9       _timer_iter_next           100490f9 f   acl_timer.obj
 0001:00048158       _timer_iter_tail           10049158 f   acl_timer.obj
 0001:000481d7       _timer_iter_prev           100491d7 f   acl_timer.obj
 0001:00048237       _timer_iter_info           10049237 f   acl_timer.obj
 0001:00049183       _event_default_loop        1004a183 f   events_alloc.obj
 0001:000491b6       _event_default_enable_read 1004a1b6 f   events_alloc.obj
 0001:000491e9       _event_default_enable_write 1004a1e9 f   events_alloc.obj
 0001:0004921c       _event_default_disable_read 1004a21c f   events_alloc.obj
 0001:0004924f       _event_default_disable_write 1004a24f f   events_alloc.obj
 0001:00049282       _event_default_disable_readwrite 1004a282 f   events_alloc.obj
 0001:000492b5       _event_default_isrset      1004a2b5 f   events_alloc.obj
 0001:000492ea       _event_default_iswset      1004a2ea f   events_alloc.obj
 0001:0004931f       _event_default_isxset      1004a31f f   events_alloc.obj
 0001:00049354       _event_default_timer_request 1004a354 f   events_alloc.obj
 0001:0004938b       _event_default_timer_cancel 1004a38b f   events_alloc.obj
 0001:000493c2       _event_default_timer_keep  1004a3c2 f   events_alloc.obj
 0001:000493f5       _event_default_timer_ifkeep 1004a3f5 f   events_alloc.obj
 0001:0004942d       _event_default_add_dog     1004a42d f   events_alloc.obj
 0001:00049463       _event_default_free        1004a463 f   events_alloc.obj
 0001:00049599       $LN8                       1004a599     events_dog.obj
 0001:000495a1       $LN7                       1004a5a1     events_dog.obj
 0001:000495ad       $LN6                       1004a5ad     events_dog.obj
 0001:00049601       _event_dog_reopen          1004a601 f   events_dog.obj
 0001:0004961f       _event_dog_close           1004a61f f   events_dog.obj
 0001:0004969a       _read_fn                   1004a69a f   events_dog.obj
 0001:0004973a       $LN7                       1004a73a     events_dog.obj
 0001:00049742       $LN6                       1004a742     events_dog.obj
 0001:0004974e       $LN5                       1004a74e     events_dog.obj
 0001:00049752       _event_dog_open            1004a752 f   events_dog.obj
 0001:0004991a       $LN12                      1004a91a     events_dog.obj
 0001:00049922       $LN11                      1004a922     events_dog.obj
 0001:0004992e       $LN10                      1004a92e     events_dog.obj
 0001:00049b50       _stream_on_close           1004ab50 f   events_iocp.obj
 0001:00049db0       _event_enable_read         1004adb0 f   events_iocp.obj
 0001:00049fdd       _event_enable_write        1004afdd f   events_iocp.obj
 0001:0004a20b       _event_disable_read        1004b20b f   events_iocp.obj
 0001:0004a463       _event_disable_write       1004b463 f   events_iocp.obj
 0001:0004a6b4       _event_disable_readwrite   1004b6b4 f   events_iocp.obj
 0001:0004a6da       _enable_listen             1004b6da f   events_iocp.obj
 0001:0004a7c6       $LN6                       1004b7c6     events_iocp.obj
 0001:0004a7ce       $LN5                       1004b7ce     events_iocp.obj
 0001:0004a7da       $LN4                       1004b7da     events_iocp.obj
 0001:0004a7e5       _enable_read               1004b7e5 f   events_iocp.obj
 0001:0004a981       $LN12                      1004b981     events_iocp.obj
 0001:0004a989       $LN11                      1004b989     events_iocp.obj
 0001:0004a995       $LN10                      1004b995     events_iocp.obj
 0001:0004a99f       _parse_addr                1004b99f f   events_iocp.obj
 0001:0004aac9       _enable_connect            1004bac9 f   events_iocp.obj
 0001:0004adf9       $LN24                      1004bdf9     events_iocp.obj
 0001:0004ae01       $LN23                      1004be01     events_iocp.obj
 0001:0004ae61       $LN22                      1004be61     events_iocp.obj
 0001:0004ae69       $LN21                      1004be69     events_iocp.obj
 0001:0004ae77       $LN20                      1004be77     events_iocp.obj
 0001:0004ae85       $LN19                      1004be85     events_iocp.obj
 0001:0004ae89       $LN18                      1004be89     events_iocp.obj
 0001:0004ae95       $LN17                      1004be95     events_iocp.obj
 0001:0004ae9e       $LN16                      1004be9e     events_iocp.obj
 0001:0004aea3       $LN15                      1004bea3     events_iocp.obj
 0001:0004aea8       _enable_write              1004bea8 f   events_iocp.obj
 0001:0004b060       $LN12                      1004c060     events_iocp.obj
 0001:0004b068       $LN11                      1004c068     events_iocp.obj
 0001:0004b074       $LN10                      1004c074     events_iocp.obj
 0001:0004b07e       _disable_read              1004c07e f   events_iocp.obj
 0001:0004b0c3       _disable_write             1004c0c3 f   events_iocp.obj
 0001:0004b10a       _event_set_all             1004c10a f   events_iocp.obj
 0001:0004b2df       _event_loop                1004c2df f   events_iocp.obj
 0001:0004b84b       $LN57                      1004c84b     events_iocp.obj
 0001:0004b853       $LN56                      1004c853     events_iocp.obj
 0001:0004b88f       $LN55                      1004c88f     events_iocp.obj
 0001:0004b89a       $LN54                      1004c89a     events_iocp.obj
 0001:0004b8ab       $LN53                      1004c8ab     events_iocp.obj
 0001:0004b8af       $LN52                      1004c8af     events_iocp.obj
 0001:0004b8b3       $LN51                      1004c8b3     events_iocp.obj
 0001:0004b8b7       _event_isrset              1004c8b7 f   events_iocp.obj
 0001:0004b8f0       _event_iswset              1004c8f0 f   events_iocp.obj
 0001:0004b929       _event_isxset              1004c929 f   events_iocp.obj
 0001:0004b962       _event_free                1004c962 f   events_iocp.obj
 0001:0004baf6       _stream_on_close           1004caf6 f   events_select.obj
 0001:0004bed9       _event_enable_read         1004ced9 f   events_select.obj
 0001:0004c13b       _event_enable_write        1004d13b f   events_select.obj
 0001:0004c39d       _event_disable_read        1004d39d f   events_select.obj
 0001:0004c6f4       _event_disable_write       1004d6f4 f   events_select.obj
 0001:0004ca4b       _event_disable_readwrite   1004da4b f   events_select.obj
 0001:0004cdc4       _event_loop                1004ddc4 f   events_select.obj
 0001:0004d428       $LN54                      1004e428     events_select.obj
 0001:0004d430       $LN53                      1004e430     events_select.obj
 0001:0004d478       $LN52                      1004e478     events_select.obj
 0001:0004d47c       $LN51                      1004e47c     events_select.obj
 0001:0004d480       $LN50                      1004e480     events_select.obj
 0001:0004d486       $LN49                      1004e486     events_select.obj
 0001:0004d48c       $LN48                      1004e48c     events_select.obj
 0001:0004d492       $LN47                      1004e492     events_select.obj
 0001:0004d495       _event_isrset              1004e495 f   events_select.obj
 0001:0004d4c5       _event_iswset              1004e4c5 f   events_select.obj
 0001:0004d4f5       _event_isxset              1004e4f5 f   events_select.obj
 0001:0004d525       _event_free                1004e525 f   events_select.obj
 0001:0004d736       _event_enable_read         1004e736 f   events_select_thr.obj
 0001:0004dadd       _event_enable_listen       1004eadd f   events_select_thr.obj
 0001:0004de58       _event_enable_write        1004ee58 f   events_select_thr.obj
 0001:0004e20e       _event_disable_readwrite   1004f20e f   events_select_thr.obj
 0001:0004e683       _event_isrset              1004f683 f   events_select_thr.obj
 0001:0004e6b3       _event_iswset              1004f6b3 f   events_select_thr.obj
 0001:0004e6e3       _event_isxset              1004f6e3 f   events_select_thr.obj
 0001:0004e713       _event_loop                1004f713 f   events_select_thr.obj
 0001:0004efe7       $LN86                      1004ffe7     events_select_thr.obj
 0001:0004efef       $LN85                      1004ffef     events_select_thr.obj
 0001:0004f043       $LN84                      10050043     events_select_thr.obj
 0001:0004f047       $LN83                      10050047     events_select_thr.obj
 0001:0004f04b       $LN82                      1005004b     events_select_thr.obj
 0001:0004f051       $LN81                      10050051     events_select_thr.obj
 0001:0004f057       $LN80                      10050057     events_select_thr.obj
 0001:0004f05d       $LN79                      1005005d     events_select_thr.obj
 0001:0004f060       $LN78                      10050060     events_select_thr.obj
 0001:0004f06b       _event_add_dog             1005006b f   events_select_thr.obj
 0001:0004f09d       _event_free                1005009d f   events_select_thr.obj
 0001:0004f3b2       $LN20                      100503b2     events_timer.obj
 0001:0004f3ba       $LN19                      100503ba     events_timer.obj
 0001:0004f3d2       $LN18                      100503d2     events_timer.obj
 0001:0004f3d6       $LN17                      100503d6     events_timer.obj
 0001:0004f563       $LN17                      10050563     events_timer.obj
 0001:0004f56b       $LN16                      1005056b     events_timer.obj
 0001:0004f583       $LN15                      10050583     events_timer.obj
 0001:0004f587       $LN14                      10050587     events_timer.obj
 0001:0004f608       $LN9                       10050608     events_timer.obj
 0001:0004f610       $LN8                       10050610     events_timer.obj
 0001:0004f61c       $LN7                       1005061c     events_timer.obj
 0001:0004f699       $LN9                       10050699     events_timer.obj
 0001:0004f6a1       $LN8                       100506a1     events_timer.obj
 0001:0004f6ad       $LN7                       100506ad     events_timer.obj
 0001:0004f97e       $LN29                      1005097e     events_timer_thr.obj
 0001:0004f986       $LN28                      10050986     events_timer_thr.obj
 0001:0004f99e       $LN27                      1005099e     events_timer_thr.obj
 0001:0004f9a2       $LN26                      100509a2     events_timer_thr.obj
 0001:0004fb8f       $LN24                      10050b8f     events_timer_thr.obj
 0001:0004fb97       $LN23                      10050b97     events_timer_thr.obj
 0001:0004fbaf       $LN22                      10050baf     events_timer_thr.obj
 0001:0004fbb3       $LN21                      10050bb3     events_timer_thr.obj
 0001:0004fcec       $LN17                      10050cec     events_timer_thr.obj
 0001:0004fcf4       $LN16                      10050cf4     events_timer_thr.obj
 0001:0004fd00       $LN15                      10050d00     events_timer_thr.obj
 0001:0004fe75       $LN21                      10050e75     events_timer_thr.obj
 0001:0004fe7d       $LN20                      10050e7d     events_timer_thr.obj
 0001:0004fe89       $LN19                      10050e89     events_timer_thr.obj
 0001:000500a1       _stream_on_close           100510a1 f   events_wmsg.obj
 0001:0005025d       $LN9                       1005125d     events_wmsg.obj
 0001:00050265       $LN8                       10051265     events_wmsg.obj
 0001:00050271       $LN7                       10051271     events_wmsg.obj
 0001:00050275       _stream_on_open            10051275 f   events_wmsg.obj
 0001:00050341       $LN6                       10051341     events_wmsg.obj
 0001:00050349       $LN5                       10051349     events_wmsg.obj
 0001:00050355       $LN4                       10051355     events_wmsg.obj
 0001:00050359       _event_enable_read         10051359 f   events_wmsg.obj
 0001:00050532       _event_enable_write        10051532 f   events_wmsg.obj
 0001:0005070d       _event_disable_read        1005170d f   events_wmsg.obj
 0001:00050939       _event_disable_write       10051939 f   events_wmsg.obj
 0001:00050b65       _event_disable_readwrite   10051b65 f   events_wmsg.obj
 0001:00050d75       _event_isrset              10051d75 f   events_wmsg.obj
 0001:00050dea       _event_iswset              10051dea f   events_wmsg.obj
 0001:00050e5f       _event_isxset              10051e5f f   events_wmsg.obj
 0001:00050ed4       _get_hwnd_event            10051ed4 f   events_wmsg.obj
 0001:00050f07       _set_hwnd_event            10051f07 f   events_wmsg.obj
 0001:00050f2c       _event_fdtable_find        10051f2c f   events_wmsg.obj
 0001:00050fa4       $LN5                       10051fa4     events_wmsg.obj
 0001:00050fac       $LN4                       10051fac     events_wmsg.obj
 0001:00050fb8       $LN3                       10051fb8     events_wmsg.obj
 0001:00050fbc       _handleClose               10051fbc f   events_wmsg.obj
 0001:00051044       _handleConnect             10052044 f   events_wmsg.obj
 0001:000510ed       _handleAccept              100520ed f   events_wmsg.obj
 0001:00051179       _handleRead                10052179 f   events_wmsg.obj
 0001:00051227       _handleWrite               10052227 f   events_wmsg.obj
 0001:000512bf       _WndProc@16                100522bf f   events_wmsg.obj
 0001:000513bd       _InitApplication           100523bd f   events_wmsg.obj
 0001:0005153d       $LN8                       1005253d     events_wmsg.obj
 0001:00051545       $LN7                       10052545     events_wmsg.obj
 0001:00051551       $LN6                       10052551     events_wmsg.obj
 0001:00051555       _InitInstance              10052555 f   events_wmsg.obj
 0001:00051621       $LN6                       10052621     events_wmsg.obj
 0001:00051629       $LN5                       10052629     events_wmsg.obj
 0001:00051635       $LN4                       10052635     events_wmsg.obj
 0001:00051638       _CreateSockWindow          10052638 f   events_wmsg.obj
 0001:00051666       _event_loop                10052666 f   events_wmsg.obj
 0001:0005166b       _event_timer_callback@16   1005266b f   events_wmsg.obj
 0001:0005198f       $LN26                      1005298f     events_wmsg.obj
 0001:00051997       $LN25                      10052997     events_wmsg.obj
 0001:000519af       $LN24                      100529af     events_wmsg.obj
 0001:000519b3       $LN23                      100529b3     events_wmsg.obj
 0001:000519b7       _event_set_timer           100529b7 f   events_wmsg.obj
 0001:00051b73       $LN17                      10052b73     events_wmsg.obj
 0001:00051b7b       $LN16                      10052b7b     events_wmsg.obj
 0001:00051b87       $LN15                      10052b87     events_wmsg.obj
 0001:00051b8b       _event_del_timer           10052b8b f   events_wmsg.obj
 0001:00051c38       _event_free                10052c38 f   events_wmsg.obj
 0001:00051d58       $LN11                      10052d58     events_wmsg.obj
 0001:00051d60       $LN10                      10052d60     events_wmsg.obj
 0001:00051d6c       $LN9                       10052d6c     events_wmsg.obj
 0001:00052221       $LN20                      10053221     acl_ioctl.obj
 0001:00052990       ___poller_fn               10053990 f   acl_ioctl.obj
 0001:000529bb       ___on_thread_init          100539bb f   acl_ioctl.obj
 0001:00052a24       ___on_thread_exit          10053a24 f   acl_ioctl.obj
 0001:00052a8b       ___free_ctx                10053a8b f   acl_ioctl.obj
 0001:00052f7d       _worker_callback_r         10053f7d f   ioctl_thr.obj
 0001:00052fec       _worker_ready_callback     10053fec f   ioctl_thr.obj
 0001:00053243       $LN13                      10054243     acl_aio.obj
 0001:0005324b       $LN12                      1005424b     acl_aio.obj
 0001:00053257       $LN11                      10054257     acl_aio.obj
 0001:00053715       ___connect_notify_callback 10054715 f   acl_aio_connect.obj
 0001:00053a51       $LN41                      10054a51     acl_aio_connect.obj
 0001:00053a59       $LN40                      10054a59     acl_aio_connect.obj
 0001:00053a89       $LN39                      10054a89     acl_aio_connect.obj
 0001:00053a99       $LN38                      10054a99     acl_aio_connect.obj
 0001:00053a9e       $LN37                      10054a9e     acl_aio_connect.obj
 0001:00053aa5       $LN36                      10054aa5     acl_aio_connect.obj
 0001:00053aa9       _ConnectTimer              10054aa9 f   acl_aio_connect.obj
 0001:00053c05       $LN6                       10054c05     acl_aio_listen.obj
 0001:00053c0d       $LN5                       10054c0d     acl_aio_listen.obj
 0001:00053c19       $LN4                       10054c19     acl_aio_listen.obj
 0001:00053c20       ___accept_notify_callback  10054c20 f   acl_aio_listen.obj
 0001:00053ddc       $LN18                      10054ddc     acl_aio_listen.obj
 0001:00053de4       $LN17                      10054de4     acl_aio_listen.obj
 0001:00053e08       $LN16                      10054e08     acl_aio_listen.obj
 0001:00053e0d       $LN15                      10054e0d     acl_aio_listen.obj
 0001:00053e12       $LN14                      10054e12     acl_aio_listen.obj
 0001:00053e17       ___listen_notify_callback  10054e17 f   acl_aio_listen.obj
 0001:00053eff       $LN12                      10054eff     acl_aio_listen.obj
 0001:00053f07       $LN11                      10054f07     acl_aio_listen.obj
 0001:00053f13       $LN10                      10054f13     acl_aio_listen.obj
 0001:000543a1       $LN12                      100553a1     acl_aio_read.obj
 0001:000543a9       $LN11                      100553a9     acl_aio_read.obj
 0001:000543b5       $LN10                      100553b5     acl_aio_read.obj
 0001:0005448b       $LN12                      1005548b     acl_aio_read.obj
 0001:00054493       $LN11                      10055493     acl_aio_read.obj
 0001:0005449f       $LN10                      1005549f     acl_aio_read.obj
 0001:00054622       $LN12                      10055622     acl_aio_read.obj
 0001:0005462a       $LN11                      1005562a     acl_aio_read.obj
 0001:00054636       $LN10                      10055636     acl_aio_read.obj
 0001:0005487f       _main_read_callback        1005587f f   acl_aio_read.obj
 0001:000548b8       _read_complete_callback    100558b8 f   acl_aio_read.obj
 0001:00054a20       $LN14                      10055a20     acl_aio_read.obj
 0001:00054a28       $LN13                      10055a28     acl_aio_read.obj
 0001:00054a34       $LN12                      10055a34     acl_aio_read.obj
 0001:00054a39       ___gets_peek               10055a39 f   acl_aio_read.obj
 0001:00054d2d       $LN38                      10055d2d     acl_aio_read.obj
 0001:00054d35       $LN37                      10055d35     acl_aio_read.obj
 0001:00054d41       $LN36                      10055d41     acl_aio_read.obj
 0001:00054d47       ___gets_notify_callback    10055d47 f   acl_aio_read.obj
 0001:00055042       ___aio_gets                10056042 f   acl_aio_read.obj
 0001:00055220       ___read_peek               10056220 f   acl_aio_read.obj
 0001:000554e3       ___read_notify_callback    100564e3 f   acl_aio_read.obj
 0001:000557d0       ___readn_peek              100567d0 f   acl_aio_read.obj
 0001:00055b64       $LN41                      10056b64     acl_aio_read.obj
 0001:00055b6c       $LN40                      10056b6c     acl_aio_read.obj
 0001:00055b78       $LN39                      10056b78     acl_aio_read.obj
 0001:00055b7e       ___readn_notify_callback   10056b7e f   acl_aio_read.obj
 0001:00055e8f       _can_read_callback         10056e8f f   acl_aio_read.obj
 0001:0005654b       $LN9                       1005754b     acl_aio_stream.obj
 0001:00056553       $LN8                       10057553     acl_aio_stream.obj
 0001:0005655f       $LN7                       1005755f     acl_aio_stream.obj
 0001:000566c8       $LN12                      100576c8     acl_aio_stream.obj
 0001:000566d0       $LN11                      100576d0     acl_aio_stream.obj
 0001:000566dc       $LN10                      100576dc     acl_aio_stream.obj
 0001:00056855       $LN14                      10057855     acl_aio_stream.obj
 0001:0005685d       $LN13                      1005785d     acl_aio_stream.obj
 0001:00056869       $LN12                      10057869     acl_aio_stream.obj
 0001:00056992       $LN14                      10057992     acl_aio_stream.obj
 0001:0005699a       $LN13                      1005799a     acl_aio_stream.obj
 0001:000569a6       $LN12                      100579a6     acl_aio_stream.obj
 0001:00056ad3       $LN14                      10057ad3     acl_aio_stream.obj
 0001:00056adb       $LN13                      10057adb     acl_aio_stream.obj
 0001:00056ae7       $LN12                      10057ae7     acl_aio_stream.obj
 0001:00056c14       $LN14                      10057c14     acl_aio_stream.obj
 0001:00056c1c       $LN13                      10057c1c     acl_aio_stream.obj
 0001:00056c28       $LN12                      10057c28     acl_aio_stream.obj
 0001:00056d55       $LN14                      10057d55     acl_aio_stream.obj
 0001:00056d5d       $LN13                      10057d5d     acl_aio_stream.obj
 0001:00056d69       $LN12                      10057d69     acl_aio_stream.obj
 0001:00056e96       $LN13                      10057e96     acl_aio_stream.obj
 0001:00056e9e       $LN12                      10057e9e     acl_aio_stream.obj
 0001:00056eaa       $LN11                      10057eaa     acl_aio_stream.obj
 0001:00056fd7       $LN13                      10057fd7     acl_aio_stream.obj
 0001:00056fdf       $LN12                      10057fdf     acl_aio_stream.obj
 0001:00056feb       $LN11                      10057feb     acl_aio_stream.obj
 0001:000570a4       $LN9                       100580a4     acl_aio_stream.obj
 0001:000570ac       $LN8                       100580ac     acl_aio_stream.obj
 0001:000570b8       $LN7                       100580b8     acl_aio_stream.obj
 0001:00057171       $LN9                       10058171     acl_aio_stream.obj
 0001:00057179       $LN8                       10058179     acl_aio_stream.obj
 0001:00057185       $LN7                       10058185     acl_aio_stream.obj
 0001:0005723e       $LN9                       1005823e     acl_aio_stream.obj
 0001:00057246       $LN8                       10058246     acl_aio_stream.obj
 0001:00057252       $LN7                       10058252     acl_aio_stream.obj
 0001:0005782a       $LN34                      1005882a     acl_aio_stream.obj
 0001:000579f8       _accept_callback           100589f8 f   acl_aio_stream.obj
 0001:00057a28       _listen_callback           10058a28 f   acl_aio_stream.obj
 0001:00057a58       _aio_disable_readwrite     10058a58 f   acl_aio_stream.obj
 0001:00057ac7       _close_astream             10058ac7 f   acl_aio_stream.obj
 0001:00057bc4       _aio_delay_close           10058bc4 f   acl_aio_stream.obj
 0001:00057c9d       _CloseTimer                10058c9d f   acl_aio_stream.obj
 0001:00057cca       _free_handle               10058cca f   acl_aio_stream.obj
 0001:00058a39       _write_complete_callback   10059a39 f   acl_aio_write.obj
 0001:00058b85       $LN14                      10059b85     acl_aio_write.obj
 0001:00058b8d       $LN13                      10059b8d     acl_aio_write.obj
 0001:00058b99       $LN12                      10059b99     acl_aio_write.obj
 0001:00058b9e       ___try_fflush              10059b9e f   acl_aio_write.obj
 0001:00058d14       ___writen_notify_callback  10059d14 f   acl_aio_write.obj
 0001:000590f9       _can_write_callback        1005a0f9 f   acl_aio_write.obj
 0001:000595bd       $LN15                      1005a5bd     aio_callback.obj
 0001:000595c5       $LN14                      1005a5c5     aio_callback.obj
 0001:000595dd       $LN13                      1005a5dd     aio_callback.obj
 0001:000595eb       $LN12                      1005a5eb     aio_callback.obj
 0001:00059740       $LN15                      1005a740     aio_callback.obj
 0001:00059748       $LN14                      1005a748     aio_callback.obj
 0001:00059760       $LN13                      1005a760     aio_callback.obj
 0001:0005976e       $LN12                      1005a76e     aio_callback.obj
 0001:0005987b       $LN9                       1005a87b     acl_dbpool.obj
 0001:00059883       $LN8                       1005a883     acl_dbpool.obj
 0001:0005988f       $LN7                       1005a88f     acl_dbpool.obj
 0001:00059b67       $LN9                       1005ab67     acl_dbsql.obj
 0001:00059b6f       $LN8                       1005ab6f     acl_dbsql.obj
 0001:00059b7b       $LN7                       1005ab7b     acl_dbsql.obj
 0001:00059c3f       $LN9                       1005ac3f     acl_dbsql.obj
 0001:00059c47       $LN8                       1005ac47     acl_dbsql.obj
 0001:00059c53       $LN7                       1005ac53     acl_dbsql.obj
 0001:00059d0b       $LN9                       1005ad0b     acl_dbsql.obj
 0001:00059d13       $LN8                       1005ad13     acl_dbsql.obj
 0001:00059d1f       $LN7                       1005ad1f     acl_dbsql.obj
 0001:0005a501       _free_tbl_fn               1005b501 f   acl_mdb.obj
 0001:0005aa91       _mdt_idx                   1005ba91 f   acl_mdt.obj
 0001:0005aaed       _mdt_idx_create            1005baed f   acl_mdt.obj
 0001:0005ab9f       _mdt_idx_free              1005bb9f f   acl_mdt.obj
 0001:0005ac01       _mdt_node_free             1005bc01 f   acl_mdt.obj
 0001:0005ad14       _mdt_node_new              1005bd14 f   acl_mdt.obj
 0001:0005ae43       _mdt_rec_new               1005be43 f   acl_mdt.obj
 0001:0005aec4       _mdt_rec_free              1005bec4 f   acl_mdt.obj
 0001:0005af08       _mdt_ref_del               1005bf08 f   acl_mdt.obj
 0001:0005b058       _mdt_ref_add               1005c058 f   acl_mdt.obj
 0001:0005b189       _mdt_add                   1005c189 f   acl_mdt.obj
 0001:0005b2fb       _mdt_probe                 1005c2fb f   acl_mdt.obj
 0001:0005b385       _mdt_get                   1005c385 f   acl_mdt.obj
 0001:0005b570       _mdt_del                   1005c570 f   acl_mdt.obj
 0001:0005b781       _mdt_list                  1005c781 f   acl_mdt.obj
 0001:0005b8e6       _mdt_walk                  1005c8e6 f   acl_mdt.obj
 0001:0005b9ce       _mdt_nodes_free            1005c9ce f   acl_mdt.obj
 0001:0005baf7       _cmp_fn                    1005caf7 f   acl_mdt_avl.obj
 0001:0005bb5a       _mdt_idx_create            1005cb5a f   acl_mdt_avl.obj
 0001:0005bc7d       _mdt_idx_free              1005cc7d f   acl_mdt_avl.obj
 0001:0005bd93       _mdt_idx_add               1005cd93 f   acl_mdt_avl.obj
 0001:0005be3d       _mdt_idx_get               1005ce3d f   acl_mdt_avl.obj
 0001:0005bead       $LN7                       1005cead     acl_mdt_avl.obj
 0001:0005beb5       $LN6                       1005ceb5     acl_mdt_avl.obj
 0001:0005bec1       $LN5                       1005cec1     acl_mdt_avl.obj
 0001:0005bec6       _mdt_idx_del               1005cec6 f   acl_mdt_avl.obj
 0001:0005bfb2       $LN15                      1005cfb2     acl_mdt_avl.obj
 0001:0005bfba       $LN14                      1005cfba     acl_mdt_avl.obj
 0001:0005bfc6       $LN13                      1005cfc6     acl_mdt_avl.obj
 0001:0005bfcb       _mdt_avl_free              1005cfcb f   acl_mdt_avl.obj
 0001:0005c074       _mdt_idx_create            1005d074 f   acl_mdt_binhash.obj
 0001:0005c161       _mdt_idx_free              1005d161 f   acl_mdt_binhash.obj
 0001:0005c1c7       _mdt_idx_add               1005d1c7 f   acl_mdt_binhash.obj
 0001:0005c245       _mdt_idx_get               1005d245 f   acl_mdt_binhash.obj
 0001:0005c28c       _mdt_idx_del               1005d28c f   acl_mdt_binhash.obj
 0001:0005c2c7       _mdt_binhash_free          1005d2c7 f   acl_mdt_binhash.obj
 0001:0005c36a       _mdt_idx_create            1005d36a f   acl_mdt_hash.obj
 0001:0005c3fb       _mdt_idx_free              1005d3fb f   acl_mdt_hash.obj
 0001:0005c461       _mdt_idx_add               1005d461 f   acl_mdt_hash.obj
 0001:0005c4d4       _mdt_idx_get               1005d4d4 f   acl_mdt_hash.obj
 0001:0005c50f       _mdt_idx_del               1005d50f f   acl_mdt_hash.obj
 0001:0005c53f       _mdt_hash_free             1005d53f f   acl_mdt_hash.obj
 0001:0005c61e       _time                      1005d61e f   acl_dbpool_null.obj
 0001:0005c76b       $LN6                       1005d76b     acl_dbpool_null.obj
 0001:0005c773       $LN5                       1005d773     acl_dbpool_null.obj
 0001:0005c77f       $LN4                       1005d77f     acl_dbpool_null.obj
 0001:0005c784       ___new_null_handle         1005d784 f   acl_dbpool_null.obj
 0001:0005c7d2       ___open_handle             1005d7d2 f   acl_dbpool_null.obj
 0001:0005c92a       $LN12                      1005d92a     acl_dbpool_null.obj
 0001:0005c932       $LN11                      1005d932     acl_dbpool_null.obj
 0001:0005c93e       $LN10                      1005d93e     acl_dbpool_null.obj
 0001:0005c943       ___close_handle            1005d943 f   acl_dbpool_null.obj
 0001:0005c989       ___dbpool_ping_default     1005d989 f   acl_dbpool_null.obj
 0001:0005c9bd       ___dbpool_check            1005d9bd f   acl_dbpool_null.obj
 0001:0005cb2e       ___dbpool_peek             1005db2e f   acl_dbpool_null.obj
 0001:0005d042       $LN40                      1005e042     acl_dbpool_null.obj
 0001:0005d04a       $LN39                      1005e04a     acl_dbpool_null.obj
 0001:0005d056       $LN38                      1005e056     acl_dbpool_null.obj
 0001:0005d05b       ___dbpool_release          1005e05b f   acl_dbpool_null.obj
 0001:0005d1ce       ___dbpool_export           1005e1ce f   acl_dbpool_null.obj
 0001:0005d1e7       ___dbpool_close            1005e1e7 f   acl_dbpool_null.obj
 0001:0005d2ea       ___dbpool_destroy          1005e2ea f   acl_dbpool_null.obj
 0001:0005d91e       $LN17                      1005e91e     zdb.obj
 0001:0005d926       $LN16                      1005e926     zdb.obj
 0001:0005d93e       $LN15                      1005e93e     zdb.obj
 0001:0005d946       $LN14                      1005e946     zdb.obj
 0001:0005db36       $LN16                      1005eb36     zdb.obj
 0001:0005db3e       $LN15                      1005eb3e     zdb.obj
 0001:0005db4a       $LN14                      1005eb4a     zdb.obj
 0001:0005dc5e       _free_disk                 1005ec5e f   zdb.obj
 0001:0005dcbe       _zdb_disks_load            1005ecbe f   zdb.obj
 0001:0005e23a       $LN41                      1005f23a     zdb.obj
 0001:0005e242       $LN40                      1005f242     zdb.obj
 0001:0005e25a       $LN39                      1005f25a     zdb.obj
 0001:0005e25f       $LN38                      1005f25f     zdb.obj
 0001:0005e269       _zdb_disks_update          1005f269 f   zdb.obj
 0001:0005e449       $LN10                      1005f449     zdb.obj
 0001:0005e451       $LN9                       1005f451     zdb.obj
 0001:0005e45d       $LN8                       1005f45d     zdb.obj
 0001:0005e461       _time                      1005f461 f   zdb_dat.obj
 0001:0005f1c2       $LN121                     100601c2     zdb_dat.obj
 0001:0005f1ca       $LN120                     100601ca     zdb_dat.obj
 0001:0005f1d6       $LN119                     100601d6     zdb_dat.obj
 0001:00060026       $LN25                      10061026     zdb_dat.obj
 0001:0006002e       $LN24                      1006102e     zdb_dat.obj
 0001:00060046       $LN23                      10061046     zdb_dat.obj
 0001:0006004c       $LN22                      1006104c     zdb_dat.obj
 0001:00060051       _free_vstring_fn           10061051 f   zdb_dat.obj
 0001:00060077       _dat_ifiles_space          10061077 f   zdb_dat.obj
 0001:00060191       _dat_inode                 10061191 f   zdb_dat.obj
 0001:0006021d       _dat_filepath              1006121d f   zdb_dat.obj
 0001:000602d2       _dat_path                  100612d2 f   zdb_dat.obj
 0001:0006037c       _dat_store_blk_add         1006137c f   zdb_dat.obj
 0001:0006083f       _dat_store_init            1006183f f   zdb_dat.obj
 0001:00060970       _dat_store_on_open         10061970 f   zdb_dat.obj
 0001:00060c5f       _dat_store_on_close        10061c5f f   zdb_dat.obj
 0001:00060d06       _dummy                     10061d06 f   zdb_dat_iter.obj
 0001:00060d0b       _free_tls                  10061d0b f   zdb_dat_iter.obj
 0001:00060d60       _main_free_tls             10061d60 f   zdb_dat_iter.obj
 0001:00060dc7       _once_init                 10061dc7 f   zdb_dat_iter.obj
 0001:00060e14       _tls_alloc                 10061e14 f   zdb_dat_iter.obj
 0001:00060f07       _dat_iter_get_next         10061f07 f   zdb_dat_iter.obj
 0001:000610cb       _dat_iter_head             100620cb f   zdb_dat_iter.obj
 0001:0006111d       _dat_iter_next             1006211d f   zdb_dat_iter.obj
 0001:00061153       _dummy2                    10062153 f   zdb_dat_iter.obj
 0001:00061158       _free_tls2                 10062158 f   zdb_dat_iter.obj
 0001:00061181       _main_free_tls2            10062181 f   zdb_dat_iter.obj
 0001:000611c0       _once_init2                100621c0 f   zdb_dat_iter.obj
 0001:0006120d       _get_blk_hdr               1006220d f   zdb_dat_iter.obj
 0001:0006128e       _hdr_iter_get_next         1006228e f   zdb_dat_iter.obj
 0001:0006141f       _hdr_iter_head             1006241f f   zdb_dat_iter.obj
 0001:00061471       _hdr_iter_next             10062471 f   zdb_dat_iter.obj
 0001:0006156e       _zdb_dat_scan_path         1006256e f   zdb_dat_walk.obj
 0001:0006172a       $LN13                      1006272a     zdb_dat_walk.obj
 0001:00061732       $LN12                      10062732     zdb_dat_walk.obj
 0001:0006173e       $LN11                      1006273e     zdb_dat_walk.obj
 0001:00061d94       _io_blk_free               10062d94 f   zdb_io.obj
 0001:00061f2a       _io_blk_new                10062f2a f   zdb_io.obj
 0001:00061fc5       _cmp_fn                    10062fc5 f   zdb_io.obj
 0001:00062050       _free_blk_cache            10063050 f   zdb_io.obj
 0001:00062076       _zdb_io_cache_add          10063076 f   zdb_io.obj
 0001:0006216e       $LN8                       1006316e     zdb_io.obj
 0001:00062176       $LN7                       10063176     zdb_io.obj
 0001:00062182       $LN6                       10063182     zdb_io.obj
 0001:00062186       _zdb_io_cache_write        10063186 f   zdb_io.obj
 0001:00062282       $LN9                       10063282     zdb_io.obj
 0001:0006228a       $LN8                       1006328a     zdb_io.obj
 0001:00062296       $LN7                       10063296     zdb_io.obj
 0001:0006229a       _zdb_io_cache_read         1006329a f   zdb_io.obj
 0001:00062346       $LN7                       10063346     zdb_io.obj
 0001:0006234e       $LN6                       1006334e     zdb_io.obj
 0001:0006235a       $LN5                       1006335a     zdb_io.obj
 0001:00062cc6       $LN14                      10063cc6     zdb_key.obj
 0001:00062cce       $LN13                      10063cce     zdb_key.obj
 0001:00062cda       $LN12                      10063cda     zdb_key.obj
 0001:00062e4f       _dummy                     10063e4f f   zdb_key.obj
 0001:00062e54       _free_tls                  10063e54 f   zdb_key.obj
 0001:00062e7a       _main_free_tls             10063e7a f   zdb_key.obj
 0001:00062eb6       _once_init                 10063eb6 f   zdb_key.obj
 0001:00062f03       _get_tls                   10063f03 f   zdb_key.obj
 0001:00062f81       _key_iter_head             10063f81 f   zdb_key.obj
 0001:000630f2       _key_iter_next             100640f2 f   zdb_key.obj
 0001:0006324e       _key_store_init            1006424e f   zdb_key.obj
 0001:000634a6       $LN22                      100644a6     zdb_key.obj
 0001:000634ae       $LN21                      100644ae     zdb_key.obj
 0001:000634ba       $LN20                      100644ba     zdb_key.obj
 0001:000634c2       _key_store_on_open         100644c2 f   zdb_key.obj
 0001:0006370b       _key_store_on_close        1006470b f   zdb_key.obj
 0001:00063783       _store_init_on_open        10064783 f   zdb_key.obj
 0001:00063a2f       $LN19                      10064a2f     zdb_key.obj
 0001:00063a37       $LN18                      10064a37     zdb_key.obj
 0001:00063a43       $LN17                      10064a43     zdb_key.obj
 0001:00063a4b       _store_init_on_close       10064a4b f   zdb_key.obj
 0001:00063c2a       $LN13                      10064c2a     zdb_key_walk.obj
 0001:00063c32       $LN12                      10064c32     zdb_key_walk.obj
 0001:00063c3e       $LN11                      10064c3e     zdb_key_walk.obj
 0001:00063e86       $LN28                      10064e86     acl_test_cfg.obj
 0001:00063e8e       $LN27                      10064e8e     acl_test_cfg.obj
 0001:00063eb2       $LN26                      10064eb2     acl_test_cfg.obj
 0001:00063eb7       $LN25                      10064eb7     acl_test_cfg.obj
 0001:00063ebc       $LN24                      10064ebc     acl_test_cfg.obj
 0001:0006400e       $LN14                      1006500e     acl_test_cfg.obj
 0001:00064016       $LN13                      10065016     acl_test_cfg.obj
 0001:0006402e       $LN12                      1006502e     acl_test_cfg.obj
 0001:00064033       $LN11                      10065033     acl_test_cfg.obj
 0001:000641ea       $LN16                      100651ea     acl_test_cfg.obj
 0001:000641f2       $LN15                      100651f2     acl_test_cfg.obj
 0001:000641fe       $LN14                      100651fe     acl_test_cfg.obj
 0001:00064205       _free_arg_item             10065205 f   acl_test_cfg.obj
 0001:0006427a       ___parse_cfg_line          1006527a f   acl_test_cfg.obj
 0001:000642ad       ___init                    100652ad f   acl_test_cfg.obj
 0001:00064359       $LN8                       10065359     acl_test_cfg.obj
 0001:00064361       $LN7                       10065361     acl_test_cfg.obj
 0001:00064379       $LN6                       10065379     acl_test_cfg.obj
 0001:0006437e       $LN5                       1006537e     acl_test_cfg.obj
 0001:00064459       $LN10                      10065459     acl_test_cfg_general.obj
 0001:00064461       $LN9                       10065461     acl_test_cfg_general.obj
 0001:0006446d       $LN8                       1006546d     acl_test_cfg_general.obj
 0001:00064474       ___put_log_level           10065474 f   acl_test_cfg_general.obj
 0001:00064588       $LN9                       10065588     acl_test_cfg_general.obj
 0001:00064590       $LN8                       10065590     acl_test_cfg_general.obj
 0001:0006459c       $LN7                       1006559c     acl_test_cfg_general.obj
 0001:00064727       $LN14                      10065727     acl_test_inner.obj
 0001:0006472f       $LN13                      1006572f     acl_test_inner.obj
 0001:00064747       $LN12                      10065747     acl_test_inner.obj
 0001:0006474c       $LN11                      1006574c     acl_test_inner.obj
 0001:00064753       ___mkcmd_if                10065753 f   acl_test_inner.obj
 0001:000647e6       ___mkcmd_endif             100657e6 f   acl_test_inner.obj
 0001:00064966       $LN12                      10065966     acl_test_inner.obj
 0001:0006496e       $LN11                      1006596e     acl_test_inner.obj
 0001:0006497a       $LN10                      1006597a     acl_test_inner.obj
 0001:00064981       ___mkcmd_stop              10065981 f   acl_test_inner.obj
 0001:00064f66       $LN14                      10065f66     acl_test_loop.obj
 0001:00064f6e       $LN13                      10065f6e     acl_test_loop.obj
 0001:00064f7a       $LN12                      10065f7a     acl_test_loop.obj
 0001:00065155       $LN15                      10066155     acl_test_loop.obj
 0001:0006515d       $LN14                      1006615d     acl_test_loop.obj
 0001:00065169       $LN13                      10066169     acl_test_loop.obj
 0001:00065578       $LN11                      10066578     acl_test_misc.obj
 0001:00065580       $LN10                      10066580     acl_test_misc.obj
 0001:0006558c       $LN9                       1006658c     acl_test_misc.obj
 0001:0006561f       $LN6                       1006661f     acl_test_misc.obj
 0001:00065627       $LN5                       10066627     acl_test_misc.obj
 0001:00065633       $LN4                       10066633     acl_test_misc.obj
 0001:00065716       $LN8                       10066716     acl_test_misc.obj
 0001:0006571e       $LN7                       1006671e     acl_test_misc.obj
 0001:0006572a       $LN6                       1006672a     acl_test_misc.obj
 0001:000657cd       $LN7                       100667cd     acl_test_misc.obj
 0001:000657d5       $LN6                       100667d5     acl_test_misc.obj
 0001:000657e1       $LN5                       100667e1     acl_test_misc.obj
 0001:0006588c       $LN7                       1006688c     acl_test_misc.obj
 0001:00065894       $LN6                       10066894     acl_test_misc.obj
 0001:000658a0       $LN5                       100668a0     acl_test_misc.obj
 0001:00065937       $LN6                       10066937     acl_test_misc.obj
 0001:0006593f       $LN5                       1006693f     acl_test_misc.obj
 0001:0006594b       $LN4                       1006694b     acl_test_misc.obj
 0001:000659f7       $LN6                       100669f7     acl_test_misc.obj
 0001:000659ff       $LN5                       100669ff     acl_test_misc.obj
 0001:00065a0b       $LN4                       10066a0b     acl_test_misc.obj
 0001:00065aa2       $LN6                       10066aa2     acl_test_misc.obj
 0001:00065aaa       $LN5                       10066aaa     acl_test_misc.obj
 0001:00065ab6       $LN4                       10066ab6     acl_test_misc.obj
 0001:00065bb9       $LN13                      10066bb9     acl_test_misc.obj
 0001:00065bc1       $LN12                      10066bc1     acl_test_misc.obj
 0001:00065bcd       $LN11                      10066bcd     acl_test_misc.obj
 0001:00065c64       $LN6                       10066c64     acl_test_misc.obj
 0001:00065c6c       $LN5                       10066c6c     acl_test_misc.obj
 0001:00065c78       $LN4                       10066c78     acl_test_misc.obj
 0001:00065d0f       $LN6                       10066d0f     acl_test_misc.obj
 0001:00065d17       $LN5                       10066d17     acl_test_misc.obj
 0001:00065d23       $LN4                       10066d23     acl_test_misc.obj
 0001:00065dbe       $LN7                       10066dbe     acl_test_misc.obj
 0001:00065dc6       $LN6                       10066dc6     acl_test_misc.obj
 0001:00065dd2       $LN5                       10066dd2     acl_test_misc.obj
 0001:00065e71       $LN7                       10066e71     acl_test_misc.obj
 0001:00065e79       $LN6                       10066e79     acl_test_misc.obj
 0001:00065e85       $LN5                       10066e85     acl_test_misc.obj
 0001:00065f18       $LN6                       10066f18     acl_test_misc.obj
 0001:00065f20       $LN5                       10066f20     acl_test_misc.obj
 0001:00065f2c       $LN4                       10066f2c     acl_test_misc.obj
 0001:00066067       $LN9                       10067067     acl_test_misc.obj
 0001:0006606f       $LN8                       1006706f     acl_test_misc.obj
 0001:0006607b       $LN7                       1006707b     acl_test_misc.obj
 0001:0006638f       $LN15                      1006738f     acl_test_outer.obj
 0001:00066397       $LN14                      10067397     acl_test_outer.obj
 0001:000663c7       $LN13                      100673c7     acl_test_outer.obj
 0001:000663cc       $LN12                      100673cc     acl_test_outer.obj
 0001:000663d1       $LN11                      100673d1     acl_test_outer.obj
 0001:000663d6       $LN10                      100673d6     acl_test_outer.obj
 0001:000664a1       $LN7                       100674a1     acl_test_runner.obj
 0001:000664a9       $LN6                       100674a9     acl_test_runner.obj
 0001:000664b5       $LN5                       100674b5     acl_test_runner.obj
 0001:000665ab       ___fn_callback             100675ab f   acl_test_runner.obj
 0001:00066793       $LN18                      10067793     acl_test_runner.obj
 0001:0006679b       $LN17                      1006779b     acl_test_runner.obj
 0001:000667a7       $LN16                      100677a7     acl_test_runner.obj
 0001:000667ae       ___test_stop               100677ae f   acl_test_runner.obj
 0001:0006683a       $LN5                       1006783a     acl_test_runner.obj
 0001:00066842       $LN4                       10067842     acl_test_runner.obj
 0001:0006684e       $LN3                       1006784e     acl_test_runner.obj
 0001:00066855       ___test_sleep              10067855 f   acl_test_runner.obj
 0001:00066931       $LN7                       10067931     acl_test_runner.obj
 0001:00066939       $LN6                       10067939     acl_test_runner.obj
 0001:00066945       $LN5                       10067945     acl_test_runner.obj
 0001:0006694c       ___test_pause              1006794c f   acl_test_runner.obj
 0001:000669f8       $LN8                       100679f8     acl_test_runner.obj
 0001:00066a00       $LN7                       10067a00     acl_test_runner.obj
 0001:00066a0c       $LN6                       10067a0c     acl_test_runner.obj
 0001:00066a13       ___test_loop_begin         10067a13 f   acl_test_runner.obj
 0001:00066b33       $LN14                      10067b33     acl_test_runner.obj
 0001:00066b3b       $LN13                      10067b3b     acl_test_runner.obj
 0001:00066b53       $LN12                      10067b53     acl_test_runner.obj
 0001:00066b58       $LN11                      10067b58     acl_test_runner.obj
 0001:00066b5f       ___test_loop_break         10067b5f f   acl_test_runner.obj
 0001:00066c5b       $LN7                       10067c5b     acl_test_runner.obj
 0001:00066c63       $LN6                       10067c63     acl_test_runner.obj
 0001:00066c6f       $LN5                       10067c6f     acl_test_runner.obj
 0001:00066c76       ___test_loop_end           10067c76 f   acl_test_runner.obj
 0001:00066c8a       ___test_if                 10067c8a f   acl_test_runner.obj
 0001:00066c9e       ___test_else               10067c9e f   acl_test_runner.obj
 0001:00066cb2       ___test_endif              10067cb2 f   acl_test_runner.obj
 0001:00066cc6       ___test_goto               10067cc6 f   acl_test_runner.obj
 0001:00066cda       ___lookup_fn_item          10067cda f   acl_test_runner.obj
 0001:00066daa       $LN10                      10067daa     acl_test_runner.obj
 0001:00066db2       $LN9                       10067db2     acl_test_runner.obj
 0001:00066dbe       $LN8                       10067dbe     acl_test_runner.obj
 0001:00066dc5       _free_fn_item              10067dc5 f   acl_test_runner.obj
 0001:00066dff       ___add_fn_item             10067dff f   acl_test_runner.obj
 0001:00066eeb       $LN7                       10067eeb     acl_test_runner.obj
 0001:00066ef3       $LN6                       10067ef3     acl_test_runner.obj
 0001:00066f0b       $LN5                       10067f0b     acl_test_runner.obj
 0001:00066f10       $LN4                       10067f10     acl_test_runner.obj
 0001:00066fc5       $LN8                       10067fc5     acl_test_token.obj
 0001:00066fcd       $LN7                       10067fcd     acl_test_token.obj
 0001:00066fd9       $LN6                       10067fd9     acl_test_token.obj
 0001:000670ec       $LN12                      100680ec     acl_test_token.obj
 0001:000670f4       $LN11                      100680f4     acl_test_token.obj
 0001:00067100       $LN10                      10068100     acl_test_token.obj
 0001:0006721f       $LN9                       1006821f     master_params.obj
 0001:00067227       $LN8                       10068227     master_params.obj
 0001:00067233       $LN7                       10068233     master_params.obj
 0001:00067322       $LN13                      10068322     master_params.obj
 0001:0006732a       $LN12                      1006832a     master_params.obj
 0001:0006734e       $LN11                      1006834e     master_params.obj
 0001:00067354       $LN10                      10068354     master_params.obj
 0001:00067359       $LN9                       10068359     master_params.obj
 0001:00067444       $LN13                      10068444     master_params.obj
 0001:0006744c       $LN12                      1006844c     master_params.obj
 0001:00067470       $LN11                      10068470     master_params.obj
 0001:00067476       $LN10                      10068476     master_params.obj
 0001:0006747b       $LN9                       1006847b     master_params.obj
 0001:0006756a       $LN13                      1006856a     master_params.obj
 0001:00067572       $LN12                      10068572     master_params.obj
 0001:00067596       $LN11                      10068596     master_params.obj
 0001:0006759c       $LN10                      1006859c     master_params.obj
 0001:000675a1       $LN9                       100685a1     master_params.obj
 0001:0006768c       $LN13                      1006868c     master_params.obj
 0001:00067694       $LN12                      10068694     master_params.obj
 0001:000676b8       $LN11                      100686b8     master_params.obj
 0001:000676be       $LN10                      100686be     master_params.obj
 0001:000676c3       $LN9                       100686c3     master_params.obj
 0001:000676ca       ___init_conf_int_vars      100686ca f   master_params.obj
 0001:00067711       ___init_conf_int64_vars    10068711 f   master_params.obj
 0001:00067761       ___init_conf_str_vars      10068761 f   master_params.obj
 0001:000677c1       ___init_conf_bool_vars     100687c1 f   master_params.obj
 0001:00067821       ___update_conf_int_vars    10068821 f   master_params.obj
 0001:00067894       ___update_conf_int64_vars  10068894 f   master_params.obj
 0001:00067900       ___update_conf_str_vars    10068900 f   master_params.obj
 0001:000679ab       ___update_conf_bool_vars   100689ab f   master_params.obj
 0001:00067a48       _time                      10068a48 f   acl_proctl.obj
 0001:00067b38       $LN6                       10068b38     acl_proctl.obj
 0001:00067b40       $LN5                       10068b40     acl_proctl.obj
 0001:00067b58       $LN4                       10068b58     acl_proctl.obj
 0001:00067b5c       $LN3                       10068b5c     acl_proctl.obj
 0001:00067e71       $LN18                      10068e71     acl_proctl.obj
 0001:00067e79       $LN17                      10068e79     acl_proctl.obj
 0001:00067e91       $LN16                      10068e91     acl_proctl.obj
 0001:00067e95       $LN15                      10068e95     acl_proctl.obj
 0001:00068092       $LN18                      10069092     acl_proctl.obj
 0001:0006809a       $LN17                      1006909a     acl_proctl.obj
 0001:000680b2       $LN16                      100690b2     acl_proctl.obj
 0001:000680b6       $LN15                      100690b6     acl_proctl.obj
 0001:000681fb       $LN12                      100691fb     acl_proctl.obj
 0001:00068203       $LN11                      10069203     acl_proctl.obj
 0001:0006821b       $LN10                      1006921b     acl_proctl.obj
 0001:0006821f       $LN9                       1006921f     acl_proctl.obj
 0001:0006835c       $LN12                      1006935c     acl_proctl.obj
 0001:00068364       $LN11                      10069364     acl_proctl.obj
 0001:0006837c       $LN10                      1006937c     acl_proctl.obj
 0001:00068380       $LN9                       10069380     acl_proctl.obj
 0001:000684bd       $LN12                      100694bd     acl_proctl.obj
 0001:000684c5       $LN11                      100694c5     acl_proctl.obj
 0001:000684dd       $LN10                      100694dd     acl_proctl.obj
 0001:000684e1       $LN9                       100694e1     acl_proctl.obj
 0001:0006856e       $LN6                       1006956e     acl_proctl.obj
 0001:00068576       $LN5                       10069576     acl_proctl.obj
 0001:0006858e       $LN4                       1006958e     acl_proctl.obj
 0001:00068592       $LN3                       10069592     acl_proctl.obj
 0001:00068597       _proctl_init               10069597 f   acl_proctl.obj
 0001:000685a8       _proctl_start_init         100695a8 f   acl_proctl.obj
 0001:000685c2       _proctl_client_open        100695c2 f   acl_proctl.obj
 0001:000686de       $LN9                       100696de     acl_proctl.obj
 0001:000686e6       $LN8                       100696e6     acl_proctl.obj
 0001:0006870a       $LN7                       1006970a     acl_proctl.obj
 0001:0006870f       $LN6                       1006970f     acl_proctl.obj
 0001:00068719       $LN5                       10069719     acl_proctl.obj
 0001:0006871e       _proctl_client_close       1006971e f   acl_proctl.obj
 0001:000687f4       $LN6                       100697f4     proctl_child.obj
 0001:000687fc       $LN5                       100697fc     proctl_child.obj
 0001:00068808       $LN4                       10069808     proctl_child.obj
 0001:0006880d       _usage                     1006980d f   proctl_child.obj
 0001:00068841       _proctl_child_cmd_stop     10069841 f   proctl_child.obj
 0001:00068958       _proctl_child_main         10069958 f   proctl_child.obj
 0001:00068d90       $LN50                      10069d90     proctl_child.obj
 0001:00068d98       $LN49                      10069d98     proctl_child.obj
 0001:00068dbc       $LN48                      10069dbc     proctl_child.obj
 0001:00068dc1       $LN47                      10069dc1     proctl_child.obj
 0001:00068dca       $LN46                      10069dca     proctl_child.obj
 0001:00068dce       _proctl_child_loop         10069dce f   proctl_child.obj
 0001:00068f06       $LN15                      10069f06     proctl_child.obj
 0001:00068f0e       $LN14                      10069f0e     proctl_child.obj
 0001:00068f1a       $LN13                      10069f1a     proctl_child.obj
 0001:00068fb6       $LN6                       10069fb6     proctl_monitor.obj
 0001:00068fbe       $LN5                       10069fbe     proctl_monitor.obj
 0001:00068fca       $LN4                       10069fca     proctl_monitor.obj
 0001:00068fcf       _proctl_monitor_stop_service 10069fcf f   proctl_monitor.obj
 0001:0006928b       $LN20                      1006a28b     proctl_monitor.obj
 0001:00069293       $LN19                      1006a293     proctl_monitor.obj
 0001:000692c3       $LN18                      1006a2c3     proctl_monitor.obj
 0001:000692cb       $LN17                      1006a2cb     proctl_monitor.obj
 0001:000692cf       $LN16                      1006a2cf     proctl_monitor.obj
 0001:000692d4       $LN15                      1006a2d4     proctl_monitor.obj
 0001:000692d9       _proctl_monitor_stop_all_service 1006a2d9 f   proctl_monitor.obj
 0001:00069353       _proctl_monitor_cmd_stop   1006a353 f   proctl_monitor.obj
 0001:0006944e       _proctl_monitor_cmd_start  1006a44e f   proctl_monitor.obj
 0001:00069589       _proctl_monitor_cmd_quit   1006a589 f   proctl_monitor.obj
 0001:0006962f       _proctl_monitor_cmd_list   1006a62f f   proctl_monitor.obj
 0001:000696e3       _proctl_monitor_cmd_probe  1006a6e3 f   proctl_monitor.obj
 0001:0006974a       _usage                     1006a74a f   proctl_monitor.obj
 0001:00069770       _proctl_monitor_main       1006a770 f   proctl_monitor.obj
 0001:00069c84       $LN62                      1006ac84     proctl_monitor.obj
 0001:00069c8c       $LN61                      1006ac8c     proctl_monitor.obj
 0001:00069cb0       $LN60                      1006acb0     proctl_monitor.obj
 0001:00069cb5       $LN59                      1006acb5     proctl_monitor.obj
 0001:00069cbe       $LN58                      1006acbe     proctl_monitor.obj
 0001:00069cc2       _proctl_monitor_loop       1006acc2 f   proctl_monitor.obj
 0001:00069de6       $LN15                      1006ade6     proctl_monitor.obj
 0001:00069dee       $LN14                      1006adee     proctl_monitor.obj
 0001:00069dfa       $LN13                      1006adfa     proctl_monitor.obj
 0001:00069f78       $LN6                       1006af78     proctl_service.obj
 0001:00069f80       $LN5                       1006af80     proctl_service.obj
 0001:00069f8c       $LN4                       1006af8c     proctl_service.obj
 0001:0006a421       $LN6                       1006b421     proctl_service.obj
 0001:0006a429       $LN5                       1006b429     proctl_service.obj
 0001:0006a435       $LN4                       1006b435     proctl_service.obj
 0001:0006a572       $LN15                      1006b572     proctl_service.obj
 0001:0006a57a       $LN14                      1006b57a     proctl_service.obj
 0001:0006a586       $LN13                      1006b586     proctl_service.obj
 0001:0006a74f       $LN19                      1006b74f     proctl_service.obj
 0001:0006a757       $LN18                      1006b757     proctl_service.obj
 0001:0006a76f       $LN17                      1006b76f     proctl_service.obj
 0001:0006a774       $LN16                      1006b774     proctl_service.obj
 0001:0006a7d0       _handles_init              1006b7d0 f   proctl_service.obj
 0001:0006a85e       _handles_add               1006b85e f   proctl_service.obj
 0001:0006a8fa       _handles_del               1006b8fa f   proctl_service.obj
 0001:0006a9a1       _proctl_service_add        1006b9a1 f   proctl_service.obj
 0001:0006aa06       _proctl_service_find       1006ba06 f   proctl_service.obj
 0001:0006aaa7       _proctl_service_stopped    1006baa7 f   proctl_service.obj
 0001:0006aac7       _proctl_service_restart    1006bac7 f   proctl_service.obj
 0001:0006ab03       _proctl_msg_start          1006bb03 f   proctl_service.obj
 0001:0006ab35       _proctl_msg_main           1006bb35 f   proctl_service.obj
 0001:0006acad       $LN9                       1006bcad     proctl_utils.obj
 0001:0006acb5       $LN8                       1006bcb5     proctl_utils.obj
 0001:0006acf1       $LN7                       1006bcf1     proctl_utils.obj
 0001:0006acfa       $LN6                       1006bcfa     proctl_utils.obj
 0001:0006ad04       $LN5                       1006bd04     proctl_utils.obj
 0001:0006ad0d       $LN4                       1006bd0d     proctl_utils.obj
 0001:0006ad14       $LN3                       1006bd14     proctl_utils.obj
 0001:0006ae3a       $LN12                      1006be3a     proctl_utils.obj
 0001:0006ae42       $LN11                      1006be42     proctl_utils.obj
 0001:0006ae7e       $LN10                      1006be7e     proctl_utils.obj
 0001:0006ae87       $LN9                       1006be87     proctl_utils.obj
 0001:0006ae91       $LN8                       1006be91     proctl_utils.obj
 0001:0006ae9a       $LN7                       1006be9a     proctl_utils.obj
 0001:0006aea1       $LN6                       1006bea1     proctl_utils.obj
 0001:0006b027       $LN7                       1006c027     proctl_utils.obj
 0001:0006b02f       $LN6                       1006c02f     proctl_utils.obj
 0001:0006b03b       $LN5                       1006c03b     proctl_utils.obj
 0001:0006b334       $LN15                      1006c334     proctl_utils.obj
 0001:0006b33c       $LN14                      1006c33c     proctl_utils.obj
 0001:0006b354       $LN13                      1006c354     proctl_utils.obj
 0001:0006b359       $LN12                      1006c359     proctl_utils.obj
 0001:0006b405       _get_main_thread_id        1006c405 f   acl_init.obj
 0001:0006b4b5       $LN10                      1006c4b5     acl_init.obj
 0001:0006b4bd       $LN9                       1006c4bd     acl_init.obj
 0001:0006b4c9       $LN8                       1006c4c9     acl_init.obj
 0001:0006b8e5       _array_iter_head           1006c8e5 f   private_array.obj
 0001:0006b94e       _array_iter_next           1006c94e f   private_array.obj
 0001:0006b9a1       _array_iter_tail           1006c9a1 f   private_array.obj
 0001:0006ba28       _array_iter_prev           1006ca28 f   private_array.obj
 0001:0006ba76       _array_init                1006ca76 f   private_array.obj
 0001:0006ba91       _array_prepare_append      1006ca91 f   private_array.obj
 0001:0006bddb       _fifo_iter_head            1006cddb f   private_fifo.obj
 0001:0006be4a       _fifo_iter_next            1006ce4a f   private_fifo.obj
 0001:0006beb4       _fifo_iter_tail            1006ceb4 f   private_fifo.obj
 0001:0006bf2a       _fifo_iter_prev            1006cf2a f   private_fifo.obj
 0001:0006bf94       _fifo_iter_info            1006cf94 f   private_fifo.obj
 0001:0006c08f       $LN5                       1006d08f     private_vstream.obj
 0001:0006c097       $LN4                       1006d097     private_vstream.obj
 0001:0006c0a3       $LN3                       1006d0a3     private_vstream.obj
 0001:0006d02f       ___sys_getc                1006e02f f   private_vstream.obj
 0001:0006d0cc       ___read_wait               1006e0cc f   private_vstream.obj
 0001:0006d2b4       $LN35                      1006e2b4     private_vstream.obj
 0001:0006d2bc       $LN34                      1006e2bc     private_vstream.obj
 0001:0006d2e0       $LN33                      1006e2e0     private_vstream.obj
 0001:0006d2e3       $LN32                      1006e2e3     private_vstream.obj
 0001:0006d2ee       $LN31                      1006e2ee     private_vstream.obj
 0001:0006d2f7       ___vstream_sys_read        1006e2f7 f   private_vstream.obj
 0001:0006d6cb       $LN34                      1006e6cb     private_vstream.obj
 0001:0006d6d3       $LN33                      1006e6d3     private_vstream.obj
 0001:0006d6df       $LN32                      1006e6df     private_vstream.obj
 0001:0006d6e4       _vstream_bfcp_some         1006e6e4 f   private_vstream.obj
 0001:0006d7fa       ___vstream_sys_write       1006e7fa f   private_vstream.obj
 0001:0006da67       ___loop_writen             1006ea67 f   private_vstream.obj
 0001:0006e5cb       _node_iter_head            1006f5cb f   acl_json.obj
 0001:0006e640       _node_iter_next            1006f640 f   acl_json.obj
 0001:0006e6ab       _node_iter_tail            1006f6ab f   acl_json.obj
 0001:0006e720       _node_iter_prev            1006f720 f   acl_json.obj
 0001:0006e78b       _acl_json_node_reset       1006f78b f   acl_json.obj
 0001:0006e8a1       _acl_json_node_free        1006f8a1 f   acl_json.obj
 0001:0006e911       _json_iter_head            1006f911 f   acl_json.obj
 0001:0006e98c       _json_iter_next            1006f98c f   acl_json.obj
 0001:0006eadf       _json_iter_tail            1006fadf f   acl_json.obj
 0001:0006eb5a       _json_iter_prev            1006fb5a f   acl_json.obj
 0001:0006ed0d       _json_obj                  1006fd0d f   acl_json_parse.obj
 0001:0006ee83       _json_root                 1006fe83 f   acl_json_parse.obj
 0001:0006eebf       _json_next                 1006febf f   acl_json_parse.obj
 0001:0006f01f       _json_tag                  1007001f f   acl_json_parse.obj
 0001:0006f645       _json_colon                10070645 f   acl_json_parse.obj
 0001:0006f6bf       _json_val                  100706bf f   acl_json_parse.obj
 0001:0006fdb9       $LN10                      10070db9     acl_json_util.obj
 0001:0006fdc1       $LN9                       10070dc1     acl_json_util.obj
 0001:0006fdcd       $LN8                       10070dcd     acl_json_util.obj
 0001:0006ff62       $LN14                      10070f62     acl_json_util.obj
 0001:0006ff6a       $LN13                      10070f6a     acl_json_util.obj
 0001:0006ff76       $LN12                      10070f76     acl_json_util.obj
 0001:000705bc       $LN42                      100715bc     acl_json_util.obj
 0001:000705c4       $LN41                      100715c4     acl_json_util.obj
 0001:000705d0       $LN40                      100715d0     acl_json_util.obj
 0001:000705d5       _json_escape_append        100715d5 f   acl_json_util.obj
 0001:00071260       $$000000                   10072260     MSVCRTD:llmul.obj
 0001:000712b0       $$000000                   100722b0     MSVCRTD:chkstk.obj
 0001:00071300       $$000000                   10072300     MSVCRTD:ullshr.obj
 0001:00071370       $$000000                   10072370     MSVCRTD:llshl.obj
 0001:000713b0       $$000000                   100723b0     MSVCRTD:lldiv.obj
 0001:00071460       $$000000                   10072460     MSVCRTD:llrem.obj
 0001:00071550       $$000000                   10072550     MSVCRTD:ulldiv.obj
 0001:000715c0       $$000000                   100725c0     MSVCRTD:ullrem.obj
 0001:00071640       $$000000                   10072640     MSVCRTD:ftol2.obj
 0001:00071710       _pre_c_init                10072710 f   MSVCRTD:crtdll.obj
 0001:00071ab0       ___DllMainCRTStartup       10072ab0 f   MSVCRTD:crtdll.obj
 0001:00071c70       ?DebuggerProbe@@YAHK@Z     10072c70 f   MSVCRTD:error.obj
 0001:00071d10       ?DebuggerRuntime@@YAHKHPAXPB_W@Z 10072d10 f   MSVCRTD:error.obj
 0001:00072080       ?_getMemBlockDataString@@YAXPAD00I@Z 10073080 f   MSVCRTD:error.obj
 0001:000720f0       ?failwithmessage@@YAXPAXHHPBD@Z 100730f0 f   MSVCRTD:error.obj
 0001:00072ad0       ?GetPdbDll@@YAPAUHINSTANCE__@@XZ 10073ad0 f   MSVCRTD:pdblkup.obj
 0001:00072c10       ?GetPdbDllFromInstallPath@@YAPAUHINSTANCE__@@XZ 10073c10 f   MSVCRTD:pdblkup.obj
 0001:00072e30       ?GetPdbDllPathFromFilePath@@YAHPB_WPA_WI@Z 10073e30 f   MSVCRTD:pdblkup.obj
 0002:0000037c       _pcinit                    1007537c     MSVCRTD:crtdll.obj
 0002:00000380       _pinit                     10075380     MSVCRTD:atonexit.obj
 0002:00000384       _pinit                     10075384     MSVCRTD:cpu_disp.obj
 0002:000003c8       _to_b64_tab                100753c8     acl_base64.obj
 0002:00000410       _un_b64_tab                10075410     acl_base64.obj
 0002:00000510       ___jt2ft_tab               10075510     acl_gbcode.obj
 0002:00020510       ___ft2jt_tab               10095510     acl_gbcode.obj
 0002:00040510       _html_tab                  100b5510     acl_htmlcode.obj
 0002:000410f0       _to_b64                    100b60f0     acl_vstring_base64.obj
 0002:00041138       _un_b64                    100b6138     acl_vstring_base64.obj
 0002:00041238       ___tab                     100b6238     acl_xmlcode.obj
 0002:000412b0       _crc32_table               100b62b0     acl_hash.obj
 0002:000416b0       _avl_child2balance         100b66b0     avl.obj
 0002:000416b8       _avl_balance2child         100b66b8     avl.obj
 0002:000416c4       _acl_hex_chars             100b66c4     acl_hex_code.obj
 0002:000416d8       _mem_unlimited_size        100b66d8     squid_allocator.obj
 0002:00041720       _label                     100b6720     vstring_pool.obj
 0002:00041728       ?errmsg@?1??acl_dns_serror@@9@9 100b6728     acl_dns.obj
 0002:000417d0       ?errmsg@?1??acl_res_strerror@@9@9 100b67d0     acl_res.obj
 0002:00041800       ?errmsg@?1??rfc1035Strerror@@9@9 100b6800     rfc1035.obj
 0002:00041840       _GS_ExceptionPointers      100b6840     MSVCRTD:gs_report.obj
 0002:000419dc       __RTC_ErrorMessages        100b69dc     MSVCRTD:error.obj
 0002:000419f4       __RTC_NoFalsePositives     100b69f4     MSVCRTD:error.obj
 0002:00041a0c       _stack_premsg              100b6a0c     MSVCRTD:error.obj
 0002:00041a28       _stack_postmsg             100b6a28     MSVCRTD:error.obj
 0002:00041a3c       _uninit_premsg             100b6a3c     MSVCRTD:error.obj
 0002:00041a4c       _uninit_postmsg            100b6a4c     MSVCRTD:error.obj
 0002:00041fb4       __RTC_errlist              100b6fb4     MSVCRTD:userapi.obj
 0002:000420ac       _mspdbName                 100b70ac     MSVCRTD:pdblkup.obj
 0002:000420c8       _msvcrdFilename            100b70c8     MSVCRTD:pdblkup.obj
 0002:000421b8       ?dllExt@?1??GetPdbDllPathFromFilePath@@YAHPB_WPA_WI@Z@4QB_WB 100b71b8     MSVCRTD:pdblkup.obj
 0002:000421c0       ?mspdbFilename@?1??GetPdbDllPathFromFilePath@@YAHPB_WPA_WI@Z@4QB_WB 100b71c0     MSVCRTD:pdblkup.obj
 0002:000422a8       __RTC_InitBase.rtc$IMZ     100b72a8     acl_base64.obj
 0002:000422ac       __RTC_InitBase.rtc$IMZ     100b72ac     acl_gbcode.obj
 0002:000422b0       __RTC_InitBase.rtc$IMZ     100b72b0     acl_htmlcode.obj
 0002:000422b4       __RTC_InitBase.rtc$IMZ     100b72b4     acl_urlcode.obj
 0002:000422b8       __RTC_InitBase.rtc$IMZ     100b72b8     acl_vstring_base64.obj
 0002:000422bc       __RTC_InitBase.rtc$IMZ     100b72bc     acl_xmlcode.obj
 0002:000422c0       __RTC_InitBase.rtc$IMZ     100b72c0     uni2utf8.obj
 0002:000422c4       __RTC_InitBase.rtc$IMZ     100b72c4     acl_chunk_chain.obj
 0002:000422c8       __RTC_InitBase.rtc$IMZ     100b72c8     acl_debug.obj
 0002:000422cc       __RTC_InitBase.rtc$IMZ     100b72cc     acl_file.obj
 0002:000422d0       __RTC_InitBase.rtc$IMZ     100b72d0     acl_getopt.obj
 0002:000422d4       __RTC_InitBase.rtc$IMZ     100b72d4     acl_meter_time.obj
 0002:000422d8       __RTC_InitBase.rtc$IMZ     100b72d8     acl_msg.obj
 0002:000422dc       __RTC_InitBase.rtc$IMZ     100b72dc     acl_myflock.obj
 0002:000422e0       __RTC_InitBase.rtc$IMZ     100b72e0     acl_mylog.obj
 0002:000422e4       __RTC_InitBase.rtc$IMZ     100b72e4     acl_readline.obj
 0002:000422e8       __RTC_InitBase.rtc$IMZ     100b72e8     acl_vbuf.obj
 0002:000422ec       __RTC_InitBase.rtc$IMZ     100b72ec     acl_vbuf_print.obj
 0002:000422f0       __RTC_InitBase.rtc$IMZ     100b72f0     acl_vsprintf.obj
 0002:000422f4       __RTC_InitBase.rtc$IMZ     100b72f4     acl_vstream.obj
 0002:000422f8       __RTC_InitBase.rtc$IMZ     100b72f8     acl_vstream_popen.obj
 0002:000422fc       __RTC_InitBase.rtc$IMZ     100b72fc     acl_vstring.obj
 0002:00042300       __RTC_InitBase.rtc$IMZ     100b7300     acl_vstring_vstream.obj
 0002:00042304       __RTC_InitBase.rtc$IMZ     100b7304     acl_doze.obj
 0002:00042308       __RTC_InitBase.rtc$IMZ     100b7308     acl_duplex_pipe.obj
 0002:0004230c       __RTC_InitBase.rtc$IMZ     100b730c     acl_non_blocking.obj
 0002:00042310       __RTC_InitBase.rtc$IMZ     100b7310     acl_peekfd.obj
 0002:00042314       __RTC_InitBase.rtc$IMZ     100b7314     acl_pipe.obj
 0002:00042318       __RTC_InitBase.rtc$IMZ     100b7318     acl_read_wait.obj
 0002:0004231c       __RTC_InitBase.rtc$IMZ     100b731c     acl_readable.obj
 0002:00042320       __RTC_InitBase.rtc$IMZ     100b7320     acl_timed_read.obj
 0002:00042324       __RTC_InitBase.rtc$IMZ     100b7324     acl_timed_write.obj
 0002:00042328       __RTC_InitBase.rtc$IMZ     100b7328     acl_write_buf.obj
 0002:0004232c       __RTC_InitBase.rtc$IMZ     100b732c     acl_write_wait.obj
 0002:00042330       __RTC_InitBase.rtc$IMZ     100b7330     acl_argv.obj
 0002:00042334       __RTC_InitBase.rtc$IMZ     100b7334     acl_argv_split.obj
 0002:00042338       __RTC_InitBase.rtc$IMZ     100b7338     acl_array.obj
 0002:0004233c       __RTC_InitBase.rtc$IMZ     100b733c     acl_binhash.obj
 0002:00042340       __RTC_InitBase.rtc$IMZ     100b7340     acl_btree.obj
 0002:00042344       __RTC_InitBase.rtc$IMZ     100b7344     acl_cache.obj
 0002:00042348       __RTC_InitBase.rtc$IMZ     100b7348     acl_cache2.obj
 0002:0004234c       __RTC_InitBase.rtc$IMZ     100b734c     acl_dlink.obj
 0002:00042350       __RTC_InitBase.rtc$IMZ     100b7350     acl_fifo.obj
 0002:00042354       __RTC_InitBase.rtc$IMZ     100b7354     acl_hash.obj
 0002:00042358       __RTC_InitBase.rtc$IMZ     100b7358     acl_htable.obj
 0002:0004235c       __RTC_InitBase.rtc$IMZ     100b735c     acl_iplink.obj
 0002:00042360       __RTC_InitBase.rtc$IMZ     100b7360     acl_ring.obj
 0002:00042364       __RTC_InitBase.rtc$IMZ     100b7364     acl_stack.obj
 0002:00042368       __RTC_InitBase.rtc$IMZ     100b7368     acl_token_tree.obj
 0002:0004236c       __RTC_InitBase.rtc$IMZ     100b736c     avl.obj
 0002:00042370       __RTC_InitBase.rtc$IMZ     100b7370     acl_loadcfg.obj
 0002:00042374       __RTC_InitBase.rtc$IMZ     100b7374     acl_xinetd_cfg.obj
 0002:00042378       __RTC_InitBase.rtc$IMZ     100b7378     acl_xinetd_params.obj
 0002:0004237c       __RTC_InitBase.rtc$IMZ     100b737c     acl_dir.obj
 0002:00042380       __RTC_InitBase.rtc$IMZ     100b7380     acl_fhandle.obj
 0002:00042384       __RTC_InitBase.rtc$IMZ     100b7384     acl_make_dirs.obj
 0002:00042388       __RTC_InitBase.rtc$IMZ     100b7388     acl_sane_basename.obj
 0002:0004238c       __RTC_InitBase.rtc$IMZ     100b738c     acl_scan_dir.obj
 0002:00042390       __RTC_InitBase.rtc$IMZ     100b7390     acl_dll.obj
 0002:00042394       __RTC_InitBase.rtc$IMZ     100b7394     acl_env.obj
 0002:00042398       __RTC_InitBase.rtc$IMZ     100b7398     acl_exec_command.obj
 0002:0004239c       __RTC_InitBase.rtc$IMZ     100b739c     acl_process.obj
 0002:000423a0       __RTC_InitBase.rtc$IMZ     100b73a0     acl_safe_getenv.obj
 0002:000423a4       __RTC_InitBase.rtc$IMZ     100b73a4     acl_sys_file.obj
 0002:000423a8       __RTC_InitBase.rtc$IMZ     100b73a8     acl_sys_socket.obj
 0002:000423ac       __RTC_InitBase.rtc$IMZ     100b73ac     acl_unsafe.obj
 0002:000423b0       __RTC_InitBase.rtc$IMZ     100b73b0     gettimeofday.obj
 0002:000423b4       __RTC_InitBase.rtc$IMZ     100b73b4     sleep.obj
 0002:000423b8       __RTC_InitBase.rtc$IMZ     100b73b8     snprintf.obj
 0002:000423bc       __RTC_InitBase.rtc$IMZ     100b73bc     acl_alldig.obj
 0002:000423c0       __RTC_InitBase.rtc$IMZ     100b73c0     acl_basename.obj
 0002:000423c4       __RTC_InitBase.rtc$IMZ     100b73c4     acl_concatenate.obj
 0002:000423c8       __RTC_InitBase.rtc$IMZ     100b73c8     acl_hex_code.obj
 0002:000423cc       __RTC_InitBase.rtc$IMZ     100b73cc     acl_mystring.obj
 0002:000423d0       __RTC_InitBase.rtc$IMZ     100b73d0     acl_split_at.obj
 0002:000423d4       __RTC_InitBase.rtc$IMZ     100b73d4     acl_split_nameval.obj
 0002:000423d8       __RTC_InitBase.rtc$IMZ     100b73d8     acl_str2time.obj
 0002:000423dc       __RTC_InitBase.rtc$IMZ     100b73dc     strcasecmp.obj
 0002:000423e0       __RTC_InitBase.rtc$IMZ     100b73e0     strcasestr.obj
 0002:000423e4       __RTC_InitBase.rtc$IMZ     100b73e4     acl_allocator.obj
 0002:000423e8       __RTC_InitBase.rtc$IMZ     100b73e8     acl_dbuf_pool.obj
 0002:000423ec       __RTC_InitBase.rtc$IMZ     100b73ec     acl_default_malloc.obj
 0002:000423f0       __RTC_InitBase.rtc$IMZ     100b73f0     acl_malloc_glue.obj
 0002:000423f4       __RTC_InitBase.rtc$IMZ     100b73f4     acl_mem_hook.obj
 0002:000423f8       __RTC_InitBase.rtc$IMZ     100b73f8     acl_mem_slice.obj
 0002:000423fc       __RTC_InitBase.rtc$IMZ     100b73fc     acl_mempool.obj
 0002:00042400       __RTC_InitBase.rtc$IMZ     100b7400     acl_slice.obj
 0002:00042404       __RTC_InitBase.rtc$IMZ     100b7404     mem_pool.obj
 0002:00042408       __RTC_InitBase.rtc$IMZ     100b7408     squid_allocator.obj
 0002:0004240c       __RTC_InitBase.rtc$IMZ     100b740c     squid_allocator_tools.obj
 0002:00042410       __RTC_InitBase.rtc$IMZ     100b7410     vstring_pool.obj
 0002:00042414       __RTC_InitBase.rtc$IMZ     100b7414     acl_debug_malloc.obj
 0002:00042418       __RTC_InitBase.rtc$IMZ     100b7418     debug_htable.obj
 0002:0004241c       __RTC_InitBase.rtc$IMZ     100b741c     acl_access.obj
 0002:00042420       __RTC_InitBase.rtc$IMZ     100b7420     acl_host_port.obj
 0002:00042424       __RTC_InitBase.rtc$IMZ     100b7424     acl_ifconf.obj
 0002:00042428       __RTC_InitBase.rtc$IMZ     100b7428     acl_mask_addr.obj
 0002:0004242c       __RTC_InitBase.rtc$IMZ     100b742c     acl_sane_inet.obj
 0002:00042430       __RTC_InitBase.rtc$IMZ     100b7430     acl_sane_socket.obj
 0002:00042434       __RTC_InitBase.rtc$IMZ     100b7434     acl_tcp_ctl.obj
 0002:00042438       __RTC_InitBase.rtc$IMZ     100b7438     acl_valid_hostname.obj
 0002:0004243c       __RTC_InitBase.rtc$IMZ     100b743c     acl_vstream_net.obj
 0002:00042440       __RTC_InitBase.rtc$IMZ     100b7440     acl_inet_listen.obj
 0002:00042444       __RTC_InitBase.rtc$IMZ     100b7444     acl_sane_accept.obj
 0002:00042448       __RTC_InitBase.rtc$IMZ     100b7448     acl_inet_connect.obj
 0002:0004244c       __RTC_InitBase.rtc$IMZ     100b744c     acl_sane_connect.obj
 0002:00042450       __RTC_InitBase.rtc$IMZ     100b7450     acl_timed_connect.obj
 0002:00042454       __RTC_InitBase.rtc$IMZ     100b7454     acl_dns.obj
 0002:00042458       __RTC_InitBase.rtc$IMZ     100b7458     acl_netdb.obj
 0002:0004245c       __RTC_InitBase.rtc$IMZ     100b745c     acl_netdb_cache.obj
 0002:00042460       __RTC_InitBase.rtc$IMZ     100b7460     acl_res.obj
 0002:00042464       __RTC_InitBase.rtc$IMZ     100b7464     res_util.obj
 0002:00042468       __RTC_InitBase.rtc$IMZ     100b7468     rfc1035.obj
 0002:0004246c       __RTC_InitBase.rtc$IMZ     100b746c     acl_pthread.obj
 0002:00042470       __RTC_InitBase.rtc$IMZ     100b7470     acl_pthread_cond.obj
 0002:00042474       __RTC_InitBase.rtc$IMZ     100b7474     acl_pthread_mutex.obj
 0002:00042478       __RTC_InitBase.rtc$IMZ     100b7478     acl_pthread_pool.obj
 0002:0004247c       __RTC_InitBase.rtc$IMZ     100b747c     acl_pthread_rwlock.obj
 0002:00042480       __RTC_InitBase.rtc$IMZ     100b7480     acl_sem.obj
 0002:00042484       __RTC_InitBase.rtc$IMZ     100b7484     acl_aqueue.obj
 0002:00042488       __RTC_InitBase.rtc$IMZ     100b7488     acl_msgio.obj
 0002:0004248c       __RTC_InitBase.rtc$IMZ     100b748c     acl_xml.obj
 0002:00042490       __RTC_InitBase.rtc$IMZ     100b7490     acl_xml_parse.obj
 0002:00042494       __RTC_InitBase.rtc$IMZ     100b7494     acl_xml_util.obj
 0002:00042498       __RTC_InitBase.rtc$IMZ     100b7498     acl_events.obj
 0002:0004249c       __RTC_InitBase.rtc$IMZ     100b749c     acl_timer.obj
 0002:000424a0       __RTC_InitBase.rtc$IMZ     100b74a0     events.obj
 0002:000424a4       __RTC_InitBase.rtc$IMZ     100b74a4     events_alloc.obj
 0002:000424a8       __RTC_InitBase.rtc$IMZ     100b74a8     events_dog.obj
 0002:000424ac       __RTC_InitBase.rtc$IMZ     100b74ac     events_fdtable.obj
 0002:000424b0       __RTC_InitBase.rtc$IMZ     100b74b0     events_iocp.obj
 0002:000424b4       __RTC_InitBase.rtc$IMZ     100b74b4     events_select.obj
 0002:000424b8       __RTC_InitBase.rtc$IMZ     100b74b8     events_select_thr.obj
 0002:000424bc       __RTC_InitBase.rtc$IMZ     100b74bc     events_timer.obj
 0002:000424c0       __RTC_InitBase.rtc$IMZ     100b74c0     events_timer_thr.obj
 0002:000424c4       __RTC_InitBase.rtc$IMZ     100b74c4     events_wmsg.obj
 0002:000424c8       __RTC_InitBase.rtc$IMZ     100b74c8     fdmap.obj
 0002:000424cc       __RTC_InitBase.rtc$IMZ     100b74cc     acl_ioctl.obj
 0002:000424d0       __RTC_InitBase.rtc$IMZ     100b74d0     ioctl_proc.obj
 0002:000424d4       __RTC_InitBase.rtc$IMZ     100b74d4     ioctl_thr.obj
 0002:000424d8       __RTC_InitBase.rtc$IMZ     100b74d8     acl_aio.obj
 0002:000424dc       __RTC_InitBase.rtc$IMZ     100b74dc     acl_aio_connect.obj
 0002:000424e0       __RTC_InitBase.rtc$IMZ     100b74e0     acl_aio_listen.obj
 0002:000424e4       __RTC_InitBase.rtc$IMZ     100b74e4     acl_aio_read.obj
 0002:000424e8       __RTC_InitBase.rtc$IMZ     100b74e8     acl_aio_stream.obj
 0002:000424ec       __RTC_InitBase.rtc$IMZ     100b74ec     acl_aio_write.obj
 0002:000424f0       __RTC_InitBase.rtc$IMZ     100b74f0     aio_callback.obj
 0002:000424f4       __RTC_InitBase.rtc$IMZ     100b74f4     acl_dbpool.obj
 0002:000424f8       __RTC_InitBase.rtc$IMZ     100b74f8     acl_dbsql.obj
 0002:000424fc       __RTC_InitBase.rtc$IMZ     100b74fc     acl_mdb.obj
 0002:00042500       __RTC_InitBase.rtc$IMZ     100b7500     acl_mdt.obj
 0002:00042504       __RTC_InitBase.rtc$IMZ     100b7504     acl_mdt_avl.obj
 0002:00042508       __RTC_InitBase.rtc$IMZ     100b7508     acl_mdt_binhash.obj
 0002:0004250c       __RTC_InitBase.rtc$IMZ     100b750c     acl_mdt_hash.obj
 0002:00042510       __RTC_InitBase.rtc$IMZ     100b7510     acl_dbnull.obj
 0002:00042514       __RTC_InitBase.rtc$IMZ     100b7514     acl_dbpool_null.obj
 0002:00042518       __RTC_InitBase.rtc$IMZ     100b7518     zdb.obj
 0002:0004251c       __RTC_InitBase.rtc$IMZ     100b751c     zdb_dat.obj
 0002:00042520       __RTC_InitBase.rtc$IMZ     100b7520     zdb_dat_iter.obj
 0002:00042524       __RTC_InitBase.rtc$IMZ     100b7524     zdb_dat_walk.obj
 0002:00042528       __RTC_InitBase.rtc$IMZ     100b7528     zdb_io.obj
 0002:0004252c       __RTC_InitBase.rtc$IMZ     100b752c     zdb_key.obj
 0002:00042530       __RTC_InitBase.rtc$IMZ     100b7530     zdb_key_walk.obj
 0002:00042534       __RTC_InitBase.rtc$IMZ     100b7534     acl_test_cfg.obj
 0002:00042538       __RTC_InitBase.rtc$IMZ     100b7538     acl_test_cfg_general.obj
 0002:0004253c       __RTC_InitBase.rtc$IMZ     100b753c     acl_test_inner.obj
 0002:00042540       __RTC_InitBase.rtc$IMZ     100b7540     acl_test_log.obj
 0002:00042544       __RTC_InitBase.rtc$IMZ     100b7544     acl_test_loop.obj
 0002:00042548       __RTC_InitBase.rtc$IMZ     100b7548     acl_test_misc.obj
 0002:0004254c       __RTC_InitBase.rtc$IMZ     100b754c     acl_test_outer.obj
 0002:00042550       __RTC_InitBase.rtc$IMZ     100b7550     acl_test_runner.obj
 0002:00042554       __RTC_InitBase.rtc$IMZ     100b7554     acl_test_token.obj
 0002:00042558       __RTC_InitBase.rtc$IMZ     100b7558     master_params.obj
 0002:0004255c       __RTC_InitBase.rtc$IMZ     100b755c     acl_proctl.obj
 0002:00042560       __RTC_InitBase.rtc$IMZ     100b7560     proctl_child.obj
 0002:00042564       __RTC_InitBase.rtc$IMZ     100b7564     proctl_monitor.obj
 0002:00042568       __RTC_InitBase.rtc$IMZ     100b7568     proctl_service.obj
 0002:0004256c       __RTC_InitBase.rtc$IMZ     100b756c     proctl_utils.obj
 0002:00042570       __RTC_InitBase.rtc$IMZ     100b7570     acl_init.obj
 0002:00042574       __RTC_InitBase.rtc$IMZ     100b7574     private_array.obj
 0002:00042578       __RTC_InitBase.rtc$IMZ     100b7578     private_fifo.obj
 0002:0004257c       __RTC_InitBase.rtc$IMZ     100b757c     private_vstream.obj
 0002:00042580       __RTC_InitBase.rtc$IMZ     100b7580     sem.obj
 0002:00042584       __RTC_InitBase.rtc$IMZ     100b7584     thread_mutex.obj
 0002:00042588       __RTC_InitBase.rtc$IMZ     100b7588     acl_json.obj
 0002:0004258c       __RTC_InitBase.rtc$IMZ     100b758c     acl_json_parse.obj
 0002:00042590       __RTC_InitBase.rtc$IMZ     100b7590     acl_json_util.obj
 0002:0004259c       __RTC_Shutdown.rtc$TMZ     100b759c     acl_base64.obj
 0002:000425a0       __RTC_Shutdown.rtc$TMZ     100b75a0     acl_gbcode.obj
 0002:000425a4       __RTC_Shutdown.rtc$TMZ     100b75a4     acl_htmlcode.obj
 0002:000425a8       __RTC_Shutdown.rtc$TMZ     100b75a8     acl_urlcode.obj
 0002:000425ac       __RTC_Shutdown.rtc$TMZ     100b75ac     acl_vstring_base64.obj
 0002:000425b0       __RTC_Shutdown.rtc$TMZ     100b75b0     acl_xmlcode.obj
 0002:000425b4       __RTC_Shutdown.rtc$TMZ     100b75b4     uni2utf8.obj
 0002:000425b8       __RTC_Shutdown.rtc$TMZ     100b75b8     acl_chunk_chain.obj
 0002:000425bc       __RTC_Shutdown.rtc$TMZ     100b75bc     acl_debug.obj
 0002:000425c0       __RTC_Shutdown.rtc$TMZ     100b75c0     acl_file.obj
 0002:000425c4       __RTC_Shutdown.rtc$TMZ     100b75c4     acl_getopt.obj
 0002:000425c8       __RTC_Shutdown.rtc$TMZ     100b75c8     acl_meter_time.obj
 0002:000425cc       __RTC_Shutdown.rtc$TMZ     100b75cc     acl_msg.obj
 0002:000425d0       __RTC_Shutdown.rtc$TMZ     100b75d0     acl_myflock.obj
 0002:000425d4       __RTC_Shutdown.rtc$TMZ     100b75d4     acl_mylog.obj
 0002:000425d8       __RTC_Shutdown.rtc$TMZ     100b75d8     acl_readline.obj
 0002:000425dc       __RTC_Shutdown.rtc$TMZ     100b75dc     acl_vbuf.obj
 0002:000425e0       __RTC_Shutdown.rtc$TMZ     100b75e0     acl_vbuf_print.obj
 0002:000425e4       __RTC_Shutdown.rtc$TMZ     100b75e4     acl_vsprintf.obj
 0002:000425e8       __RTC_Shutdown.rtc$TMZ     100b75e8     acl_vstream.obj
 0002:000425ec       __RTC_Shutdown.rtc$TMZ     100b75ec     acl_vstream_popen.obj
 0002:000425f0       __RTC_Shutdown.rtc$TMZ     100b75f0     acl_vstring.obj
 0002:000425f4       __RTC_Shutdown.rtc$TMZ     100b75f4     acl_vstring_vstream.obj
 0002:000425f8       __RTC_Shutdown.rtc$TMZ     100b75f8     acl_doze.obj
 0002:000425fc       __RTC_Shutdown.rtc$TMZ     100b75fc     acl_duplex_pipe.obj
 0002:00042600       __RTC_Shutdown.rtc$TMZ     100b7600     acl_non_blocking.obj
 0002:00042604       __RTC_Shutdown.rtc$TMZ     100b7604     acl_peekfd.obj
 0002:00042608       __RTC_Shutdown.rtc$TMZ     100b7608     acl_pipe.obj
 0002:0004260c       __RTC_Shutdown.rtc$TMZ     100b760c     acl_read_wait.obj
 0002:00042610       __RTC_Shutdown.rtc$TMZ     100b7610     acl_readable.obj
 0002:00042614       __RTC_Shutdown.rtc$TMZ     100b7614     acl_timed_read.obj
 0002:00042618       __RTC_Shutdown.rtc$TMZ     100b7618     acl_timed_write.obj
 0002:0004261c       __RTC_Shutdown.rtc$TMZ     100b761c     acl_write_buf.obj
 0002:00042620       __RTC_Shutdown.rtc$TMZ     100b7620     acl_write_wait.obj
 0002:00042624       __RTC_Shutdown.rtc$TMZ     100b7624     acl_argv.obj
 0002:00042628       __RTC_Shutdown.rtc$TMZ     100b7628     acl_argv_split.obj
 0002:0004262c       __RTC_Shutdown.rtc$TMZ     100b762c     acl_array.obj
 0002:00042630       __RTC_Shutdown.rtc$TMZ     100b7630     acl_binhash.obj
 0002:00042634       __RTC_Shutdown.rtc$TMZ     100b7634     acl_btree.obj
 0002:00042638       __RTC_Shutdown.rtc$TMZ     100b7638     acl_cache.obj
 0002:0004263c       __RTC_Shutdown.rtc$TMZ     100b763c     acl_cache2.obj
 0002:00042640       __RTC_Shutdown.rtc$TMZ     100b7640     acl_dlink.obj
 0002:00042644       __RTC_Shutdown.rtc$TMZ     100b7644     acl_fifo.obj
 0002:00042648       __RTC_Shutdown.rtc$TMZ     100b7648     acl_hash.obj
 0002:0004264c       __RTC_Shutdown.rtc$TMZ     100b764c     acl_htable.obj
 0002:00042650       __RTC_Shutdown.rtc$TMZ     100b7650     acl_iplink.obj
 0002:00042654       __RTC_Shutdown.rtc$TMZ     100b7654     acl_ring.obj
 0002:00042658       __RTC_Shutdown.rtc$TMZ     100b7658     acl_stack.obj
 0002:0004265c       __RTC_Shutdown.rtc$TMZ     100b765c     acl_token_tree.obj
 0002:00042660       __RTC_Shutdown.rtc$TMZ     100b7660     avl.obj
 0002:00042664       __RTC_Shutdown.rtc$TMZ     100b7664     acl_loadcfg.obj
 0002:00042668       __RTC_Shutdown.rtc$TMZ     100b7668     acl_xinetd_cfg.obj
 0002:0004266c       __RTC_Shutdown.rtc$TMZ     100b766c     acl_xinetd_params.obj
 0002:00042670       __RTC_Shutdown.rtc$TMZ     100b7670     acl_dir.obj
 0002:00042674       __RTC_Shutdown.rtc$TMZ     100b7674     acl_fhandle.obj
 0002:00042678       __RTC_Shutdown.rtc$TMZ     100b7678     acl_make_dirs.obj
 0002:0004267c       __RTC_Shutdown.rtc$TMZ     100b767c     acl_sane_basename.obj
 0002:00042680       __RTC_Shutdown.rtc$TMZ     100b7680     acl_scan_dir.obj
 0002:00042684       __RTC_Shutdown.rtc$TMZ     100b7684     acl_dll.obj
 0002:00042688       __RTC_Shutdown.rtc$TMZ     100b7688     acl_env.obj
 0002:0004268c       __RTC_Shutdown.rtc$TMZ     100b768c     acl_exec_command.obj
 0002:00042690       __RTC_Shutdown.rtc$TMZ     100b7690     acl_process.obj
 0002:00042694       __RTC_Shutdown.rtc$TMZ     100b7694     acl_safe_getenv.obj
 0002:00042698       __RTC_Shutdown.rtc$TMZ     100b7698     acl_sys_file.obj
 0002:0004269c       __RTC_Shutdown.rtc$TMZ     100b769c     acl_sys_socket.obj
 0002:000426a0       __RTC_Shutdown.rtc$TMZ     100b76a0     acl_unsafe.obj
 0002:000426a4       __RTC_Shutdown.rtc$TMZ     100b76a4     gettimeofday.obj
 0002:000426a8       __RTC_Shutdown.rtc$TMZ     100b76a8     sleep.obj
 0002:000426ac       __RTC_Shutdown.rtc$TMZ     100b76ac     snprintf.obj
 0002:000426b0       __RTC_Shutdown.rtc$TMZ     100b76b0     acl_alldig.obj
 0002:000426b4       __RTC_Shutdown.rtc$TMZ     100b76b4     acl_basename.obj
 0002:000426b8       __RTC_Shutdown.rtc$TMZ     100b76b8     acl_concatenate.obj
 0002:000426bc       __RTC_Shutdown.rtc$TMZ     100b76bc     acl_hex_code.obj
 0002:000426c0       __RTC_Shutdown.rtc$TMZ     100b76c0     acl_mystring.obj
 0002:000426c4       __RTC_Shutdown.rtc$TMZ     100b76c4     acl_split_at.obj
 0002:000426c8       __RTC_Shutdown.rtc$TMZ     100b76c8     acl_split_nameval.obj
 0002:000426cc       __RTC_Shutdown.rtc$TMZ     100b76cc     acl_str2time.obj
 0002:000426d0       __RTC_Shutdown.rtc$TMZ     100b76d0     strcasecmp.obj
 0002:000426d4       __RTC_Shutdown.rtc$TMZ     100b76d4     strcasestr.obj
 0002:000426d8       __RTC_Shutdown.rtc$TMZ     100b76d8     acl_allocator.obj
 0002:000426dc       __RTC_Shutdown.rtc$TMZ     100b76dc     acl_dbuf_pool.obj
 0002:000426e0       __RTC_Shutdown.rtc$TMZ     100b76e0     acl_default_malloc.obj
 0002:000426e4       __RTC_Shutdown.rtc$TMZ     100b76e4     acl_malloc_glue.obj
 0002:000426e8       __RTC_Shutdown.rtc$TMZ     100b76e8     acl_mem_hook.obj
 0002:000426ec       __RTC_Shutdown.rtc$TMZ     100b76ec     acl_mem_slice.obj
 0002:000426f0       __RTC_Shutdown.rtc$TMZ     100b76f0     acl_mempool.obj
 0002:000426f4       __RTC_Shutdown.rtc$TMZ     100b76f4     acl_slice.obj
 0002:000426f8       __RTC_Shutdown.rtc$TMZ     100b76f8     mem_pool.obj
 0002:000426fc       __RTC_Shutdown.rtc$TMZ     100b76fc     squid_allocator.obj
 0002:00042700       __RTC_Shutdown.rtc$TMZ     100b7700     squid_allocator_tools.obj
 0002:00042704       __RTC_Shutdown.rtc$TMZ     100b7704     vstring_pool.obj
 0002:00042708       __RTC_Shutdown.rtc$TMZ     100b7708     acl_debug_malloc.obj
 0002:0004270c       __RTC_Shutdown.rtc$TMZ     100b770c     debug_htable.obj
 0002:00042710       __RTC_Shutdown.rtc$TMZ     100b7710     acl_access.obj
 0002:00042714       __RTC_Shutdown.rtc$TMZ     100b7714     acl_host_port.obj
 0002:00042718       __RTC_Shutdown.rtc$TMZ     100b7718     acl_ifconf.obj
 0002:0004271c       __RTC_Shutdown.rtc$TMZ     100b771c     acl_mask_addr.obj
 0002:00042720       __RTC_Shutdown.rtc$TMZ     100b7720     acl_sane_inet.obj
 0002:00042724       __RTC_Shutdown.rtc$TMZ     100b7724     acl_sane_socket.obj
 0002:00042728       __RTC_Shutdown.rtc$TMZ     100b7728     acl_tcp_ctl.obj
 0002:0004272c       __RTC_Shutdown.rtc$TMZ     100b772c     acl_valid_hostname.obj
 0002:00042730       __RTC_Shutdown.rtc$TMZ     100b7730     acl_vstream_net.obj
 0002:00042734       __RTC_Shutdown.rtc$TMZ     100b7734     acl_inet_listen.obj
 0002:00042738       __RTC_Shutdown.rtc$TMZ     100b7738     acl_sane_accept.obj
 0002:0004273c       __RTC_Shutdown.rtc$TMZ     100b773c     acl_inet_connect.obj
 0002:00042740       __RTC_Shutdown.rtc$TMZ     100b7740     acl_sane_connect.obj
 0002:00042744       __RTC_Shutdown.rtc$TMZ     100b7744     acl_timed_connect.obj
 0002:00042748       __RTC_Shutdown.rtc$TMZ     100b7748     acl_dns.obj
 0002:0004274c       __RTC_Shutdown.rtc$TMZ     100b774c     acl_netdb.obj
 0002:00042750       __RTC_Shutdown.rtc$TMZ     100b7750     acl_netdb_cache.obj
 0002:00042754       __RTC_Shutdown.rtc$TMZ     100b7754     acl_res.obj
 0002:00042758       __RTC_Shutdown.rtc$TMZ     100b7758     res_util.obj
 0002:0004275c       __RTC_Shutdown.rtc$TMZ     100b775c     rfc1035.obj
 0002:00042760       __RTC_Shutdown.rtc$TMZ     100b7760     acl_pthread.obj
 0002:00042764       __RTC_Shutdown.rtc$TMZ     100b7764     acl_pthread_cond.obj
 0002:00042768       __RTC_Shutdown.rtc$TMZ     100b7768     acl_pthread_mutex.obj
 0002:0004276c       __RTC_Shutdown.rtc$TMZ     100b776c     acl_pthread_pool.obj
 0002:00042770       __RTC_Shutdown.rtc$TMZ     100b7770     acl_pthread_rwlock.obj
 0002:00042774       __RTC_Shutdown.rtc$TMZ     100b7774     acl_sem.obj
 0002:00042778       __RTC_Shutdown.rtc$TMZ     100b7778     acl_aqueue.obj
 0002:0004277c       __RTC_Shutdown.rtc$TMZ     100b777c     acl_msgio.obj
 0002:00042780       __RTC_Shutdown.rtc$TMZ     100b7780     acl_xml.obj
 0002:00042784       __RTC_Shutdown.rtc$TMZ     100b7784     acl_xml_parse.obj
 0002:00042788       __RTC_Shutdown.rtc$TMZ     100b7788     acl_xml_util.obj
 0002:0004278c       __RTC_Shutdown.rtc$TMZ     100b778c     acl_events.obj
 0002:00042790       __RTC_Shutdown.rtc$TMZ     100b7790     acl_timer.obj
 0002:00042794       __RTC_Shutdown.rtc$TMZ     100b7794     events.obj
 0002:00042798       __RTC_Shutdown.rtc$TMZ     100b7798     events_alloc.obj
 0002:0004279c       __RTC_Shutdown.rtc$TMZ     100b779c     events_dog.obj
 0002:000427a0       __RTC_Shutdown.rtc$TMZ     100b77a0     events_fdtable.obj
 0002:000427a4       __RTC_Shutdown.rtc$TMZ     100b77a4     events_iocp.obj
 0002:000427a8       __RTC_Shutdown.rtc$TMZ     100b77a8     events_select.obj
 0002:000427ac       __RTC_Shutdown.rtc$TMZ     100b77ac     events_select_thr.obj
 0002:000427b0       __RTC_Shutdown.rtc$TMZ     100b77b0     events_timer.obj
 0002:000427b4       __RTC_Shutdown.rtc$TMZ     100b77b4     events_timer_thr.obj
 0002:000427b8       __RTC_Shutdown.rtc$TMZ     100b77b8     events_wmsg.obj
 0002:000427bc       __RTC_Shutdown.rtc$TMZ     100b77bc     fdmap.obj
 0002:000427c0       __RTC_Shutdown.rtc$TMZ     100b77c0     acl_ioctl.obj
 0002:000427c4       __RTC_Shutdown.rtc$TMZ     100b77c4     ioctl_proc.obj
 0002:000427c8       __RTC_Shutdown.rtc$TMZ     100b77c8     ioctl_thr.obj
 0002:000427cc       __RTC_Shutdown.rtc$TMZ     100b77cc     acl_aio.obj
 0002:000427d0       __RTC_Shutdown.rtc$TMZ     100b77d0     acl_aio_connect.obj
 0002:000427d4       __RTC_Shutdown.rtc$TMZ     100b77d4     acl_aio_listen.obj
 0002:000427d8       __RTC_Shutdown.rtc$TMZ     100b77d8     acl_aio_read.obj
 0002:000427dc       __RTC_Shutdown.rtc$TMZ     100b77dc     acl_aio_stream.obj
 0002:000427e0       __RTC_Shutdown.rtc$TMZ     100b77e0     acl_aio_write.obj
 0002:000427e4       __RTC_Shutdown.rtc$TMZ     100b77e4     aio_callback.obj
 0002:000427e8       __RTC_Shutdown.rtc$TMZ     100b77e8     acl_dbpool.obj
 0002:000427ec       __RTC_Shutdown.rtc$TMZ     100b77ec     acl_dbsql.obj
 0002:000427f0       __RTC_Shutdown.rtc$TMZ     100b77f0     acl_mdb.obj
 0002:000427f4       __RTC_Shutdown.rtc$TMZ     100b77f4     acl_mdt.obj
 0002:000427f8       __RTC_Shutdown.rtc$TMZ     100b77f8     acl_mdt_avl.obj
 0002:000427fc       __RTC_Shutdown.rtc$TMZ     100b77fc     acl_mdt_binhash.obj
 0002:00042800       __RTC_Shutdown.rtc$TMZ     100b7800     acl_mdt_hash.obj
 0002:00042804       __RTC_Shutdown.rtc$TMZ     100b7804     acl_dbnull.obj
 0002:00042808       __RTC_Shutdown.rtc$TMZ     100b7808     acl_dbpool_null.obj
 0002:0004280c       __RTC_Shutdown.rtc$TMZ     100b780c     zdb.obj
 0002:00042810       __RTC_Shutdown.rtc$TMZ     100b7810     zdb_dat.obj
 0002:00042814       __RTC_Shutdown.rtc$TMZ     100b7814     zdb_dat_iter.obj
 0002:00042818       __RTC_Shutdown.rtc$TMZ     100b7818     zdb_dat_walk.obj
 0002:0004281c       __RTC_Shutdown.rtc$TMZ     100b781c     zdb_io.obj
 0002:00042820       __RTC_Shutdown.rtc$TMZ     100b7820     zdb_key.obj
 0002:00042824       __RTC_Shutdown.rtc$TMZ     100b7824     zdb_key_walk.obj
 0002:00042828       __RTC_Shutdown.rtc$TMZ     100b7828     acl_test_cfg.obj
 0002:0004282c       __RTC_Shutdown.rtc$TMZ     100b782c     acl_test_cfg_general.obj
 0002:00042830       __RTC_Shutdown.rtc$TMZ     100b7830     acl_test_inner.obj
 0002:00042834       __RTC_Shutdown.rtc$TMZ     100b7834     acl_test_log.obj
 0002:00042838       __RTC_Shutdown.rtc$TMZ     100b7838     acl_test_loop.obj
 0002:0004283c       __RTC_Shutdown.rtc$TMZ     100b783c     acl_test_misc.obj
 0002:00042840       __RTC_Shutdown.rtc$TMZ     100b7840     acl_test_outer.obj
 0002:00042844       __RTC_Shutdown.rtc$TMZ     100b7844     acl_test_runner.obj
 0002:00042848       __RTC_Shutdown.rtc$TMZ     100b7848     acl_test_token.obj
 0002:0004284c       __RTC_Shutdown.rtc$TMZ     100b784c     master_params.obj
 0002:00042850       __RTC_Shutdown.rtc$TMZ     100b7850     acl_proctl.obj
 0002:00042854       __RTC_Shutdown.rtc$TMZ     100b7854     proctl_child.obj
 0002:00042858       __RTC_Shutdown.rtc$TMZ     100b7858     proctl_monitor.obj
 0002:0004285c       __RTC_Shutdown.rtc$TMZ     100b785c     proctl_service.obj
 0002:00042860       __RTC_Shutdown.rtc$TMZ     100b7860     proctl_utils.obj
 0002:00042864       __RTC_Shutdown.rtc$TMZ     100b7864     acl_init.obj
 0002:00042868       __RTC_Shutdown.rtc$TMZ     100b7868     private_array.obj
 0002:0004286c       __RTC_Shutdown.rtc$TMZ     100b786c     private_fifo.obj
 0002:00042870       __RTC_Shutdown.rtc$TMZ     100b7870     private_vstream.obj
 0002:00042874       __RTC_Shutdown.rtc$TMZ     100b7874     sem.obj
 0002:00042878       __RTC_Shutdown.rtc$TMZ     100b7878     thread_mutex.obj
 0002:0004287c       __RTC_Shutdown.rtc$TMZ     100b787c     acl_json.obj
 0002:00042880       __RTC_Shutdown.rtc$TMZ     100b7880     acl_json_parse.obj
 0002:00042884       __RTC_Shutdown.rtc$TMZ     100b7884     acl_json_util.obj
 0002:00042890       __sehtable$__onexit        100b7890     MSVCRTD:atonexit.obj
 0002:000428b0       __sehtable$___DllMainCRTStartup 100b78b0     MSVCRTD:crtdll.obj
 0002:000428d8       __sehtable$?DebuggerProbe@@YAHK@Z 100b78d8     MSVCRTD:error.obj
 0002:000428f8       __sehtable$?DebuggerRuntime@@YAHKHPAXPB_W@Z 100b78f8     MSVCRTD:error.obj
 0002:00042918       __sehtable$__IsNonwritableInCurrentImage 100b7918     MSVCRTD:pesect.obj
 0002:00042d44       .idata$6                   100b7d44     wsock32:WSOCK32.dll
 0002:00042d6a       .idata$6                   100b7d6a     ws2_32:WS2_32.dll
 0002:00042d88       .idata$6                   100b7d88     IPHlpApi:IPHLPAPI.DLL
 0002:00043240       .idata$6                   100b8240     kernel32:KERNEL32.dll
 0002:00043334       .idata$6                   100b8334     user32:USER32.dll
 0002:00043352       .idata$6                   100b8352     gdi32:GDI32.dll
 0002:000435fa       .idata$6                   100b85fa     MSVCRTD:MSVCR110D.dll
 0002:000438e0       .edata                     100b88e0     lib_acl_d.exp
 0002:00043908       rgpv                       100b8908     lib_acl_d.exp
 0002:00044b04       rgszName                   100b9b04     lib_acl_d.exp
 0002:00045d00       rgwOrd                     100bad00     lib_acl_d.exp
 0002:000465fe       szName                     100bb5fe     lib_acl_d.exp
 0002:0004660c       $N00001                    100bb60c     lib_acl_d.exp
 0002:00046617       $N00002                    100bb617     lib_acl_d.exp
 0002:00046626       $N00003                    100bb626     lib_acl_d.exp
 0002:00046635       $N00004                    100bb635     lib_acl_d.exp
 0002:00046646       $N00005                    100bb646     lib_acl_d.exp
 0002:00046658       $N00006                    100bb658     lib_acl_d.exp
 0002:0004666f       $N00007                    100bb66f     lib_acl_d.exp
 0002:0004667e       $N00008                    100bb67e     lib_acl_d.exp
 0002:00046695       $N00009                    100bb695     lib_acl_d.exp
 0002:000466ae       $N00010                    100bb6ae     lib_acl_d.exp
 0002:000466c4       $N00011                    100bb6c4     lib_acl_d.exp
 0002:000466db       $N00012                    100bb6db     lib_acl_d.exp
 0002:000466f2       $N00013                    100bb6f2     lib_acl_d.exp
 0002:00046703       $N00014                    100bb703     lib_acl_d.exp
 0002:00046712       $N00015                    100bb712     lib_acl_d.exp
 0002:00046727       $N00016                    100bb727     lib_acl_d.exp
 0002:00046735       $N00017                    100bb735     lib_acl_d.exp
 0002:0004674f       $N00018                    100bb74f     lib_acl_d.exp
 0002:0004676b       $N00019                    100bb76b     lib_acl_d.exp
 0002:0004677f       $N00020                    100bb77f     lib_acl_d.exp
 0002:00046798       $N00021                    100bb798     lib_acl_d.exp
 0002:000467b2       $N00022                    100bb7b2     lib_acl_d.exp
 0002:000467cc       $N00023                    100bb7cc     lib_acl_d.exp
 0002:000467dc       $N00024                    100bb7dc     lib_acl_d.exp
 0002:000467eb       $N00025                    100bb7eb     lib_acl_d.exp
 0002:000467fb       $N00026                    100bb7fb     lib_acl_d.exp
 0002:00046807       $N00027                    100bb807     lib_acl_d.exp
 0002:0004681e       $N00028                    100bb81e     lib_acl_d.exp
 0002:00046837       $N00029                    100bb837     lib_acl_d.exp
 0002:0004684d       $N00030                    100bb84d     lib_acl_d.exp
 0002:00046864       $N00031                    100bb864     lib_acl_d.exp
 0002:0004687b       $N00032                    100bb87b     lib_acl_d.exp
 0002:00046890       $N00033                    100bb890     lib_acl_d.exp
 0002:000468aa       $N00034                    100bb8aa     lib_acl_d.exp
 0002:000468c0       $N00035                    100bb8c0     lib_acl_d.exp
 0002:000468d4       $N00036                    100bb8d4     lib_acl_d.exp
 0002:000468e9       $N00037                    100bb8e9     lib_acl_d.exp
 0002:000468f7       $N00038                    100bb8f7     lib_acl_d.exp
 0002:0004690a       $N00039                    100bb90a     lib_acl_d.exp
 0002:0004691a       $N00040                    100bb91a     lib_acl_d.exp
 0002:00046927       $N00041                    100bb927     lib_acl_d.exp
 0002:00046937       $N00042                    100bb937     lib_acl_d.exp
 0002:0004694d       $N00043                    100bb94d     lib_acl_d.exp
 0002:00046964       $N00044                    100bb964     lib_acl_d.exp
 0002:0004697a       $N00045                    100bb97a     lib_acl_d.exp
 0002:00046987       $N00046                    100bb987     lib_acl_d.exp
 0002:00046999       $N00047                    100bb999     lib_acl_d.exp
 0002:000469b0       $N00048                    100bb9b0     lib_acl_d.exp
 0002:000469c2       $N00049                    100bb9c2     lib_acl_d.exp
 0002:000469d1       $N00050                    100bb9d1     lib_acl_d.exp
 0002:000469e4       $N00051                    100bb9e4     lib_acl_d.exp
 0002:000469f3       $N00052                    100bb9f3     lib_acl_d.exp
 0002:00046a01       $N00053                    100bba01     lib_acl_d.exp
 0002:00046a10       $N00054                    100bba10     lib_acl_d.exp
 0002:00046a23       $N00055                    100bba23     lib_acl_d.exp
 0002:00046a32       $N00056                    100bba32     lib_acl_d.exp
 0002:00046a3f       $N00057                    100bba3f     lib_acl_d.exp
 0002:00046a4c       $N00058                    100bba4c     lib_acl_d.exp
 0002:00046a59       $N00059                    100bba59     lib_acl_d.exp
 0002:00046a6b       $N00060                    100bba6b     lib_acl_d.exp
 0002:00046a79       $N00061                    100bba79     lib_acl_d.exp
 0002:00046a8c       $N00062                    100bba8c     lib_acl_d.exp
 0002:00046a9a       $N00063                    100bba9a     lib_acl_d.exp
 0002:00046aae       $N00064                    100bbaae     lib_acl_d.exp
 0002:00046ac4       $N00065                    100bbac4     lib_acl_d.exp
 0002:00046add       $N00066                    100bbadd     lib_acl_d.exp
 0002:00046aed       $N00067                    100bbaed     lib_acl_d.exp
 0002:00046b03       $N00068                    100bbb03     lib_acl_d.exp
 0002:00046b1a       $N00069                    100bbb1a     lib_acl_d.exp
 0002:00046b30       $N00070                    100bbb30     lib_acl_d.exp
 0002:00046b46       $N00071                    100bbb46     lib_acl_d.exp
 0002:00046b63       $N00072                    100bbb63     lib_acl_d.exp
 0002:00046b80       $N00073                    100bbb80     lib_acl_d.exp
 0002:00046b95       $N00074                    100bbb95     lib_acl_d.exp
 0002:00046ba5       $N00075                    100bbba5     lib_acl_d.exp
 0002:00046bb6       $N00076                    100bbbb6     lib_acl_d.exp
 0002:00046bc6       $N00077                    100bbbc6     lib_acl_d.exp
 0002:00046bd5       $N00078                    100bbbd5     lib_acl_d.exp
 0002:00046be4       $N00079                    100bbbe4     lib_acl_d.exp
 0002:00046bef       $N00080                    100bbbef     lib_acl_d.exp
 0002:00046c04       $N00081                    100bbc04     lib_acl_d.exp
 0002:00046c19       $N00082                    100bbc19     lib_acl_d.exp
 0002:00046c2b       $N00083                    100bbc2b     lib_acl_d.exp
 0002:00046c3e       $N00084                    100bbc3e     lib_acl_d.exp
 0002:00046c56       $N00085                    100bbc56     lib_acl_d.exp
 0002:00046c6d       $N00086                    100bbc6d     lib_acl_d.exp
 0002:00046c88       $N00087                    100bbc88     lib_acl_d.exp
 0002:00046ca2       $N00088                    100bbca2     lib_acl_d.exp
 0002:00046cbf       $N00089                    100bbcbf     lib_acl_d.exp
 0002:00046cd6       $N00090                    100bbcd6     lib_acl_d.exp
 0002:00046cf0       $N00091                    100bbcf0     lib_acl_d.exp
 0002:00046d0f       $N00092                    100bbd0f     lib_acl_d.exp
 0002:00046d2d       $N00093                    100bbd2d     lib_acl_d.exp
 0002:00046d47       $N00094                    100bbd47     lib_acl_d.exp
 0002:00046d6a       $N00095                    100bbd6a     lib_acl_d.exp
 0002:00046d7c       $N00096                    100bbd7c     lib_acl_d.exp
 0002:00046d93       $N00097                    100bbd93     lib_acl_d.exp
 0002:00046da3       $N00098                    100bbda3     lib_acl_d.exp
 0002:00046db9       $N00099                    100bbdb9     lib_acl_d.exp
 0002:00046dc8       $N00100                    100bbdc8     lib_acl_d.exp
 0002:00046dd7       $N00101                    100bbdd7     lib_acl_d.exp
 0002:00046df0       $N00102                    100bbdf0     lib_acl_d.exp
 0002:00046e00       $N00103                    100bbe00     lib_acl_d.exp
 0002:00046e15       $N00104                    100bbe15     lib_acl_d.exp
 0002:00046e29       $N00105                    100bbe29     lib_acl_d.exp
 0002:00046e36       $N00106                    100bbe36     lib_acl_d.exp
 0002:00046e44       $N00107                    100bbe44     lib_acl_d.exp
 0002:00046e53       $N00108                    100bbe53     lib_acl_d.exp
 0002:00046e61       $N00109                    100bbe61     lib_acl_d.exp
 0002:00046e70       $N00110                    100bbe70     lib_acl_d.exp
 0002:00046e80       $N00111                    100bbe80     lib_acl_d.exp
 0002:00046e8e       $N00112                    100bbe8e     lib_acl_d.exp
 0002:00046e9d       $N00113                    100bbe9d     lib_acl_d.exp
 0002:00046eab       $N00114                    100bbeab     lib_acl_d.exp
 0002:00046eba       $N00115                    100bbeba     lib_acl_d.exp
 0002:00046eca       $N00116                    100bbeca     lib_acl_d.exp
 0002:00046ee0       $N00117                    100bbee0     lib_acl_d.exp
 0002:00046ef0       $N00118                    100bbef0     lib_acl_d.exp
 0002:00046f01       $N00119                    100bbf01     lib_acl_d.exp
 0002:00046f18       $N00120                    100bbf18     lib_acl_d.exp
 0002:00046f2b       $N00121                    100bbf2b     lib_acl_d.exp
 0002:00046f3c       $N00122                    100bbf3c     lib_acl_d.exp
 0002:00046f4c       $N00123                    100bbf4c     lib_acl_d.exp
 0002:00046f5d       $N00124                    100bbf5d     lib_acl_d.exp
 0002:00046f6e       $N00125                    100bbf6e     lib_acl_d.exp
 0002:00046f83       $N00126                    100bbf83     lib_acl_d.exp
 0002:00046f98       $N00127                    100bbf98     lib_acl_d.exp
 0002:00046faf       $N00128                    100bbfaf     lib_acl_d.exp
 0002:00046fbe       $N00129                    100bbfbe     lib_acl_d.exp
 0002:00046fce       $N00130                    100bbfce     lib_acl_d.exp
 0002:00046fdf       $N00131                    100bbfdf     lib_acl_d.exp
 0002:00046ff4       $N00132                    100bbff4     lib_acl_d.exp
 0002:0004700a       $N00133                    100bc00a     lib_acl_d.exp
 0002:0004701c       $N00134                    100bc01c     lib_acl_d.exp
 0002:0004702b       $N00135                    100bc02b     lib_acl_d.exp
 0002:00047041       $N00136                    100bc041     lib_acl_d.exp
 0002:0004704c       $N00137                    100bc04c     lib_acl_d.exp
 0002:00047058       $N00138                    100bc058     lib_acl_d.exp
 0002:0004706a       $N00139                    100bc06a     lib_acl_d.exp
 0002:0004707c       $N00140                    100bc07c     lib_acl_d.exp
 0002:0004708f       $N00141                    100bc08f     lib_acl_d.exp
 0002:000470a0       $N00142                    100bc0a0     lib_acl_d.exp
 0002:000470b3       $N00143                    100bc0b3     lib_acl_d.exp
 0002:000470c5       $N00144                    100bc0c5     lib_acl_d.exp
 0002:000470d7       $N00145                    100bc0d7     lib_acl_d.exp
 0002:000470e8       $N00146                    100bc0e8     lib_acl_d.exp
 0002:000470f9       $N00147                    100bc0f9     lib_acl_d.exp
 0002:0004710f       $N00148                    100bc10f     lib_acl_d.exp
 0002:00047125       $N00149                    100bc125     lib_acl_d.exp
 0002:0004713b       $N00150                    100bc13b     lib_acl_d.exp
 0002:00047151       $N00151                    100bc151     lib_acl_d.exp
 0002:00047162       $N00152                    100bc162     lib_acl_d.exp
 0002:00047175       $N00153                    100bc175     lib_acl_d.exp
 0002:00047186       $N00154                    100bc186     lib_acl_d.exp
 0002:00047197       $N00155                    100bc197     lib_acl_d.exp
 0002:000471a8       $N00156                    100bc1a8     lib_acl_d.exp
 0002:000471b6       $N00157                    100bc1b6     lib_acl_d.exp
 0002:000471c7       $N00158                    100bc1c7     lib_acl_d.exp
 0002:000471d7       $N00159                    100bc1d7     lib_acl_d.exp
 0002:000471e9       $N00160                    100bc1e9     lib_acl_d.exp
 0002:000471f8       $N00161                    100bc1f8     lib_acl_d.exp
 0002:00047207       $N00162                    100bc207     lib_acl_d.exp
 0002:0004721d       $N00163                    100bc21d     lib_acl_d.exp
 0002:00047233       $N00164                    100bc233     lib_acl_d.exp
 0002:0004724a       $N00165                    100bc24a     lib_acl_d.exp
 0002:0004725b       $N00166                    100bc25b     lib_acl_d.exp
 0002:0004726b       $N00167                    100bc26b     lib_acl_d.exp
 0002:00047280       $N00168                    100bc280     lib_acl_d.exp
 0002:00047291       $N00169                    100bc291     lib_acl_d.exp
 0002:000472a3       $N00170                    100bc2a3     lib_acl_d.exp
 0002:000472b5       $N00171                    100bc2b5     lib_acl_d.exp
 0002:000472c8       $N00172                    100bc2c8     lib_acl_d.exp
 0002:000472d9       $N00173                    100bc2d9     lib_acl_d.exp
 0002:000472e9       $N00174                    100bc2e9     lib_acl_d.exp
 0002:000472f9       $N00175                    100bc2f9     lib_acl_d.exp
 0002:0004730b       $N00176                    100bc30b     lib_acl_d.exp
 0002:0004731b       $N00177                    100bc31b     lib_acl_d.exp
 0002:0004732c       $N00178                    100bc32c     lib_acl_d.exp
 0002:0004733e       $N00179                    100bc33e     lib_acl_d.exp
 0002:0004734e       $N00180                    100bc34e     lib_acl_d.exp
 0002:00047361       $N00181                    100bc361     lib_acl_d.exp
 0002:00047373       $N00182                    100bc373     lib_acl_d.exp
 0002:00047386       $N00183                    100bc386     lib_acl_d.exp
 0002:0004739a       $N00184                    100bc39a     lib_acl_d.exp
 0002:000473ac       $N00185                    100bc3ac     lib_acl_d.exp
 0002:000473bf       $N00186                    100bc3bf     lib_acl_d.exp
 0002:000473cf       $N00187                    100bc3cf     lib_acl_d.exp
 0002:000473df       $N00188                    100bc3df     lib_acl_d.exp
 0002:000473f0       $N00189                    100bc3f0     lib_acl_d.exp
 0002:00047401       $N00190                    100bc401     lib_acl_d.exp
 0002:00047413       $N00191                    100bc413     lib_acl_d.exp
 0002:00047423       $N00192                    100bc423     lib_acl_d.exp
 0002:00047432       $N00193                    100bc432     lib_acl_d.exp
 0002:00047441       $N00194                    100bc441     lib_acl_d.exp
 0002:00047452       $N00195                    100bc452     lib_acl_d.exp
 0002:00047461       $N00196                    100bc461     lib_acl_d.exp
 0002:00047471       $N00197                    100bc471     lib_acl_d.exp
 0002:00047482       $N00198                    100bc482     lib_acl_d.exp
 0002:00047491       $N00199                    100bc491     lib_acl_d.exp
 0002:000474a3       $N00200                    100bc4a3     lib_acl_d.exp
 0002:000474b4       $N00201                    100bc4b4     lib_acl_d.exp
 0002:000474c6       $N00202                    100bc4c6     lib_acl_d.exp
 0002:000474d9       $N00203                    100bc4d9     lib_acl_d.exp
 0002:000474ea       $N00204                    100bc4ea     lib_acl_d.exp
 0002:000474fc       $N00205                    100bc4fc     lib_acl_d.exp
 0002:0004750b       $N00206                    100bc50b     lib_acl_d.exp
 0002:0004751b       $N00207                    100bc51b     lib_acl_d.exp
 0002:0004752c       $N00208                    100bc52c     lib_acl_d.exp
 0002:00047541       $N00209                    100bc541     lib_acl_d.exp
 0002:00047557       $N00210                    100bc557     lib_acl_d.exp
 0002:0004756d       $N00211                    100bc56d     lib_acl_d.exp
 0002:00047581       $N00212                    100bc581     lib_acl_d.exp
 0002:00047595       $N00213                    100bc595     lib_acl_d.exp
 0002:000475aa       $N00214                    100bc5aa     lib_acl_d.exp
 0002:000475be       $N00215                    100bc5be     lib_acl_d.exp
 0002:000475d2       $N00216                    100bc5d2     lib_acl_d.exp
 0002:000475e6       $N00217                    100bc5e6     lib_acl_d.exp
 0002:000475f4       $N00218                    100bc5f4     lib_acl_d.exp
 0002:0004760d       $N00219                    100bc60d     lib_acl_d.exp
 0002:0004761c       $N00220                    100bc61c     lib_acl_d.exp
 0002:0004762f       $N00221                    100bc62f     lib_acl_d.exp
 0002:0004763e       $N00222                    100bc63e     lib_acl_d.exp
 0002:00047652       $N00223                    100bc652     lib_acl_d.exp
 0002:00047661       $N00224                    100bc661     lib_acl_d.exp
 0002:0004766f       $N00225                    100bc66f     lib_acl_d.exp
 0002:00047683       $N00226                    100bc683     lib_acl_d.exp
 0002:00047693       $N00227                    100bc693     lib_acl_d.exp
 0002:000476ab       $N00228                    100bc6ab     lib_acl_d.exp
 0002:000476ba       $N00229                    100bc6ba     lib_acl_d.exp
 0002:000476c8       $N00230                    100bc6c8     lib_acl_d.exp
 0002:000476d5       $N00231                    100bc6d5     lib_acl_d.exp
 0002:000476e3       $N00232                    100bc6e3     lib_acl_d.exp
 0002:000476f3       $N00233                    100bc6f3     lib_acl_d.exp
 0002:00047704       $N00234                    100bc704     lib_acl_d.exp
 0002:00047715       $N00235                    100bc715     lib_acl_d.exp
 0002:00047727       $N00236                    100bc727     lib_acl_d.exp
 0002:0004773a       $N00237                    100bc73a     lib_acl_d.exp
 0002:0004774c       $N00238                    100bc74c     lib_acl_d.exp
 0002:0004775c       $N00239                    100bc75c     lib_acl_d.exp
 0002:0004776f       $N00240                    100bc76f     lib_acl_d.exp
 0002:00047783       $N00241                    100bc783     lib_acl_d.exp
 0002:00047799       $N00242                    100bc799     lib_acl_d.exp
 0002:000477aa       $N00243                    100bc7aa     lib_acl_d.exp
 0002:000477bc       $N00244                    100bc7bc     lib_acl_d.exp
 0002:000477cd       $N00245                    100bc7cd     lib_acl_d.exp
 0002:000477de       $N00246                    100bc7de     lib_acl_d.exp
 0002:000477f2       $N00247                    100bc7f2     lib_acl_d.exp
 0002:00047807       $N00248                    100bc807     lib_acl_d.exp
 0002:0004781c       $N00249                    100bc81c     lib_acl_d.exp
 0002:00047832       $N00250                    100bc832     lib_acl_d.exp
 0002:00047845       $N00251                    100bc845     lib_acl_d.exp
 0002:0004785a       $N00252                    100bc85a     lib_acl_d.exp
 0002:0004786f       $N00253                    100bc86f     lib_acl_d.exp
 0002:00047882       $N00254                    100bc882     lib_acl_d.exp
 0002:00047891       $N00255                    100bc891     lib_acl_d.exp
 0002:0004789f       $N00256                    100bc89f     lib_acl_d.exp
 0002:000478ae       $N00257                    100bc8ae     lib_acl_d.exp
 0002:000478be       $N00258                    100bc8be     lib_acl_d.exp
 0002:000478d4       $N00259                    100bc8d4     lib_acl_d.exp
 0002:000478e7       $N00260                    100bc8e7     lib_acl_d.exp
 0002:000478f8       $N00261                    100bc8f8     lib_acl_d.exp
 0002:0004790b       $N00262                    100bc90b     lib_acl_d.exp
 0002:0004791e       $N00263                    100bc91e     lib_acl_d.exp
 0002:00047932       $N00264                    100bc932     lib_acl_d.exp
 0002:00047946       $N00265                    100bc946     lib_acl_d.exp
 0002:00047959       $N00266                    100bc959     lib_acl_d.exp
 0002:0004796d       $N00267                    100bc96d     lib_acl_d.exp
 0002:0004797d       $N00268                    100bc97d     lib_acl_d.exp
 0002:0004798d       $N00269                    100bc98d     lib_acl_d.exp
 0002:00047999       $N00270                    100bc999     lib_acl_d.exp
 0002:000479aa       $N00271                    100bc9aa     lib_acl_d.exp
 0002:000479bb       $N00272                    100bc9bb     lib_acl_d.exp
 0002:000479d4       $N00273                    100bc9d4     lib_acl_d.exp
 0002:000479eb       $N00274                    100bc9eb     lib_acl_d.exp
 0002:000479fa       $N00275                    100bc9fa     lib_acl_d.exp
 0002:00047a0a       $N00276                    100bca0a     lib_acl_d.exp
 0002:00047a1b       $N00277                    100bca1b     lib_acl_d.exp
 0002:00047a2a       $N00278                    100bca2a     lib_acl_d.exp
 0002:00047a3b       $N00279                    100bca3b     lib_acl_d.exp
 0002:00047a4d       $N00280                    100bca4d     lib_acl_d.exp
 0002:00047a67       $N00281                    100bca67     lib_acl_d.exp
 0002:00047a80       $N00282                    100bca80     lib_acl_d.exp
 0002:00047a98       $N00283                    100bca98     lib_acl_d.exp
 0002:00047aaf       $N00284                    100bcaaf     lib_acl_d.exp
 0002:00047ac6       $N00285                    100bcac6     lib_acl_d.exp
 0002:00047ad7       $N00286                    100bcad7     lib_acl_d.exp
 0002:00047ae6       $N00287                    100bcae6     lib_acl_d.exp
 0002:00047af1       $N00288                    100bcaf1     lib_acl_d.exp
 0002:00047afb       $N00289                    100bcafb     lib_acl_d.exp
 0002:00047b0b       $N00290                    100bcb0b     lib_acl_d.exp
 0002:00047b1d       $N00291                    100bcb1d     lib_acl_d.exp
 0002:00047b2e       $N00292                    100bcb2e     lib_acl_d.exp
 0002:00047b3d       $N00293                    100bcb3d     lib_acl_d.exp
 0002:00047b52       $N00294                    100bcb52     lib_acl_d.exp
 0002:00047b68       $N00295                    100bcb68     lib_acl_d.exp
 0002:00047b76       $N00296                    100bcb76     lib_acl_d.exp
 0002:00047b85       $N00297                    100bcb85     lib_acl_d.exp
 0002:00047b92       $N00298                    100bcb92     lib_acl_d.exp
 0002:00047ba1       $N00299                    100bcba1     lib_acl_d.exp
 0002:00047bb4       $N00300                    100bcbb4     lib_acl_d.exp
 0002:00047bc3       $N00301                    100bcbc3     lib_acl_d.exp
 0002:00047bdb       $N00302                    100bcbdb     lib_acl_d.exp
 0002:00047be8       $N00303                    100bcbe8     lib_acl_d.exp
 0002:00047bf1       $N00304                    100bcbf1     lib_acl_d.exp
 0002:00047c01       $N00305                    100bcc01     lib_acl_d.exp
 0002:00047c09       $N00306                    100bcc09     lib_acl_d.exp
 0002:00047c1b       $N00307                    100bcc1b     lib_acl_d.exp
 0002:00047c32       $N00308                    100bcc32     lib_acl_d.exp
 0002:00047c49       $N00309                    100bcc49     lib_acl_d.exp
 0002:00047c65       $N00310                    100bcc65     lib_acl_d.exp
 0002:00047c7d       $N00311                    100bcc7d     lib_acl_d.exp
 0002:00047c95       $N00312                    100bcc95     lib_acl_d.exp
 0002:00047cab       $N00313                    100bccab     lib_acl_d.exp
 0002:00047cc2       $N00314                    100bccc2     lib_acl_d.exp
 0002:00047cd1       $N00315                    100bccd1     lib_acl_d.exp
 0002:00047ce2       $N00316                    100bcce2     lib_acl_d.exp
 0002:00047cf2       $N00317                    100bccf2     lib_acl_d.exp
 0002:00047d03       $N00318                    100bcd03     lib_acl_d.exp
 0002:00047d14       $N00319                    100bcd14     lib_acl_d.exp
 0002:00047d29       $N00320                    100bcd29     lib_acl_d.exp
 0002:00047d38       $N00321                    100bcd38     lib_acl_d.exp
 0002:00047d47       $N00322                    100bcd47     lib_acl_d.exp
 0002:00047d55       $N00323                    100bcd55     lib_acl_d.exp
 0002:00047d6a       $N00324                    100bcd6a     lib_acl_d.exp
 0002:00047d80       $N00325                    100bcd80     lib_acl_d.exp
 0002:00047d96       $N00326                    100bcd96     lib_acl_d.exp
 0002:00047daf       $N00327                    100bcdaf     lib_acl_d.exp
 0002:00047dc2       $N00328                    100bcdc2     lib_acl_d.exp
 0002:00047dd9       $N00329                    100bcdd9     lib_acl_d.exp
 0002:00047dee       $N00330                    100bcdee     lib_acl_d.exp
 0002:00047e07       $N00331                    100bce07     lib_acl_d.exp
 0002:00047e1a       $N00332                    100bce1a     lib_acl_d.exp
 0002:00047e32       $N00333                    100bce32     lib_acl_d.exp
 0002:00047e4a       $N00334                    100bce4a     lib_acl_d.exp
 0002:00047e63       $N00335                    100bce63     lib_acl_d.exp
 0002:00047e72       $N00336                    100bce72     lib_acl_d.exp
 0002:00047e89       $N00337                    100bce89     lib_acl_d.exp
 0002:00047e9e       $N00338                    100bce9e     lib_acl_d.exp
 0002:00047eb2       $N00339                    100bceb2     lib_acl_d.exp
 0002:00047ec3       $N00340                    100bcec3     lib_acl_d.exp
 0002:00047ece       $N00341                    100bcece     lib_acl_d.exp
 0002:00047ed7       $N00342                    100bced7     lib_acl_d.exp
 0002:00047ee1       $N00343                    100bcee1     lib_acl_d.exp
 0002:00047eeb       $N00344                    100bceeb     lib_acl_d.exp
 0002:00047efa       $N00345                    100bcefa     lib_acl_d.exp
 0002:00047f0a       $N00346                    100bcf0a     lib_acl_d.exp
 0002:00047f1f       $N00347                    100bcf1f     lib_acl_d.exp
 0002:00047f2d       $N00348                    100bcf2d     lib_acl_d.exp
 0002:00047f3c       $N00349                    100bcf3c     lib_acl_d.exp
 0002:00047f4a       $N00350                    100bcf4a     lib_acl_d.exp
 0002:00047f5d       $N00351                    100bcf5d     lib_acl_d.exp
 0002:00047f6b       $N00352                    100bcf6b     lib_acl_d.exp
 0002:00047f78       $N00353                    100bcf78     lib_acl_d.exp
 0002:00047f86       $N00354                    100bcf86     lib_acl_d.exp
 0002:00047f98       $N00355                    100bcf98     lib_acl_d.exp
 0002:00047fab       $N00356                    100bcfab     lib_acl_d.exp
 0002:00047fbd       $N00357                    100bcfbd     lib_acl_d.exp
 0002:00047fd0       $N00358                    100bcfd0     lib_acl_d.exp
 0002:00047fe4       $N00359                    100bcfe4     lib_acl_d.exp
 0002:00047ffc       $N00360                    100bcffc     lib_acl_d.exp
 0002:0004800a       $N00361                    100bd00a     lib_acl_d.exp
 0002:00048018       $N00362                    100bd018     lib_acl_d.exp
 0002:0004802b       $N00363                    100bd02b     lib_acl_d.exp
 0002:0004803a       $N00364                    100bd03a     lib_acl_d.exp
 0002:0004804a       $N00365                    100bd04a     lib_acl_d.exp
 0002:00048059       $N00366                    100bd059     lib_acl_d.exp
 0002:0004806c       $N00367                    100bd06c     lib_acl_d.exp
 0002:0004807a       $N00368                    100bd07a     lib_acl_d.exp
 0002:00048090       $N00369                    100bd090     lib_acl_d.exp
 0002:0004809e       $N00370                    100bd09e     lib_acl_d.exp
 0002:000480ac       $N00371                    100bd0ac     lib_acl_d.exp
 0002:000480be       $N00372                    100bd0be     lib_acl_d.exp
 0002:000480cd       $N00373                    100bd0cd     lib_acl_d.exp
 0002:000480dd       $N00374                    100bd0dd     lib_acl_d.exp
 0002:000480e7       $N00375                    100bd0e7     lib_acl_d.exp
 0002:000480f3       $N00376                    100bd0f3     lib_acl_d.exp
 0002:000480fd       $N00377                    100bd0fd     lib_acl_d.exp
 0002:00048107       $N00378                    100bd107     lib_acl_d.exp
 0002:00048118       $N00379                    100bd118     lib_acl_d.exp
 0002:00048126       $N00380                    100bd126     lib_acl_d.exp
 0002:00048137       $N00381                    100bd137     lib_acl_d.exp
 0002:00048141       $N00382                    100bd141     lib_acl_d.exp
 0002:0004814b       $N00383                    100bd14b     lib_acl_d.exp
 0002:00048156       $N00384                    100bd156     lib_acl_d.exp
 0002:00048162       $N00385                    100bd162     lib_acl_d.exp
 0002:0004816e       $N00386                    100bd16e     lib_acl_d.exp
 0002:0004818a       $N00387                    100bd18a     lib_acl_d.exp
 0002:000481a7       $N00388                    100bd1a7     lib_acl_d.exp
 0002:000481c2       $N00389                    100bd1c2     lib_acl_d.exp
 0002:000481dd       $N00390                    100bd1dd     lib_acl_d.exp
 0002:000481ed       $N00391                    100bd1ed     lib_acl_d.exp
 0002:000481f9       $N00392                    100bd1f9     lib_acl_d.exp
 0002:00048204       $N00393                    100bd204     lib_acl_d.exp
 0002:0004820f       $N00394                    100bd20f     lib_acl_d.exp
 0002:0004821b       $N00395                    100bd21b     lib_acl_d.exp
 0002:0004822b       $N00396                    100bd22b     lib_acl_d.exp
 0002:0004823d       $N00397                    100bd23d     lib_acl_d.exp
 0002:00048248       $N00398                    100bd248     lib_acl_d.exp
 0002:00048258       $N00399                    100bd258     lib_acl_d.exp
 0002:00048268       $N00400                    100bd268     lib_acl_d.exp
 0002:00048271       $N00401                    100bd271     lib_acl_d.exp
 0002:0004827f       $N00402                    100bd27f     lib_acl_d.exp
 0002:0004828f       $N00403                    100bd28f     lib_acl_d.exp
 0002:0004829f       $N00404                    100bd29f     lib_acl_d.exp
 0002:000482ac       $N00405                    100bd2ac     lib_acl_d.exp
 0002:000482bb       $N00406                    100bd2bb     lib_acl_d.exp
 0002:000482ca       $N00407                    100bd2ca     lib_acl_d.exp
 0002:000482d9       $N00408                    100bd2d9     lib_acl_d.exp
 0002:000482e8       $N00409                    100bd2e8     lib_acl_d.exp
 0002:000482f7       $N00410                    100bd2f7     lib_acl_d.exp
 0002:00048306       $N00411                    100bd306     lib_acl_d.exp
 0002:00048315       $N00412                    100bd315     lib_acl_d.exp
 0002:00048323       $N00413                    100bd323     lib_acl_d.exp
 0002:00048332       $N00414                    100bd332     lib_acl_d.exp
 0002:00048341       $N00415                    100bd341     lib_acl_d.exp
 0002:0004834f       $N00416                    100bd34f     lib_acl_d.exp
 0002:00048361       $N00417                    100bd361     lib_acl_d.exp
 0002:00048374       $N00418                    100bd374     lib_acl_d.exp
 0002:00048383       $N00419                    100bd383     lib_acl_d.exp
 0002:00048393       $N00420                    100bd393     lib_acl_d.exp
 0002:000483a5       $N00421                    100bd3a5     lib_acl_d.exp
 0002:000483b6       $N00422                    100bd3b6     lib_acl_d.exp
 0002:000483c9       $N00423                    100bd3c9     lib_acl_d.exp
 0002:000483da       $N00424                    100bd3da     lib_acl_d.exp
 0002:000483ea       $N00425                    100bd3ea     lib_acl_d.exp
 0002:000483fc       $N00426                    100bd3fc     lib_acl_d.exp
 0002:0004840c       $N00427                    100bd40c     lib_acl_d.exp
 0002:00048421       $N00428                    100bd421     lib_acl_d.exp
 0002:00048436       $N00429                    100bd436     lib_acl_d.exp
 0002:0004844b       $N00430                    100bd44b     lib_acl_d.exp
 0002:00048460       $N00431                    100bd460     lib_acl_d.exp
 0002:00048470       $N00432                    100bd470     lib_acl_d.exp
 0002:00048482       $N00433                    100bd482     lib_acl_d.exp
 0002:00048496       $N00434                    100bd496     lib_acl_d.exp
 0002:000484a7       $N00435                    100bd4a7     lib_acl_d.exp
 0002:000484bc       $N00436                    100bd4bc     lib_acl_d.exp
 0002:000484cc       $N00437                    100bd4cc     lib_acl_d.exp
 0002:000484dc       $N00438                    100bd4dc     lib_acl_d.exp
 0002:000484ec       $N00439                    100bd4ec     lib_acl_d.exp
 0002:000484fc       $N00440                    100bd4fc     lib_acl_d.exp
 0002:0004850c       $N00441                    100bd50c     lib_acl_d.exp
 0002:0004851c       $N00442                    100bd51c     lib_acl_d.exp
 0002:00048527       $N00443                    100bd527     lib_acl_d.exp
 0002:00048538       $N00444                    100bd538     lib_acl_d.exp
 0002:00048548       $N00445                    100bd548     lib_acl_d.exp
 0002:0004855b       $N00446                    100bd55b     lib_acl_d.exp
 0002:0004856c       $N00447                    100bd56c     lib_acl_d.exp
 0002:00048580       $N00448                    100bd580     lib_acl_d.exp
 0002:00048590       $N00449                    100bd590     lib_acl_d.exp
 0002:0004859e       $N00450                    100bd59e     lib_acl_d.exp
 0002:000485ad       $N00451                    100bd5ad     lib_acl_d.exp
 0002:000485b6       $N00452                    100bd5b6     lib_acl_d.exp
 0002:000485c7       $N00453                    100bd5c7     lib_acl_d.exp
 0002:000485d5       $N00454                    100bd5d5     lib_acl_d.exp
 0002:000485e7       $N00455                    100bd5e7     lib_acl_d.exp
 0002:000485fe       $N00456                    100bd5fe     lib_acl_d.exp
 0002:00048610       $N00457                    100bd610     lib_acl_d.exp
 0002:00048621       $N00458                    100bd621     lib_acl_d.exp
 0002:00048635       $N00459                    100bd635     lib_acl_d.exp
 0002:00048643       $N00460                    100bd643     lib_acl_d.exp
 0002:0004865a       $N00461                    100bd65a     lib_acl_d.exp
 0002:00048676       $N00462                    100bd676     lib_acl_d.exp
 0002:0004868e       $N00463                    100bd68e     lib_acl_d.exp
 0002:000486a7       $N00464                    100bd6a7     lib_acl_d.exp
 0002:000486bf       $N00465                    100bd6bf     lib_acl_d.exp
 0002:000486d5       $N00466                    100bd6d5     lib_acl_d.exp
 0002:000486ec       $N00467                    100bd6ec     lib_acl_d.exp
 0002:000486fc       $N00468                    100bd6fc     lib_acl_d.exp
 0002:0004870b       $N00469                    100bd70b     lib_acl_d.exp
 0002:0004871c       $N00470                    100bd71c     lib_acl_d.exp
 0002:0004872c       $N00471                    100bd72c     lib_acl_d.exp
 0002:0004873d       $N00472                    100bd73d     lib_acl_d.exp
 0002:0004874e       $N00473                    100bd74e     lib_acl_d.exp
 0002:00048762       $N00474                    100bd762     lib_acl_d.exp
 0002:00048771       $N00475                    100bd771     lib_acl_d.exp
 0002:00048783       $N00476                    100bd783     lib_acl_d.exp
 0002:0004879b       $N00477                    100bd79b     lib_acl_d.exp
 0002:000487ab       $N00478                    100bd7ab     lib_acl_d.exp
 0002:000487c1       $N00479                    100bd7c1     lib_acl_d.exp
 0002:000487d3       $N00480                    100bd7d3     lib_acl_d.exp
 0002:000487eb       $N00481                    100bd7eb     lib_acl_d.exp
 0002:00048805       $N00482                    100bd805     lib_acl_d.exp
 0002:00048815       $N00483                    100bd815     lib_acl_d.exp
 0002:00048827       $N00484                    100bd827     lib_acl_d.exp
 0002:0004883d       $N00485                    100bd83d     lib_acl_d.exp
 0002:0004884d       $N00486                    100bd84d     lib_acl_d.exp
 0002:00048863       $N00487                    100bd863     lib_acl_d.exp
 0002:0004887a       $N00488                    100bd87a     lib_acl_d.exp
 0002:00048890       $N00489                    100bd890     lib_acl_d.exp
 0002:000488a2       $N00490                    100bd8a2     lib_acl_d.exp
 0002:000488b6       $N00491                    100bd8b6     lib_acl_d.exp
 0002:000488c5       $N00492                    100bd8c5     lib_acl_d.exp
 0002:000488cf       $N00493                    100bd8cf     lib_acl_d.exp
 0002:000488de       $N00494                    100bd8de     lib_acl_d.exp
 0002:000488ee       $N00495                    100bd8ee     lib_acl_d.exp
 0002:000488fd       $N00496                    100bd8fd     lib_acl_d.exp
 0002:0004890c       $N00497                    100bd90c     lib_acl_d.exp
 0002:00048920       $N00498                    100bd920     lib_acl_d.exp
 0002:00048936       $N00499                    100bd936     lib_acl_d.exp
 0002:0004894b       $N00500                    100bd94b     lib_acl_d.exp
 0002:00048960       $N00501                    100bd960     lib_acl_d.exp
 0002:00048974       $N00502                    100bd974     lib_acl_d.exp
 0002:0004898a       $N00503                    100bd98a     lib_acl_d.exp
 0002:00048998       $N00504                    100bd998     lib_acl_d.exp
 0002:000489ac       $N00505                    100bd9ac     lib_acl_d.exp
 0002:000489ca       $N00506                    100bd9ca     lib_acl_d.exp
 0002:000489e5       $N00507                    100bd9e5     lib_acl_d.exp
 0002:000489fd       $N00508                    100bd9fd     lib_acl_d.exp
 0002:00048a11       $N00509                    100bda11     lib_acl_d.exp
 0002:00048a26       $N00510                    100bda26     lib_acl_d.exp
 0002:00048a41       $N00511                    100bda41     lib_acl_d.exp
 0002:00048a56       $N00512                    100bda56     lib_acl_d.exp
 0002:00048a69       $N00513                    100bda69     lib_acl_d.exp
 0002:00048a7e       $N00514                    100bda7e     lib_acl_d.exp
 0002:00048a91       $N00515                    100bda91     lib_acl_d.exp
 0002:00048aa4       $N00516                    100bdaa4     lib_acl_d.exp
 0002:00048ab3       $N00517                    100bdab3     lib_acl_d.exp
 0002:00048ac3       $N00518                    100bdac3     lib_acl_d.exp
 0002:00048ad2       $N00519                    100bdad2     lib_acl_d.exp
 0002:00048ae2       $N00520                    100bdae2     lib_acl_d.exp
 0002:00048af4       $N00521                    100bdaf4     lib_acl_d.exp
 0002:00048b04       $N00522                    100bdb04     lib_acl_d.exp
 0002:00048b13       $N00523                    100bdb13     lib_acl_d.exp
 0002:00048b23       $N00524                    100bdb23     lib_acl_d.exp
 0002:00048b31       $N00525                    100bdb31     lib_acl_d.exp
 0002:00048b40       $N00526                    100bdb40     lib_acl_d.exp
 0002:00048b4f       $N00527                    100bdb4f     lib_acl_d.exp
 0002:00048b59       $N00528                    100bdb59     lib_acl_d.exp
 0002:00048b6e       $N00529                    100bdb6e     lib_acl_d.exp
 0002:00048b7c       $N00530                    100bdb7c     lib_acl_d.exp
 0002:00048b8c       $N00531                    100bdb8c     lib_acl_d.exp
 0002:00048b9a       $N00532                    100bdb9a     lib_acl_d.exp
 0002:00048ba6       $N00533                    100bdba6     lib_acl_d.exp
 0002:00048bb2       $N00534                    100bdbb2     lib_acl_d.exp
 0002:00048bc1       $N00535                    100bdbc1     lib_acl_d.exp
 0002:00048bcd       $N00536                    100bdbcd     lib_acl_d.exp
 0002:00048bda       $N00537                    100bdbda     lib_acl_d.exp
 0002:00048be7       $N00538                    100bdbe7     lib_acl_d.exp
 0002:00048bf4       $N00539                    100bdbf4     lib_acl_d.exp
 0002:00048c02       $N00540                    100bdc02     lib_acl_d.exp
 0002:00048c15       $N00541                    100bdc15     lib_acl_d.exp
 0002:00048c22       $N00542                    100bdc22     lib_acl_d.exp
 0002:00048c2e       $N00543                    100bdc2e     lib_acl_d.exp
 0002:00048c3a       $N00544                    100bdc3a     lib_acl_d.exp
 0002:00048c49       $N00545                    100bdc49     lib_acl_d.exp
 0002:00048c58       $N00546                    100bdc58     lib_acl_d.exp
 0002:00048c6a       $N00547                    100bdc6a     lib_acl_d.exp
 0002:00048c77       $N00548                    100bdc77     lib_acl_d.exp
 0002:00048c84       $N00549                    100bdc84     lib_acl_d.exp
 0002:00048c91       $N00550                    100bdc91     lib_acl_d.exp
 0002:00048c9f       $N00551                    100bdc9f     lib_acl_d.exp
 0002:00048cb0       $N00552                    100bdcb0     lib_acl_d.exp
 0002:00048cc2       $N00553                    100bdcc2     lib_acl_d.exp
 0002:00048ccf       $N00554                    100bdccf     lib_acl_d.exp
 0002:00048cdc       $N00555                    100bdcdc     lib_acl_d.exp
 0002:00048cf8       $N00556                    100bdcf8     lib_acl_d.exp
 0002:00048d0e       $N00557                    100bdd0e     lib_acl_d.exp
 0002:00048d1f       $N00558                    100bdd1f     lib_acl_d.exp
 0002:00048d32       $N00559                    100bdd32     lib_acl_d.exp
 0002:00048d44       $N00560                    100bdd44     lib_acl_d.exp
 0002:00048d53       $N00561                    100bdd53     lib_acl_d.exp
 0002:00048d63       $N00562                    100bdd63     lib_acl_d.exp
 0002:00048d79       $N00563                    100bdd79     lib_acl_d.exp
 0002:00048d90       $N00564                    100bdd90     lib_acl_d.exp
 0002:00048da7       $N00565                    100bdda7     lib_acl_d.exp
 0002:00048dbd       $N00566                    100bddbd     lib_acl_d.exp
 0002:00048dcd       $N00567                    100bddcd     lib_acl_d.exp
 0002:00048ddf       $N00568                    100bdddf     lib_acl_d.exp
 0002:00048def       $N00569                    100bddef     lib_acl_d.exp
 0002:00048e00       $N00570                    100bde00     lib_acl_d.exp
 0002:00048e1c       $N00571                    100bde1c     lib_acl_d.exp
 0002:00048e2b       $N00572                    100bde2b     lib_acl_d.exp
 0002:00048e39       $N00573                    100bde39     lib_acl_d.exp
 0002:00048e47       $N00574                    100bde47     lib_acl_d.exp
 0002:00048e56       $N00575                    100bde56     lib_acl_d.exp
 0002:00048e64       $N00576                    100bde64     lib_acl_d.exp
 0002:00048e73       $N00577                    100bde73     lib_acl_d.exp
 0002:00048e88       $N00578                    100bde88     lib_acl_d.exp
 0002:00048e9e       $N00579                    100bde9e     lib_acl_d.exp
 0002:00048eab       $N00580                    100bdeab     lib_acl_d.exp
 0002:00048eb9       $N00581                    100bdeb9     lib_acl_d.exp
 0002:00048ec6       $N00582                    100bdec6     lib_acl_d.exp
 0002:00048ed4       $N00583                    100bded4     lib_acl_d.exp
 0002:00048ee2       $N00584                    100bdee2     lib_acl_d.exp
 0002:00048ef1       $N00585                    100bdef1     lib_acl_d.exp
 0002:00048f03       $N00586                    100bdf03     lib_acl_d.exp
 0002:00048f12       $N00587                    100bdf12     lib_acl_d.exp
 0002:00048f23       $N00588                    100bdf23     lib_acl_d.exp
 0002:00048f39       $N00589                    100bdf39     lib_acl_d.exp
 0002:00048f4c       $N00590                    100bdf4c     lib_acl_d.exp
 0002:00048f5c       $N00591                    100bdf5c     lib_acl_d.exp
 0002:00048f69       $N00592                    100bdf69     lib_acl_d.exp
 0002:00048f77       $N00593                    100bdf77     lib_acl_d.exp
 0002:00048f88       $N00594                    100bdf88     lib_acl_d.exp
 0002:00048f97       $N00595                    100bdf97     lib_acl_d.exp
 0002:00048fa5       $N00596                    100bdfa5     lib_acl_d.exp
 0002:00048fb7       $N00597                    100bdfb7     lib_acl_d.exp
 0002:00048fc7       $N00598                    100bdfc7     lib_acl_d.exp
 0002:00048fd9       $N00599                    100bdfd9     lib_acl_d.exp
 0002:00048fe8       $N00600                    100bdfe8     lib_acl_d.exp
 0002:00048ff9       $N00601                    100bdff9     lib_acl_d.exp
 0002:0004900e       $N00602                    100be00e     lib_acl_d.exp
 0002:0004901c       $N00603                    100be01c     lib_acl_d.exp
 0002:0004902b       $N00604                    100be02b     lib_acl_d.exp
 0002:00049041       $N00605                    100be041     lib_acl_d.exp
 0002:00049051       $N00606                    100be051     lib_acl_d.exp
 0002:00049065       $N00607                    100be065     lib_acl_d.exp
 0002:00049078       $N00608                    100be078     lib_acl_d.exp
 0002:0004908a       $N00609                    100be08a     lib_acl_d.exp
 0002:00049099       $N00610                    100be099     lib_acl_d.exp
 0002:000490a5       $N00611                    100be0a5     lib_acl_d.exp
 0002:000490b5       $N00612                    100be0b5     lib_acl_d.exp
 0002:000490c4       $N00613                    100be0c4     lib_acl_d.exp
 0002:000490dc       $N00614                    100be0dc     lib_acl_d.exp
 0002:000490ea       $N00615                    100be0ea     lib_acl_d.exp
 0002:000490f7       $N00616                    100be0f7     lib_acl_d.exp
 0002:0004910a       $N00617                    100be10a     lib_acl_d.exp
 0002:0004911a       $N00618                    100be11a     lib_acl_d.exp
 0002:00049133       $N00619                    100be133     lib_acl_d.exp
 0002:00049148       $N00620                    100be148     lib_acl_d.exp
 0002:0004915f       $N00621                    100be15f     lib_acl_d.exp
 0002:00049174       $N00622                    100be174     lib_acl_d.exp
 0002:00049184       $N00623                    100be184     lib_acl_d.exp
 0002:00049193       $N00624                    100be193     lib_acl_d.exp
 0002:000491a3       $N00625                    100be1a3     lib_acl_d.exp
 0002:000491b6       $N00626                    100be1b6     lib_acl_d.exp
 0002:000491cc       $N00627                    100be1cc     lib_acl_d.exp
 0002:000491da       $N00628                    100be1da     lib_acl_d.exp
 0002:000491ea       $N00629                    100be1ea     lib_acl_d.exp
 0002:000491ff       $N00630                    100be1ff     lib_acl_d.exp
 0002:0004920e       $N00631                    100be20e     lib_acl_d.exp
 0002:00049221       $N00632                    100be221     lib_acl_d.exp
 0002:00049233       $N00633                    100be233     lib_acl_d.exp
 0002:00049244       $N00634                    100be244     lib_acl_d.exp
 0002:00049251       $N00635                    100be251     lib_acl_d.exp
 0002:0004925c       $N00636                    100be25c     lib_acl_d.exp
 0002:00049267       $N00637                    100be267     lib_acl_d.exp
 0002:00049272       $N00638                    100be272     lib_acl_d.exp
 0002:0004927b       $N00639                    100be27b     lib_acl_d.exp
 0002:0004928a       $N00640                    100be28a     lib_acl_d.exp
 0002:0004929c       $N00641                    100be29c     lib_acl_d.exp
 0002:000492a7       $N00642                    100be2a7     lib_acl_d.exp
 0002:000492b8       $N00643                    100be2b8     lib_acl_d.exp
 0002:000492c9       $N00644                    100be2c9     lib_acl_d.exp
 0002:000492e0       $N00645                    100be2e0     lib_acl_d.exp
 0002:000492f7       $N00646                    100be2f7     lib_acl_d.exp
 0002:0004930e       $N00647                    100be30e     lib_acl_d.exp
 0002:0004932a       $N00648                    100be32a     lib_acl_d.exp
 0002:0004933a       $N00649                    100be33a     lib_acl_d.exp
 0002:0004934b       $N00650                    100be34b     lib_acl_d.exp
 0002:0004935b       $N00651                    100be35b     lib_acl_d.exp
 0002:00049370       $N00652                    100be370     lib_acl_d.exp
 0002:00049384       $N00653                    100be384     lib_acl_d.exp
 0002:00049398       $N00654                    100be398     lib_acl_d.exp
 0002:000493af       $N00655                    100be3af     lib_acl_d.exp
 0002:000493c9       $N00656                    100be3c9     lib_acl_d.exp
 0002:000493e2       $N00657                    100be3e2     lib_acl_d.exp
 0002:000493f8       $N00658                    100be3f8     lib_acl_d.exp
 0002:00049418       $N00659                    100be418     lib_acl_d.exp
 0002:00049436       $N00660                    100be436     lib_acl_d.exp
 0002:00049451       $N00661                    100be451     lib_acl_d.exp
 0002:00049469       $N00662                    100be469     lib_acl_d.exp
 0002:00049482       $N00663                    100be482     lib_acl_d.exp
 0002:00049498       $N00664                    100be498     lib_acl_d.exp
 0002:000494b0       $N00665                    100be4b0     lib_acl_d.exp
 0002:000494cb       $N00666                    100be4cb     lib_acl_d.exp
 0002:000494e1       $N00667                    100be4e1     lib_acl_d.exp
 0002:000494f4       $N00668                    100be4f4     lib_acl_d.exp
 0002:00049507       $N00669                    100be507     lib_acl_d.exp
 0002:00049517       $N00670                    100be517     lib_acl_d.exp
 0002:0004952f       $N00671                    100be52f     lib_acl_d.exp
 0002:00049540       $N00672                    100be540     lib_acl_d.exp
 0002:00049557       $N00673                    100be557     lib_acl_d.exp
 0002:00049570       $N00674                    100be570     lib_acl_d.exp
 0002:0004958a       $N00675                    100be58a     lib_acl_d.exp
 0002:000495a1       $N00676                    100be5a1     lib_acl_d.exp
 0002:000495b8       $N00677                    100be5b8     lib_acl_d.exp
 0002:000495d1       $N00678                    100be5d1     lib_acl_d.exp
 0002:000495e2       $N00679                    100be5e2     lib_acl_d.exp
 0002:000495f7       $N00680                    100be5f7     lib_acl_d.exp
 0002:00049612       $N00681                    100be612     lib_acl_d.exp
 0002:00049630       $N00682                    100be630     lib_acl_d.exp
 0002:00049649       $N00683                    100be649     lib_acl_d.exp
 0002:00049662       $N00684                    100be662     lib_acl_d.exp
 0002:0004967a       $N00685                    100be67a     lib_acl_d.exp
 0002:00049692       $N00686                    100be692     lib_acl_d.exp
 0002:000496ad       $N00687                    100be6ad     lib_acl_d.exp
 0002:000496d4       $N00688                    100be6d4     lib_acl_d.exp
 0002:000496f8       $N00689                    100be6f8     lib_acl_d.exp
 0002:00049720       $N00690                    100be720     lib_acl_d.exp
 0002:00049738       $N00691                    100be738     lib_acl_d.exp
 0002:00049751       $N00692                    100be751     lib_acl_d.exp
 0002:0004976b       $N00693                    100be76b     lib_acl_d.exp
 0002:00049787       $N00694                    100be787     lib_acl_d.exp
 0002:000497a6       $N00695                    100be7a6     lib_acl_d.exp
 0002:000497c4       $N00696                    100be7c4     lib_acl_d.exp
 0002:000497da       $N00697                    100be7da     lib_acl_d.exp
 0002:000497f8       $N00698                    100be7f8     lib_acl_d.exp
 0002:0004980e       $N00699                    100be80e     lib_acl_d.exp
 0002:0004981f       $N00700                    100be81f     lib_acl_d.exp
 0002:00049837       $N00701                    100be837     lib_acl_d.exp
 0002:0004984b       $N00702                    100be84b     lib_acl_d.exp
 0002:0004985f       $N00703                    100be85f     lib_acl_d.exp
 0002:00049877       $N00704                    100be877     lib_acl_d.exp
 0002:0004988f       $N00705                    100be88f     lib_acl_d.exp
 0002:000498a7       $N00706                    100be8a7     lib_acl_d.exp
 0002:000498c0       $N00707                    100be8c0     lib_acl_d.exp
 0002:000498d9       $N00708                    100be8d9     lib_acl_d.exp
 0002:000498ed       $N00709                    100be8ed     lib_acl_d.exp
 0002:00049905       $N00710                    100be905     lib_acl_d.exp
 0002:0004990e       $N00711                    100be90e     lib_acl_d.exp
 0002:0004991a       $N00712                    100be91a     lib_acl_d.exp
 0002:00049925       $N00713                    100be925     lib_acl_d.exp
 0002:0004992e       $N00714                    100be92e     lib_acl_d.exp
 0002:0004993c       $N00715                    100be93c     lib_acl_d.exp
 0002:00049949       $N00716                    100be949     lib_acl_d.exp
 0002:00049957       $N00717                    100be957     lib_acl_d.exp
 0002:00049968       $N00718                    100be968     lib_acl_d.exp
 0002:00049977       $N00719                    100be977     lib_acl_d.exp
 0002:00049984       $N00720                    100be984     lib_acl_d.exp
 0002:00049993       $N00721                    100be993     lib_acl_d.exp
 0002:0004999f       $N00722                    100be99f     lib_acl_d.exp
 0002:000499b0       $N00723                    100be9b0     lib_acl_d.exp
 0002:000499c0       $N00724                    100be9c0     lib_acl_d.exp
 0002:000499d0       $N00725                    100be9d0     lib_acl_d.exp
 0002:000499de       $N00726                    100be9de     lib_acl_d.exp
 0002:000499f0       $N00727                    100be9f0     lib_acl_d.exp
 0002:00049a02       $N00728                    100bea02     lib_acl_d.exp
 0002:00049a13       $N00729                    100bea13     lib_acl_d.exp
 0002:00049a21       $N00730                    100bea21     lib_acl_d.exp
 0002:00049a31       $N00731                    100bea31     lib_acl_d.exp
 0002:00049a3d       $N00732                    100bea3d     lib_acl_d.exp
 0002:00049a4f       $N00733                    100bea4f     lib_acl_d.exp
 0002:00049a5f       $N00734                    100bea5f     lib_acl_d.exp
 0002:00049a6f       $N00735                    100bea6f     lib_acl_d.exp
 0002:00049a81       $N00736                    100bea81     lib_acl_d.exp
 0002:00049a92       $N00737                    100bea92     lib_acl_d.exp
 0002:00049aa3       $N00738                    100beaa3     lib_acl_d.exp
 0002:00049ab6       $N00739                    100beab6     lib_acl_d.exp
 0002:00049ac7       $N00740                    100beac7     lib_acl_d.exp
 0002:00049ad8       $N00741                    100bead8     lib_acl_d.exp
 0002:00049aea       $N00742                    100beaea     lib_acl_d.exp
 0002:00049afd       $N00743                    100beafd     lib_acl_d.exp
 0002:00049b0f       $N00744                    100beb0f     lib_acl_d.exp
 0002:00049b26       $N00745                    100beb26     lib_acl_d.exp
 0002:00049b3a       $N00746                    100beb3a     lib_acl_d.exp
 0002:00049b4d       $N00747                    100beb4d     lib_acl_d.exp
 0002:00049b5f       $N00748                    100beb5f     lib_acl_d.exp
 0002:00049b71       $N00749                    100beb71     lib_acl_d.exp
 0002:00049b82       $N00750                    100beb82     lib_acl_d.exp
 0002:00049b94       $N00751                    100beb94     lib_acl_d.exp
 0002:00049ba7       $N00752                    100beba7     lib_acl_d.exp
 0002:00049bb7       $N00753                    100bebb7     lib_acl_d.exp
 0002:00049bc8       $N00754                    100bebc8     lib_acl_d.exp
 0002:00049bda       $N00755                    100bebda     lib_acl_d.exp
 0002:00049bed       $N00756                    100bebed     lib_acl_d.exp
 0002:00049bfb       $N00757                    100bebfb     lib_acl_d.exp
 0002:00049c0a       $N00758                    100bec0a     lib_acl_d.exp
 0002:00049c1a       $N00759                    100bec1a     lib_acl_d.exp
 0002:00049c2a       $N00760                    100bec2a     lib_acl_d.exp
 0002:00049c37       $N00761                    100bec37     lib_acl_d.exp
 0002:00049c48       $N00762                    100bec48     lib_acl_d.exp
 0002:00049c56       $N00763                    100bec56     lib_acl_d.exp
 0002:00049c63       $N00764                    100bec63     lib_acl_d.exp
 0002:00049c78       $N00765                    100bec78     lib_acl_d.exp
 0002:00049c86       $N00766                    100bec86     lib_acl_d.exp
 0002:00049c91       $N00767                    100bec91     lib_acl_d.exp
 0002:00049ca1       $N00768                    100beca1     lib_acl_d.exp
 0002:00049cb2       $N00769                    100becb2     lib_acl_d.exp
 0002:00049cc3       $N00770                    100becc3     lib_acl_d.exp
 0002:00049cd5       $N00771                    100becd5     lib_acl_d.exp
 0002:00049ce4       $N00772                    100bece4     lib_acl_d.exp
 0002:00049cf4       $N00773                    100becf4     lib_acl_d.exp
 0002:00049d01       $N00774                    100bed01     lib_acl_d.exp
 0002:00049d16       $N00775                    100bed16     lib_acl_d.exp
 0002:00049d2c       $N00776                    100bed2c     lib_acl_d.exp
 0002:00049d41       $N00777                    100bed41     lib_acl_d.exp
 0002:00049d57       $N00778                    100bed57     lib_acl_d.exp
 0002:00049d6e       $N00779                    100bed6e     lib_acl_d.exp
 0002:00049d82       $N00780                    100bed82     lib_acl_d.exp
 0002:00049d94       $N00781                    100bed94     lib_acl_d.exp
 0002:00049da8       $N00782                    100beda8     lib_acl_d.exp
 0002:00049dbe       $N00783                    100bedbe     lib_acl_d.exp
 0002:00049dd5       $N00784                    100bedd5     lib_acl_d.exp
 0002:00049dea       $N00785                    100bedea     lib_acl_d.exp
 0002:00049e00       $N00786                    100bee00     lib_acl_d.exp
 0002:00049e17       $N00787                    100bee17     lib_acl_d.exp
 0002:00049e2b       $N00788                    100bee2b     lib_acl_d.exp
 0002:00049e3a       $N00789                    100bee3a     lib_acl_d.exp
 0002:00049e49       $N00790                    100bee49     lib_acl_d.exp
 0002:00049e56       $N00791                    100bee56     lib_acl_d.exp
 0002:00049e67       $N00792                    100bee67     lib_acl_d.exp
 0002:00049e76       $N00793                    100bee76     lib_acl_d.exp
 0002:00049e86       $N00794                    100bee86     lib_acl_d.exp
 0002:00049e96       $N00795                    100bee96     lib_acl_d.exp
 0002:00049ea7       $N00796                    100beea7     lib_acl_d.exp
 0002:00049eb9       $N00797                    100beeb9     lib_acl_d.exp
 0002:00049ec6       $N00798                    100beec6     lib_acl_d.exp
 0002:00049ed9       $N00799                    100beed9     lib_acl_d.exp
 0002:00049eeb       $N00800                    100beeeb     lib_acl_d.exp
 0002:00049ef7       $N00801                    100beef7     lib_acl_d.exp
 0002:00049f08       $N00802                    100bef08     lib_acl_d.exp
 0002:00049f18       $N00803                    100bef18     lib_acl_d.exp
 0002:00049f29       $N00804                    100bef29     lib_acl_d.exp
 0002:00049f3a       $N00805                    100bef3a     lib_acl_d.exp
 0002:00049f4f       $N00806                    100bef4f     lib_acl_d.exp
 0002:00049f61       $N00807                    100bef61     lib_acl_d.exp
 0002:00049f71       $N00808                    100bef71     lib_acl_d.exp
 0002:00049f7f       $N00809                    100bef7f     lib_acl_d.exp
 0002:00049f91       $N00810                    100bef91     lib_acl_d.exp
 0002:00049fa0       $N00811                    100befa0     lib_acl_d.exp
 0002:00049fb0       $N00812                    100befb0     lib_acl_d.exp
 0002:00049fbe       $N00813                    100befbe     lib_acl_d.exp
 0002:00049fcd       $N00814                    100befcd     lib_acl_d.exp
 0002:00049fdc       $N00815                    100befdc     lib_acl_d.exp
 0002:00049feb       $N00816                    100befeb     lib_acl_d.exp
 0002:00049ffb       $N00817                    100beffb     lib_acl_d.exp
 0002:0004a008       $N00818                    100bf008     lib_acl_d.exp
 0002:0004a018       $N00819                    100bf018     lib_acl_d.exp
 0002:0004a029       $N00820                    100bf029     lib_acl_d.exp
 0002:0004a035       $N00821                    100bf035     lib_acl_d.exp
 0002:0004a046       $N00822                    100bf046     lib_acl_d.exp
 0002:0004a053       $N00823                    100bf053     lib_acl_d.exp
 0002:0004a068       $N00824                    100bf068     lib_acl_d.exp
 0002:0004a07b       $N00825                    100bf07b     lib_acl_d.exp
 0002:0004a08e       $N00826                    100bf08e     lib_acl_d.exp
 0002:0004a09e       $N00827                    100bf09e     lib_acl_d.exp
 0002:0004a0b2       $N00828                    100bf0b2     lib_acl_d.exp
 0002:0004a0c5       $N00829                    100bf0c5     lib_acl_d.exp
 0002:0004a0d8       $N00830                    100bf0d8     lib_acl_d.exp
 0002:0004a0ea       $N00831                    100bf0ea     lib_acl_d.exp
 0002:0004a100       $N00832                    100bf100     lib_acl_d.exp
 0002:0004a118       $N00833                    100bf118     lib_acl_d.exp
 0002:0004a130       $N00834                    100bf130     lib_acl_d.exp
 0002:0004a147       $N00835                    100bf147     lib_acl_d.exp
 0002:0004a159       $N00836                    100bf159     lib_acl_d.exp
 0002:0004a168       $N00837                    100bf168     lib_acl_d.exp
 0002:0004a178       $N00838                    100bf178     lib_acl_d.exp
 0002:0004a189       $N00839                    100bf189     lib_acl_d.exp
 0002:0004a198       $N00840                    100bf198     lib_acl_d.exp
 0002:0004a1a7       $N00841                    100bf1a7     lib_acl_d.exp
 0002:0004a1b5       $N00842                    100bf1b5     lib_acl_d.exp
 0002:0004a1c5       $N00843                    100bf1c5     lib_acl_d.exp
 0002:0004a1d7       $N00844                    100bf1d7     lib_acl_d.exp
 0002:0004a1e6       $N00845                    100bf1e6     lib_acl_d.exp
 0002:0004a1f5       $N00846                    100bf1f5     lib_acl_d.exp
 0002:0004a20e       $N00847                    100bf20e     lib_acl_d.exp
 0002:0004a226       $N00848                    100bf226     lib_acl_d.exp
 0002:0004a235       $N00849                    100bf235     lib_acl_d.exp
 0002:0004a244       $N00850                    100bf244     lib_acl_d.exp
 0002:0004a254       $N00851                    100bf254     lib_acl_d.exp
 0002:0004a262       $N00852                    100bf262     lib_acl_d.exp
 0002:0004a275       $N00853                    100bf275     lib_acl_d.exp
 0002:0004a291       $N00854                    100bf291     lib_acl_d.exp
 0002:0004a2a7       $N00855                    100bf2a7     lib_acl_d.exp
 0002:0004a2be       $N00856                    100bf2be     lib_acl_d.exp
 0002:0004a2d5       $N00857                    100bf2d5     lib_acl_d.exp
 0002:0004a2ee       $N00858                    100bf2ee     lib_acl_d.exp
 0002:0004a307       $N00859                    100bf307     lib_acl_d.exp
 0002:0004a31c       $N00860                    100bf31c     lib_acl_d.exp
 0002:0004a331       $N00861                    100bf331     lib_acl_d.exp
 0002:0004a345       $N00862                    100bf345     lib_acl_d.exp
 0002:0004a359       $N00863                    100bf359     lib_acl_d.exp
 0002:0004a373       $N00864                    100bf373     lib_acl_d.exp
 0002:0004a37f       $N00865                    100bf37f     lib_acl_d.exp
 0002:0004a391       $N00866                    100bf391     lib_acl_d.exp
 0002:0004a39c       $N00867                    100bf39c     lib_acl_d.exp
 0002:0004a3aa       $N00868                    100bf3aa     lib_acl_d.exp
 0002:0004a3b9       $N00869                    100bf3b9     lib_acl_d.exp
 0002:0004a3c8       $N00870                    100bf3c8     lib_acl_d.exp
 0002:0004a3d7       $N00871                    100bf3d7     lib_acl_d.exp
 0002:0004a3e6       $N00872                    100bf3e6     lib_acl_d.exp
 0002:0004a3f9       $N00873                    100bf3f9     lib_acl_d.exp
 0002:0004a40c       $N00874                    100bf40c     lib_acl_d.exp
 0002:0004a424       $N00875                    100bf424     lib_acl_d.exp
 0002:0004a43c       $N00876                    100bf43c     lib_acl_d.exp
 0002:0004a449       $N00877                    100bf449     lib_acl_d.exp
 0002:0004a458       $N00878                    100bf458     lib_acl_d.exp
 0002:0004a465       $N00879                    100bf465     lib_acl_d.exp
 0002:0004a473       $N00880                    100bf473     lib_acl_d.exp
 0002:0004a482       $N00881                    100bf482     lib_acl_d.exp
 0002:0004a491       $N00882                    100bf491     lib_acl_d.exp
 0002:0004a49d       $N00883                    100bf49d     lib_acl_d.exp
 0002:0004a4aa       $N00884                    100bf4aa     lib_acl_d.exp
 0002:0004a4b6       $N00885                    100bf4b6     lib_acl_d.exp
 0002:0004a4c4       $N00886                    100bf4c4     lib_acl_d.exp
 0002:0004a4d1       $N00887                    100bf4d1     lib_acl_d.exp
 0002:0004a4e4       $N00888                    100bf4e4     lib_acl_d.exp
 0002:0004a4fa       $N00889                    100bf4fa     lib_acl_d.exp
 0002:0004a517       $N00890                    100bf517     lib_acl_d.exp
 0002:0004a52d       $N00891                    100bf52d     lib_acl_d.exp
 0002:0004a548       $N00892                    100bf548     lib_acl_d.exp
 0002:0004a561       $N00893                    100bf561     lib_acl_d.exp
 0002:0004a57b       $N00894                    100bf57b     lib_acl_d.exp
 0002:0004a593       $N00895                    100bf593     lib_acl_d.exp
 0002:0004a5ac       $N00896                    100bf5ac     lib_acl_d.exp
 0002:0004a5c8       $N00897                    100bf5c8     lib_acl_d.exp
 0002:0004a5e2       $N00898                    100bf5e2     lib_acl_d.exp
 0002:0004a601       $N00899                    100bf601     lib_acl_d.exp
 0002:0004a616       $N00900                    100bf616     lib_acl_d.exp
 0002:0004a635       $N00901                    100bf635     lib_acl_d.exp
 0002:0004a647       $N00902                    100bf647     lib_acl_d.exp
 0002:0004a659       $N00903                    100bf659     lib_acl_d.exp
 0002:0004a66d       $N00904                    100bf66d     lib_acl_d.exp
 0002:0004a684       $N00905                    100bf684     lib_acl_d.exp
 0002:0004a694       $N00906                    100bf694     lib_acl_d.exp
 0002:0004a6b4       $N00907                    100bf6b4     lib_acl_d.exp
 0002:0004a6c7       $N00908                    100bf6c7     lib_acl_d.exp
 0002:0004a6da       $N00909                    100bf6da     lib_acl_d.exp
 0002:0004a6ed       $N00910                    100bf6ed     lib_acl_d.exp
 0002:0004a6ff       $N00911                    100bf6ff     lib_acl_d.exp
 0002:0004a713       $N00912                    100bf713     lib_acl_d.exp
 0002:0004a725       $N00913                    100bf725     lib_acl_d.exp
 0002:0004a736       $N00914                    100bf736     lib_acl_d.exp
 0002:0004a748       $N00915                    100bf748     lib_acl_d.exp
 0002:0004a75b       $N00916                    100bf75b     lib_acl_d.exp
 0002:0004a76d       $N00917                    100bf76d     lib_acl_d.exp
 0002:0004a77f       $N00918                    100bf77f     lib_acl_d.exp
 0002:0004a790       $N00919                    100bf790     lib_acl_d.exp
 0002:0004a7a2       $N00920                    100bf7a2     lib_acl_d.exp
 0002:0004a7b3       $N00921                    100bf7b3     lib_acl_d.exp
 0002:0004a7c4       $N00922                    100bf7c4     lib_acl_d.exp
 0002:0004a7da       $N00923                    100bf7da     lib_acl_d.exp
 0002:0004a7f5       $N00924                    100bf7f5     lib_acl_d.exp
 0002:0004a80b       $N00925                    100bf80b     lib_acl_d.exp
 0002:0004a81c       $N00926                    100bf81c     lib_acl_d.exp
 0002:0004a82f       $N00927                    100bf82f     lib_acl_d.exp
 0002:0004a845       $N00928                    100bf845     lib_acl_d.exp
 0002:0004a85a       $N00929                    100bf85a     lib_acl_d.exp
 0002:0004a870       $N00930                    100bf870     lib_acl_d.exp
 0002:0004a887       $N00931                    100bf887     lib_acl_d.exp
 0002:0004a89a       $N00932                    100bf89a     lib_acl_d.exp
 0002:0004a8ad       $N00933                    100bf8ad     lib_acl_d.exp
 0002:0004a8bf       $N00934                    100bf8bf     lib_acl_d.exp
 0002:0004a8d2       $N00935                    100bf8d2     lib_acl_d.exp
 0002:0004a8eb       $N00936                    100bf8eb     lib_acl_d.exp
 0002:0004a8fc       $N00937                    100bf8fc     lib_acl_d.exp
 0002:0004a90d       $N00938                    100bf90d     lib_acl_d.exp
 0002:0004a923       $N00939                    100bf923     lib_acl_d.exp
 0002:0004a935       $N00940                    100bf935     lib_acl_d.exp
 0002:0004a94c       $N00941                    100bf94c     lib_acl_d.exp
 0002:0004a961       $N00942                    100bf961     lib_acl_d.exp
 0002:0004a973       $N00943                    100bf973     lib_acl_d.exp
 0002:0004a98a       $N00944                    100bf98a     lib_acl_d.exp
 0002:0004a99f       $N00945                    100bf99f     lib_acl_d.exp
 0002:0004a9b2       $N00946                    100bf9b2     lib_acl_d.exp
 0002:0004a9c5       $N00947                    100bf9c5     lib_acl_d.exp
 0002:0004a9da       $N00948                    100bf9da     lib_acl_d.exp
 0002:0004a9ec       $N00949                    100bf9ec     lib_acl_d.exp
 0002:0004a9ff       $N00950                    100bf9ff     lib_acl_d.exp
 0002:0004aa12       $N00951                    100bfa12     lib_acl_d.exp
 0002:0004aa26       $N00952                    100bfa26     lib_acl_d.exp
 0002:0004aa38       $N00953                    100bfa38     lib_acl_d.exp
 0002:0004aa4b       $N00954                    100bfa4b     lib_acl_d.exp
 0002:0004aa65       $N00955                    100bfa65     lib_acl_d.exp
 0002:0004aa7f       $N00956                    100bfa7f     lib_acl_d.exp
 0002:0004aa92       $N00957                    100bfa92     lib_acl_d.exp
 0002:0004aaa2       $N00958                    100bfaa2     lib_acl_d.exp
 0002:0004aab5       $N00959                    100bfab5     lib_acl_d.exp
 0002:0004aac6       $N00960                    100bfac6     lib_acl_d.exp
 0002:0004aadb       $N00961                    100bfadb     lib_acl_d.exp
 0002:0004aaec       $N00962                    100bfaec     lib_acl_d.exp
 0002:0004ab03       $N00963                    100bfb03     lib_acl_d.exp
 0002:0004ab19       $N00964                    100bfb19     lib_acl_d.exp
 0002:0004ab35       $N00965                    100bfb35     lib_acl_d.exp
 0002:0004ab4b       $N00966                    100bfb4b     lib_acl_d.exp
 0002:0004ab67       $N00967                    100bfb67     lib_acl_d.exp
 0002:0004ab78       $N00968                    100bfb78     lib_acl_d.exp
 0002:0004ab8b       $N00969                    100bfb8b     lib_acl_d.exp
 0002:0004ab9c       $N00970                    100bfb9c     lib_acl_d.exp
 0002:0004abaf       $N00971                    100bfbaf     lib_acl_d.exp
 0002:0004abc2       $N00972                    100bfbc2     lib_acl_d.exp
 0002:0004abd5       $N00973                    100bfbd5     lib_acl_d.exp
 0002:0004abe8       $N00974                    100bfbe8     lib_acl_d.exp
 0002:0004abfc       $N00975                    100bfbfc     lib_acl_d.exp
 0002:0004ac10       $N00976                    100bfc10     lib_acl_d.exp
 0002:0004ac28       $N00977                    100bfc28     lib_acl_d.exp
 0002:0004ac3c       $N00978                    100bfc3c     lib_acl_d.exp
 0002:0004ac50       $N00979                    100bfc50     lib_acl_d.exp
 0002:0004ac6b       $N00980                    100bfc6b     lib_acl_d.exp
 0002:0004ac87       $N00981                    100bfc87     lib_acl_d.exp
 0002:0004ac9e       $N00982                    100bfc9e     lib_acl_d.exp
 0002:0004acb1       $N00983                    100bfcb1     lib_acl_d.exp
 0002:0004acc4       $N00984                    100bfcc4     lib_acl_d.exp
 0002:0004acd8       $N00985                    100bfcd8     lib_acl_d.exp
 0002:0004acec       $N00986                    100bfcec     lib_acl_d.exp
 0002:0004acff       $N00987                    100bfcff     lib_acl_d.exp
 0002:0004ad14       $N00988                    100bfd14     lib_acl_d.exp
 0002:0004ad29       $N00989                    100bfd29     lib_acl_d.exp
 0002:0004ad45       $N00990                    100bfd45     lib_acl_d.exp
 0002:0004ad53       $N00991                    100bfd53     lib_acl_d.exp
 0002:0004ad64       $N00992                    100bfd64     lib_acl_d.exp
 0002:0004ad76       $N00993                    100bfd76     lib_acl_d.exp
 0002:0004ad85       $N00994                    100bfd85     lib_acl_d.exp
 0002:0004ad99       $N00995                    100bfd99     lib_acl_d.exp
 0002:0004adac       $N00996                    100bfdac     lib_acl_d.exp
 0002:0004adc2       $N00997                    100bfdc2     lib_acl_d.exp
 0002:0004add7       $N00998                    100bfdd7     lib_acl_d.exp
 0002:0004adeb       $N00999                    100bfdeb     lib_acl_d.exp
 0002:0004adff       $N01000                    100bfdff     lib_acl_d.exp
 0002:0004ae1c       $N01001                    100bfe1c     lib_acl_d.exp
 0002:0004ae3a       $N01002                    100bfe3a     lib_acl_d.exp
 0002:0004ae56       $N01003                    100bfe56     lib_acl_d.exp
 0002:0004ae72       $N01004                    100bfe72     lib_acl_d.exp
 0002:0004ae89       $N01005                    100bfe89     lib_acl_d.exp
 0002:0004ae97       $N01006                    100bfe97     lib_acl_d.exp
 0002:0004aea6       $N01007                    100bfea6     lib_acl_d.exp
 0002:0004aeb9       $N01008                    100bfeb9     lib_acl_d.exp
 0002:0004aecb       $N01009                    100bfecb     lib_acl_d.exp
 0002:0004aed9       $N01010                    100bfed9     lib_acl_d.exp
 0002:0004aee7       $N01011                    100bfee7     lib_acl_d.exp
 0002:0004aefa       $N01012                    100bfefa     lib_acl_d.exp
 0002:0004af0e       $N01013                    100bff0e     lib_acl_d.exp
 0002:0004af1d       $N01014                    100bff1d     lib_acl_d.exp
 0002:0004af2a       $N01015                    100bff2a     lib_acl_d.exp
 0002:0004af38       $N01016                    100bff38     lib_acl_d.exp
 0002:0004af47       $N01017                    100bff47     lib_acl_d.exp
 0002:0004af5c       $N01018                    100bff5c     lib_acl_d.exp
 0002:0004af69       $N01019                    100bff69     lib_acl_d.exp
 0002:0004af7c       $N01020                    100bff7c     lib_acl_d.exp
 0002:0004af90       $N01021                    100bff90     lib_acl_d.exp
 0002:0004afa9       $N01022                    100bffa9     lib_acl_d.exp
 0002:0004afc0       $N01023                    100bffc0     lib_acl_d.exp
 0002:0004afda       $N01024                    100bffda     lib_acl_d.exp
 0002:0004aff1       $N01025                    100bfff1     lib_acl_d.exp
 0002:0004b008       $N01026                    100c0008     lib_acl_d.exp
 0002:0004b022       $N01027                    100c0022     lib_acl_d.exp
 0002:0004b03c       $N01028                    100c003c     lib_acl_d.exp
 0002:0004b059       $N01029                    100c0059     lib_acl_d.exp
 0002:0004b073       $N01030                    100c0073     lib_acl_d.exp
 0002:0004b087       $N01031                    100c0087     lib_acl_d.exp
 0002:0004b097       $N01032                    100c0097     lib_acl_d.exp
 0002:0004b0aa       $N01033                    100c00aa     lib_acl_d.exp
 0002:0004b0be       $N01034                    100c00be     lib_acl_d.exp
 0002:0004b0d4       $N01035                    100c00d4     lib_acl_d.exp
 0002:0004b0eb       $N01036                    100c00eb     lib_acl_d.exp
 0002:0004b102       $N01037                    100c0102     lib_acl_d.exp
 0002:0004b115       $N01038                    100c0115     lib_acl_d.exp
 0002:0004b129       $N01039                    100c0129     lib_acl_d.exp
 0002:0004b13d       $N01040                    100c013d     lib_acl_d.exp
 0002:0004b14f       $N01041                    100c014f     lib_acl_d.exp
 0002:0004b163       $N01042                    100c0163     lib_acl_d.exp
 0002:0004b175       $N01043                    100c0175     lib_acl_d.exp
 0002:0004b18b       $N01044                    100c018b     lib_acl_d.exp
 0002:0004b1a5       $N01045                    100c01a5     lib_acl_d.exp
 0002:0004b1b3       $N01046                    100c01b3     lib_acl_d.exp
 0002:0004b1c1       $N01047                    100c01c1     lib_acl_d.exp
 0002:0004b1d1       $N01048                    100c01d1     lib_acl_d.exp
 0002:0004b1e2       $N01049                    100c01e2     lib_acl_d.exp
 0002:0004b1f3       $N01050                    100c01f3     lib_acl_d.exp
 0002:0004b20a       $N01051                    100c020a     lib_acl_d.exp
 0002:0004b219       $N01052                    100c0219     lib_acl_d.exp
 0002:0004b22b       $N01053                    100c022b     lib_acl_d.exp
 0002:0004b23d       $N01054                    100c023d     lib_acl_d.exp
 0002:0004b24a       $N01055                    100c024a     lib_acl_d.exp
 0002:0004b263       $N01056                    100c0263     lib_acl_d.exp
 0002:0004b271       $N01057                    100c0271     lib_acl_d.exp
 0002:0004b27f       $N01058                    100c027f     lib_acl_d.exp
 0002:0004b28f       $N01059                    100c028f     lib_acl_d.exp
 0002:0004b2a2       $N01060                    100c02a2     lib_acl_d.exp
 0002:0004b2ac       $N01061                    100c02ac     lib_acl_d.exp
 0002:0004b2bd       $N01062                    100c02bd     lib_acl_d.exp
 0002:0004b2cb       $N01063                    100c02cb     lib_acl_d.exp
 0002:0004b2db       $N01064                    100c02db     lib_acl_d.exp
 0002:0004b2eb       $N01065                    100c02eb     lib_acl_d.exp
 0002:0004b2fc       $N01066                    100c02fc     lib_acl_d.exp
 0002:0004b30d       $N01067                    100c030d     lib_acl_d.exp
 0002:0004b31b       $N01068                    100c031b     lib_acl_d.exp
 0002:0004b32c       $N01069                    100c032c     lib_acl_d.exp
 0002:0004b33e       $N01070                    100c033e     lib_acl_d.exp
 0002:0004b34b       $N01071                    100c034b     lib_acl_d.exp
 0002:0004b35b       $N01072                    100c035b     lib_acl_d.exp
 0002:0004b369       $N01073                    100c0369     lib_acl_d.exp
 0002:0004b37d       $N01074                    100c037d     lib_acl_d.exp
 0002:0004b38f       $N01075                    100c038f     lib_acl_d.exp
 0002:0004b39f       $N01076                    100c039f     lib_acl_d.exp
 0002:0004b3b2       $N01077                    100c03b2     lib_acl_d.exp
 0002:0004b3c0       $N01078                    100c03c0     lib_acl_d.exp
 0002:0004b3d7       $N01079                    100c03d7     lib_acl_d.exp
 0002:0004b3e5       $N01080                    100c03e5     lib_acl_d.exp
 0002:0004b3f3       $N01081                    100c03f3     lib_acl_d.exp
 0002:0004b400       $N01082                    100c0400     lib_acl_d.exp
 0002:0004b40d       $N01083                    100c040d     lib_acl_d.exp
 0002:0004b41b       $N01084                    100c041b     lib_acl_d.exp
 0002:0004b428       $N01085                    100c0428     lib_acl_d.exp
 0002:0004b43d       $N01086                    100c043d     lib_acl_d.exp
 0002:0004b44c       $N01087                    100c044c     lib_acl_d.exp
 0002:0004b459       $N01088                    100c0459     lib_acl_d.exp
 0002:0004b467       $N01089                    100c0467     lib_acl_d.exp
 0002:0004b47b       $N01090                    100c047b     lib_acl_d.exp
 0002:0004b48f       $N01091                    100c048f     lib_acl_d.exp
 0002:0004b4a1       $N01092                    100c04a1     lib_acl_d.exp
 0002:0004b4ad       $N01093                    100c04ad     lib_acl_d.exp
 0002:0004b4c1       $N01094                    100c04c1     lib_acl_d.exp
 0002:0004b4ce       $N01095                    100c04ce     lib_acl_d.exp
 0002:0004b4d7       $N01096                    100c04d7     lib_acl_d.exp
 0002:0004b4e1       $N01097                    100c04e1     lib_acl_d.exp
 0002:0004b4ea       $N01098                    100c04ea     lib_acl_d.exp
 0002:0004b4f2       $N01099                    100c04f2     lib_acl_d.exp
 0002:0004b4fd       $N01100                    100c04fd     lib_acl_d.exp
 0002:0004b509       $N01101                    100c0509     lib_acl_d.exp
 0002:0004b51b       $N01102                    100c051b     lib_acl_d.exp
 0002:0004b524       $N01103                    100c0524     lib_acl_d.exp
 0002:0004b52e       $N01104                    100c052e     lib_acl_d.exp
 0002:0004b539       $N01105                    100c0539     lib_acl_d.exp
 0002:0004b549       $N01106                    100c0549     lib_acl_d.exp
 0002:0004b556       $N01107                    100c0556     lib_acl_d.exp
 0002:0004b55f       $N01108                    100c055f     lib_acl_d.exp
 0002:0004b56b       $N01109                    100c056b     lib_acl_d.exp
 0002:0004b578       $N01110                    100c0578     lib_acl_d.exp
 0002:0004b583       $N01111                    100c0583     lib_acl_d.exp
 0002:0004b58e       $N01112                    100c058e     lib_acl_d.exp
 0002:0004b59c       $N01113                    100c059c     lib_acl_d.exp
 0002:0004b5aa       $N01114                    100c05aa     lib_acl_d.exp
 0002:0004b5b3       $N01115                    100c05b3     lib_acl_d.exp
 0002:0004b5bc       $N01116                    100c05bc     lib_acl_d.exp
 0002:0004b5d2       $N01117                    100c05d2     lib_acl_d.exp
 0002:0004b5e1       $N01118                    100c05e1     lib_acl_d.exp
 0002:0004b5f0       $N01119                    100c05f0     lib_acl_d.exp
 0002:0004b5fd       $N01120                    100c05fd     lib_acl_d.exp
 0002:0004b613       $N01121                    100c0613     lib_acl_d.exp
 0002:0004b61b       $N01122                    100c061b     lib_acl_d.exp
 0002:0004b623       $N01123                    100c0623     lib_acl_d.exp
 0002:0004b62d       $N01124                    100c062d     lib_acl_d.exp
 0002:0004b633       $N01125                    100c0633     lib_acl_d.exp
 0002:0004b63d       $N01126                    100c063d     lib_acl_d.exp
 0002:0004b649       $N01127                    100c0649     lib_acl_d.exp
 0002:0004b657       $N01128                    100c0657     lib_acl_d.exp
 0002:0004b666       $N01129                    100c0666     lib_acl_d.exp
 0002:0004b672       $N01130                    100c0672     lib_acl_d.exp
 0002:0004b683       $N01131                    100c0683     lib_acl_d.exp
 0002:0004b690       $N01132                    100c0690     lib_acl_d.exp
 0002:0004b6a4       $N01133                    100c06a4     lib_acl_d.exp
 0002:0004b6b7       $N01134                    100c06b7     lib_acl_d.exp
 0002:0004b6c6       $N01135                    100c06c6     lib_acl_d.exp
 0002:0004b6d3       $N01136                    100c06d3     lib_acl_d.exp
 0002:0004b6db       $N01137                    100c06db     lib_acl_d.exp
 0002:0004b6e4       $N01138                    100c06e4     lib_acl_d.exp
 0002:0004b6f2       $N01139                    100c06f2     lib_acl_d.exp
 0002:0004b701       $N01140                    100c0701     lib_acl_d.exp
 0002:0004b70d       $N01141                    100c070d     lib_acl_d.exp
 0002:0004b71a       $N01142                    100c071a     lib_acl_d.exp
 0002:0004b726       $N01143                    100c0726     lib_acl_d.exp
 0002:0004b735       $N01144                    100c0735     lib_acl_d.exp
 0002:0004b749       $N01145                    100c0749     lib_acl_d.exp
 0002:0004b75c       $N01146                    100c075c     lib_acl_d.exp
 0002:0004b770       $N01147                    100c0770     lib_acl_d.exp
 0002:0004b77d       $N01148                    100c077d     lib_acl_d.exp
 0002:0004b788       $N01149                    100c0788     lib_acl_d.exp
 0002:0004b791       $N01150                    100c0791     lib_acl_d.exp
 0002:0004b79a       $N01151                    100c079a     lib_acl_d.exp
 0003:00000000       $SG95080                   100c1000     acl_base64.obj
 0003:00000018       $SG95103                   100c1018     acl_base64.obj
 0003:00000030       $SG95114                   100c1030     acl_base64.obj
 0003:00000048       $SG95124                   100c1048     acl_base64.obj
 0003:00000060       $SG95135                   100c1060     acl_base64.obj
 0003:00000078       $SG95146                   100c1078     acl_base64.obj
 0003:00000090       $SG95156                   100c1090     acl_base64.obj
 0003:000000a8       $SG95167                   100c10a8     acl_base64.obj
 0003:000000c0       $SG160768                  100c10c0     acl_htmlcode.obj
 0003:000000c8       $SG160769                  100c10c8     acl_htmlcode.obj
 0003:000000d4       $SG160770                  100c10d4     acl_htmlcode.obj
 0003:000000dc       $SG160771                  100c10dc     acl_htmlcode.obj
 0003:000000e4       $SG160772                  100c10e4     acl_htmlcode.obj
 0003:000000f0       $SG160773                  100c10f0     acl_htmlcode.obj
 0003:000000f8       $SG160774                  100c10f8     acl_htmlcode.obj
 0003:00000100       $SG95238                   100c1100     acl_htmlcode.obj
 0003:00000108       $SG160775                  100c1108     acl_htmlcode.obj
 0003:00000110       $SG95239                   100c1110     acl_htmlcode.obj
 0003:00000118       $SG160776                  100c1118     acl_htmlcode.obj
 0003:00000120       $SG95240                   100c1120     acl_htmlcode.obj
 0003:00000128       $SG160777                  100c1128     acl_htmlcode.obj
 0003:00000134       $SG95241                   100c1134     acl_htmlcode.obj
 0003:0000013c       $SG160778                  100c113c     acl_htmlcode.obj
 0003:00000144       $SG95242                   100c1144     acl_htmlcode.obj
 0003:00000150       $SG160779                  100c1150     acl_htmlcode.obj
 0003:00000158       $SG95243                   100c1158     acl_htmlcode.obj
 0003:00000160       $SG160780                  100c1160     acl_htmlcode.obj
 0003:00000168       $SG95244                   100c1168     acl_htmlcode.obj
 0003:00000174       $SG160781                  100c1174     acl_htmlcode.obj
 0003:0000017c       $SG95245                   100c117c     acl_htmlcode.obj
 0003:00000184       $SG160782                  100c1184     acl_htmlcode.obj
 0003:00000190       $SG95246                   100c1190     acl_htmlcode.obj
 0003:00000198       $SG160783                  100c1198     acl_htmlcode.obj
 0003:000001a0       $SG95247                   100c11a0     acl_htmlcode.obj
 0003:000001a8       $SG160784                  100c11a8     acl_htmlcode.obj
 0003:000001b0       $SG95248                   100c11b0     acl_htmlcode.obj
 0003:000001b8       $SG160785                  100c11b8     acl_htmlcode.obj
 0003:000001c0       $SG95249                   100c11c0     acl_htmlcode.obj
 0003:000001c8       $SG160786                  100c11c8     acl_htmlcode.obj
 0003:000001d0       $SG103442                  100c11d0     acl_htmlcode.obj
 0003:000001d8       $SG95250                   100c11d8     acl_htmlcode.obj
 0003:000001e0       $SG160787                  100c11e0     acl_htmlcode.obj
 0003:000001e8       $SG95251                   100c11e8     acl_htmlcode.obj
 0003:000001f0       $SG160788                  100c11f0     acl_htmlcode.obj
 0003:000001f8       $SG95252                   100c11f8     acl_htmlcode.obj
 0003:00000200       $SG160789                  100c1200     acl_htmlcode.obj
 0003:00000208       $SG95253                   100c1208     acl_htmlcode.obj
 0003:00000210       $SG160790                  100c1210     acl_htmlcode.obj
 0003:00000218       $SG95254                   100c1218     acl_htmlcode.obj
 0003:00000220       $SG160791                  100c1220     acl_htmlcode.obj
 0003:00000228       $SG95255                   100c1228     acl_htmlcode.obj
 0003:00000234       $SG160792                  100c1234     acl_htmlcode.obj
 0003:0000023c       $SG95256                   100c123c     acl_htmlcode.obj
 0003:00000244       $SG160793                  100c1244     acl_htmlcode.obj
 0003:0000024c       $SG95257                   100c124c     acl_htmlcode.obj
 0003:00000254       $SG160794                  100c1254     acl_htmlcode.obj
 0003:0000025c       $SG95258                   100c125c     acl_htmlcode.obj
 0003:00000264       $SG160795                  100c1264     acl_htmlcode.obj
 0003:00000270       $SG95259                   100c1270     acl_htmlcode.obj
 0003:00000278       $SG160796                  100c1278     acl_htmlcode.obj
 0003:00000284       $SG95260                   100c1284     acl_htmlcode.obj
 0003:0000028c       $SG160797                  100c128c     acl_htmlcode.obj
 0003:00000294       $SG95261                   100c1294     acl_htmlcode.obj
 0003:000002a0       $SG160798                  100c12a0     acl_htmlcode.obj
 0003:000002ac       $SG95262                   100c12ac     acl_htmlcode.obj
 0003:000002b4       $SG160799                  100c12b4     acl_htmlcode.obj
 0003:000002c0       $SG95263                   100c12c0     acl_htmlcode.obj
 0003:000002c8       $SG160800                  100c12c8     acl_htmlcode.obj
 0003:000002d0       $SG95264                   100c12d0     acl_htmlcode.obj
 0003:000002d8       $SG160801                  100c12d8     acl_htmlcode.obj
 0003:000002e0       $SG95265                   100c12e0     acl_htmlcode.obj
 0003:000002e8       $SG160802                  100c12e8     acl_htmlcode.obj
 0003:000002f4       $SG95266                   100c12f4     acl_htmlcode.obj
 0003:00000300       $SG160803                  100c1300     acl_htmlcode.obj
 0003:0000030c       $SG95267                   100c130c     acl_htmlcode.obj
 0003:00000318       $SG160804                  100c1318     acl_htmlcode.obj
 0003:00000320       $SG95268                   100c1320     acl_htmlcode.obj
 0003:0000032c       $SG160805                  100c132c     acl_htmlcode.obj
 0003:00000334       $SG95269                   100c1334     acl_htmlcode.obj
 0003:00000340       $SG160806                  100c1340     acl_htmlcode.obj
 0003:00000348       $SG95270                   100c1348     acl_htmlcode.obj
 0003:00000354       $SG160807                  100c1354     acl_htmlcode.obj
 0003:0000035c       $SG95271                   100c135c     acl_htmlcode.obj
 0003:00000368       $SG160808                  100c1368     acl_htmlcode.obj
 0003:00000374       $SG95272                   100c1374     acl_htmlcode.obj
 0003:0000037c       $SG160809                  100c137c     acl_htmlcode.obj
 0003:00000384       $SG95273                   100c1384     acl_htmlcode.obj
 0003:00000390       $SG160810                  100c1390     acl_htmlcode.obj
 0003:00000398       $SG95274                   100c1398     acl_htmlcode.obj
 0003:000003a0       $SG160811                  100c13a0     acl_htmlcode.obj
 0003:000003ac       $SG95275                   100c13ac     acl_htmlcode.obj
 0003:000003b4       $SG160812                  100c13b4     acl_htmlcode.obj
 0003:000003bc       $SG95276                   100c13bc     acl_htmlcode.obj
 0003:000003c4       $SG160813                  100c13c4     acl_htmlcode.obj
 0003:000003cc       $SG95277                   100c13cc     acl_htmlcode.obj
 0003:000003d8       $SG160814                  100c13d8     acl_htmlcode.obj
 0003:000003e0       $SG95278                   100c13e0     acl_htmlcode.obj
 0003:000003ec       $SG160815                  100c13ec     acl_htmlcode.obj
 0003:000003f4       $SG95279                   100c13f4     acl_htmlcode.obj
 0003:00000400       $SG160816                  100c1400     acl_htmlcode.obj
 0003:00000408       $SG95280                   100c1408     acl_htmlcode.obj
 0003:00000410       $SG160817                  100c1410     acl_htmlcode.obj
 0003:00000418       $SG95281                   100c1418     acl_htmlcode.obj
 0003:00000420       $SG160818                  100c1420     acl_htmlcode.obj
 0003:00000428       $SG95282                   100c1428     acl_htmlcode.obj
 0003:00000434       $SG160819                  100c1434     acl_htmlcode.obj
 0003:0000043c       $SG95283                   100c143c     acl_htmlcode.obj
 0003:00000448       $SG160820                  100c1448     acl_htmlcode.obj
 0003:00000450       $SG95284                   100c1450     acl_htmlcode.obj
 0003:00000458       $SG160821                  100c1458     acl_htmlcode.obj
 0003:00000460       $SG95285                   100c1460     acl_htmlcode.obj
 0003:00000468       $SG160822                  100c1468     acl_htmlcode.obj
 0003:00000470       $SG95286                   100c1470     acl_htmlcode.obj
 0003:00000478       $SG160823                  100c1478     acl_htmlcode.obj
 0003:00000484       $SG95287                   100c1484     acl_htmlcode.obj
 0003:00000490       $SG160824                  100c1490     acl_htmlcode.obj
 0003:00000498       $SG95288                   100c1498     acl_htmlcode.obj
 0003:000004a4       $SG160825                  100c14a4     acl_htmlcode.obj
 0003:000004ac       $SG95289                   100c14ac     acl_htmlcode.obj
 0003:000004b8       $SG160826                  100c14b8     acl_htmlcode.obj
 0003:000004c0       $SG95290                   100c14c0     acl_htmlcode.obj
 0003:000004c8       $SG160827                  100c14c8     acl_htmlcode.obj
 0003:000004d0       $SG95291                   100c14d0     acl_htmlcode.obj
 0003:000004dc       $SG160828                  100c14dc     acl_htmlcode.obj
 0003:000004e4       $SG95292                   100c14e4     acl_htmlcode.obj
 0003:000004ec       $SG160829                  100c14ec     acl_htmlcode.obj
 0003:000004f4       $SG95293                   100c14f4     acl_htmlcode.obj
 0003:000004fc       $SG160830                  100c14fc     acl_htmlcode.obj
 0003:00000504       $SG95294                   100c1504     acl_htmlcode.obj
 0003:00000510       $SG160831                  100c1510     acl_htmlcode.obj
 0003:00000518       $SG95295                   100c1518     acl_htmlcode.obj
 0003:00000524       $SG160832                  100c1524     acl_htmlcode.obj
 0003:0000052c       $SG95296                   100c152c     acl_htmlcode.obj
 0003:00000538       $SG160833                  100c1538     acl_htmlcode.obj
 0003:00000540       $SG95297                   100c1540     acl_htmlcode.obj
 0003:00000548       $SG160834                  100c1548     acl_htmlcode.obj
 0003:00000554       $SG95298                   100c1554     acl_htmlcode.obj
 0003:0000055c       $SG160835                  100c155c     acl_htmlcode.obj
 0003:00000564       $SG95299                   100c1564     acl_htmlcode.obj
 0003:00000570       $SG160836                  100c1570     acl_htmlcode.obj
 0003:00000578       $SG95300                   100c1578     acl_htmlcode.obj
 0003:00000580       $SG160837                  100c1580     acl_htmlcode.obj
 0003:00000588       $SG95301                   100c1588     acl_htmlcode.obj
 0003:00000590       $SG160838                  100c1590     acl_htmlcode.obj
 0003:00000598       $SG95302                   100c1598     acl_htmlcode.obj
 0003:000005a4       $SG160839                  100c15a4     acl_htmlcode.obj
 0003:000005ac       $SG95303                   100c15ac     acl_htmlcode.obj
 0003:000005b8       $SG160840                  100c15b8     acl_htmlcode.obj
 0003:000005c0       $SG95304                   100c15c0     acl_htmlcode.obj
 0003:000005c8       $SG160841                  100c15c8     acl_htmlcode.obj
 0003:000005d0       $SG95305                   100c15d0     acl_htmlcode.obj
 0003:000005dc       $SG160842                  100c15dc     acl_htmlcode.obj
 0003:000005e4       $SG95306                   100c15e4     acl_htmlcode.obj
 0003:000005ec       $SG160843                  100c15ec     acl_htmlcode.obj
 0003:000005f4       $SG95307                   100c15f4     acl_htmlcode.obj
 0003:000005fc       $SG160844                  100c15fc     acl_htmlcode.obj
 0003:00000608       $SG95308                   100c1608     acl_htmlcode.obj
 0003:00000610       $SG160845                  100c1610     acl_htmlcode.obj
 0003:00000618       $SG95309                   100c1618     acl_htmlcode.obj
 0003:00000624       $SG160846                  100c1624     acl_htmlcode.obj
 0003:0000062c       $SG95310                   100c162c     acl_htmlcode.obj
 0003:00000638       $SG160847                  100c1638     acl_htmlcode.obj
 0003:00000640       $SG95311                   100c1640     acl_htmlcode.obj
 0003:0000064c       $SG160848                  100c164c     acl_htmlcode.obj
 0003:00000654       $SG95312                   100c1654     acl_htmlcode.obj
 0003:0000065c       $SG160849                  100c165c     acl_htmlcode.obj
 0003:00000664       $SG95313                   100c1664     acl_htmlcode.obj
 0003:0000066c       $SG160850                  100c166c     acl_htmlcode.obj
 0003:00000674       $SG95314                   100c1674     acl_htmlcode.obj
 0003:00000680       $SG160851                  100c1680     acl_htmlcode.obj
 0003:00000688       $SG95315                   100c1688     acl_htmlcode.obj
 0003:00000694       $SG160852                  100c1694     acl_htmlcode.obj
 0003:0000069c       $SG95316                   100c169c     acl_htmlcode.obj
 0003:000006a4       $SG160853                  100c16a4     acl_htmlcode.obj
 0003:000006ac       $SG95317                   100c16ac     acl_htmlcode.obj
 0003:000006b4       $SG160854                  100c16b4     acl_htmlcode.obj
 0003:000006bc       $SG95318                   100c16bc     acl_htmlcode.obj
 0003:000006c4       $SG160855                  100c16c4     acl_htmlcode.obj
 0003:000006cc       $SG95319                   100c16cc     acl_htmlcode.obj
 0003:000006d8       $SG160856                  100c16d8     acl_htmlcode.obj
 0003:000006e0       $SG95320                   100c16e0     acl_htmlcode.obj
 0003:000006ec       $SG160857                  100c16ec     acl_htmlcode.obj
 0003:000006f4       $SG95321                   100c16f4     acl_htmlcode.obj
 0003:00000700       $SG160858                  100c1700     acl_htmlcode.obj
 0003:0000070c       $SG95322                   100c170c     acl_htmlcode.obj
 0003:00000714       $SG160859                  100c1714     acl_htmlcode.obj
 0003:0000071c       $SG95323                   100c171c     acl_htmlcode.obj
 0003:00000728       $SG160860                  100c1728     acl_htmlcode.obj
 0003:00000730       $SG95324                   100c1730     acl_htmlcode.obj
 0003:00000738       $SG160861                  100c1738     acl_htmlcode.obj
 0003:00000740       $SG95325                   100c1740     acl_htmlcode.obj
 0003:0000074c       $SG160862                  100c174c     acl_htmlcode.obj
 0003:00000754       $SG95326                   100c1754     acl_htmlcode.obj
 0003:00000760       $SG160863                  100c1760     acl_htmlcode.obj
 0003:0000076c       $SG95327                   100c176c     acl_htmlcode.obj
 0003:00000778       $SG160864                  100c1778     acl_htmlcode.obj
 0003:00000784       $SG95328                   100c1784     acl_htmlcode.obj
 0003:00000790       $SG160865                  100c1790     acl_htmlcode.obj
 0003:00000798       $SG95329                   100c1798     acl_htmlcode.obj
 0003:000007a0       $SG160866                  100c17a0     acl_htmlcode.obj
 0003:000007a8       $SG95330                   100c17a8     acl_htmlcode.obj
 0003:000007b0       $SG160867                  100c17b0     acl_htmlcode.obj
 0003:000007b8       $SG95331                   100c17b8     acl_htmlcode.obj
 0003:000007c4       $SG160868                  100c17c4     acl_htmlcode.obj
 0003:000007d0       $SG95332                   100c17d0     acl_htmlcode.obj
 0003:000007d8       $SG160869                  100c17d8     acl_htmlcode.obj
 0003:000007e0       $SG95333                   100c17e0     acl_htmlcode.obj
 0003:000007e8       $SG160870                  100c17e8     acl_htmlcode.obj
 0003:000007f4       $SG160871                  100c17f4     acl_htmlcode.obj
 0003:000007fc       $SG103543                  100c17fc     acl_htmlcode.obj
 0003:00000804       $SG103550                  100c1804     acl_htmlcode.obj
 0003:00000810       $SG103554                  100c1810     acl_htmlcode.obj
 0003:00000818       $SG103560                  100c1818     acl_htmlcode.obj
 0003:00000820       $SG160923                  100c1820     acl_htmlcode.obj
 0003:0000082c       $SG103579                  100c182c     acl_htmlcode.obj
 0003:00000838       $SG160924                  100c1838     acl_htmlcode.obj
 0003:00000844       $SG160949                  100c1844     acl_htmlcode.obj
 0003:00000860       $SG95416                   100c1860     acl_htmlcode.obj
 0003:00000868       $SG95417                   100c1868     acl_htmlcode.obj
 0003:00000870       $SG95430                   100c1870     acl_htmlcode.obj
 0003:0000087c       $SG95431                   100c187c     acl_htmlcode.obj
 0003:00000888       $SG95454                   100c1888     acl_htmlcode.obj
 0003:00000890       $SG103670                  100c1890     acl_htmlcode.obj
 0003:00000898       $SG103671                  100c1898     acl_htmlcode.obj
 0003:000008a0       $SG103672                  100c18a0     acl_htmlcode.obj
 0003:000008a8       $SG95480                   100c18a8     acl_htmlcode.obj
 0003:000008b0       $SG103673                  100c18b0     acl_htmlcode.obj
 0003:000008b8       $SG103674                  100c18b8     acl_htmlcode.obj
 0003:000008c0       $SG103707                  100c18c0     acl_htmlcode.obj
 0003:000008c8       $SG104752                  100c18c8     acl_htmlcode.obj
 0003:000008d0       $SG103734                  100c18d0     acl_htmlcode.obj
 0003:000008d8       $SG103735                  100c18d8     acl_htmlcode.obj
 0003:000008e0       $SG103736                  100c18e0     acl_htmlcode.obj
 0003:000008e8       $SG103737                  100c18e8     acl_htmlcode.obj
 0003:000008f0       $SG103738                  100c18f0     acl_htmlcode.obj
 0003:000008f8       $SG103782                  100c18f8     acl_htmlcode.obj
 0003:00000904       $SG103784                  100c1904     acl_htmlcode.obj
 0003:0000090c       $SG103785                  100c190c     acl_htmlcode.obj
 0003:00000914       $SG103787                  100c1914     acl_htmlcode.obj
 0003:0000091c       $SG103789                  100c191c     acl_htmlcode.obj
 0003:00000924       $SG103790                  100c1924     acl_htmlcode.obj
 0003:0000092c       $SG103791                  100c192c     acl_htmlcode.obj
 0003:00000934       $SG103793                  100c1934     acl_htmlcode.obj
 0003:0000093c       $SG103797                  100c193c     acl_htmlcode.obj
 0003:00000944       $SG103799                  100c1944     acl_htmlcode.obj
 0003:0000094c       $SG103800                  100c194c     acl_htmlcode.obj
 0003:00000954       $SG103805                  100c1954     acl_htmlcode.obj
 0003:00000960       $SG103808                  100c1960     acl_htmlcode.obj
 0003:00000968       $SG103811                  100c1968     acl_htmlcode.obj
 0003:00000970       $SG103812                  100c1970     acl_htmlcode.obj
 0003:00000978       $SG103814                  100c1978     acl_htmlcode.obj
 0003:00000980       $SG103821                  100c1980     acl_htmlcode.obj
 0003:00000988       $SG103822                  100c1988     acl_htmlcode.obj
 0003:00000990       $SG103823                  100c1990     acl_htmlcode.obj
 0003:00000998       $SG103824                  100c1998     acl_htmlcode.obj
 0003:000009a0       $SG103825                  100c19a0     acl_htmlcode.obj
 0003:000009a8       $SG103834                  100c19a8     acl_htmlcode.obj
 0003:000009b4       $SG103842                  100c19b4     acl_htmlcode.obj
 0003:000009bc       $SG103851                  100c19bc     acl_htmlcode.obj
 0003:000009c4       $SG103854                  100c19c4     acl_htmlcode.obj
 0003:000009cc       $SG104902                  100c19cc     acl_htmlcode.obj
 0003:000009d8       $SG103878                  100c19d8     acl_htmlcode.obj
 0003:000009e0       $SG103879                  100c19e0     acl_htmlcode.obj
 0003:000009e8       $SG104905                  100c19e8     acl_htmlcode.obj
 0003:000009f0       $SG103882                  100c19f0     acl_htmlcode.obj
 0003:000009f8       $SG104907                  100c19f8     acl_htmlcode.obj
 0003:00000a04       $SG103883                  100c1a04     acl_htmlcode.obj
 0003:00000a0c       $SG104908                  100c1a0c     acl_htmlcode.obj
 0003:00000a14       $SG103912                  100c1a14     acl_htmlcode.obj
 0003:00000a1c       $SG103913                  100c1a1c     acl_htmlcode.obj
 0003:00000a24       $SG103914                  100c1a24     acl_htmlcode.obj
 0003:00000a2c       $SG103916                  100c1a2c     acl_htmlcode.obj
 0003:00000a34       $SG103917                  100c1a34     acl_htmlcode.obj
 0003:00000a3c       $SG103931                  100c1a3c     acl_htmlcode.obj
 0003:00000a44       $SG103933                  100c1a44     acl_htmlcode.obj
 0003:00000a50       $SG103947                  100c1a50     acl_htmlcode.obj
 0003:00000a58       $SG103979                  100c1a58     acl_htmlcode.obj
 0003:00000a60       $SG95788                   100c1a60     acl_htmlcode.obj
 0003:00000a68       $SG95810                   100c1a68     acl_htmlcode.obj
 0003:00000a70       $SG104046                  100c1a70     acl_htmlcode.obj
 0003:00000a78       $SG104047                  100c1a78     acl_htmlcode.obj
 0003:00000a80       $SG104048                  100c1a80     acl_htmlcode.obj
 0003:00000a8c       $SG104049                  100c1a8c     acl_htmlcode.obj
 0003:00000a98       $SG104079                  100c1a98     acl_htmlcode.obj
 0003:00000aa0       $SG104080                  100c1aa0     acl_htmlcode.obj
 0003:00000aa8       $SG95991                   100c1aa8     acl_htmlcode.obj
 0003:00000ab0       $SG95992                   100c1ab0     acl_htmlcode.obj
 0003:00000ab8       $SG95993                   100c1ab8     acl_htmlcode.obj
 0003:00000ac0       $SG95994                   100c1ac0     acl_htmlcode.obj
 0003:00000ac8       $SG95995                   100c1ac8     acl_htmlcode.obj
 0003:00000ad4       $SG95996                   100c1ad4     acl_htmlcode.obj
 0003:00000adc       $SG95997                   100c1adc     acl_htmlcode.obj
 0003:00000ae4       $SG95998                   100c1ae4     acl_htmlcode.obj
 0003:00000aec       $SG95999                   100c1aec     acl_htmlcode.obj
 0003:00000af4       $SG96000                   100c1af4     acl_htmlcode.obj
 0003:00000afc       $SG96001                   100c1afc     acl_htmlcode.obj
 0003:00000b08       $SG96002                   100c1b08     acl_htmlcode.obj
 0003:00000b10       $SG96003                   100c1b10     acl_htmlcode.obj
 0003:00000b18       $SG96004                   100c1b18     acl_htmlcode.obj
 0003:00000b20       $SG96005                   100c1b20     acl_htmlcode.obj
 0003:00000b2c       $SG96006                   100c1b2c     acl_htmlcode.obj
 0003:00000b34       $SG96007                   100c1b34     acl_htmlcode.obj
 0003:00000b3c       $SG96009                   100c1b3c     acl_htmlcode.obj
 0003:00000b44       $SG96010                   100c1b44     acl_htmlcode.obj
 0003:00000b4c       $SG96011                   100c1b4c     acl_htmlcode.obj
 0003:00000b58       $SG96012                   100c1b58     acl_htmlcode.obj
 0003:00000b60       $SG96013                   100c1b60     acl_htmlcode.obj
 0003:00000b68       $SG96014                   100c1b68     acl_htmlcode.obj
 0003:00000b70       $SG96015                   100c1b70     acl_htmlcode.obj
 0003:00000b78       $SG96023                   100c1b78     acl_htmlcode.obj
 0003:00000b80       $SG96024                   100c1b80     acl_htmlcode.obj
 0003:00000b88       $SG96025                   100c1b88     acl_htmlcode.obj
 0003:00000b90       $SG96026                   100c1b90     acl_htmlcode.obj
 0003:00000b98       $SG96027                   100c1b98     acl_htmlcode.obj
 0003:00000ba4       $SG96028                   100c1ba4     acl_htmlcode.obj
 0003:00000bac       $SG96029                   100c1bac     acl_htmlcode.obj
 0003:00000bb4       $SG96030                   100c1bb4     acl_htmlcode.obj
 0003:00000bbc       $SG96031                   100c1bbc     acl_htmlcode.obj
 0003:00000bc4       $SG96032                   100c1bc4     acl_htmlcode.obj
 0003:00000bcc       $SG96033                   100c1bcc     acl_htmlcode.obj
 0003:00000bd8       $SG96034                   100c1bd8     acl_htmlcode.obj
 0003:00000be0       $SG96035                   100c1be0     acl_htmlcode.obj
 0003:00000be8       $SG96036                   100c1be8     acl_htmlcode.obj
 0003:00000bf0       $SG96037                   100c1bf0     acl_htmlcode.obj
 0003:00000bfc       $SG96038                   100c1bfc     acl_htmlcode.obj
 0003:00000c04       $SG96039                   100c1c04     acl_htmlcode.obj
 0003:00000c0c       $SG96040                   100c1c0c     acl_htmlcode.obj
 0003:00000c18       $SG96041                   100c1c18     acl_htmlcode.obj
 0003:00000c20       $SG96042                   100c1c20     acl_htmlcode.obj
 0003:00000c28       $SG96043                   100c1c28     acl_htmlcode.obj
 0003:00000c34       $SG96044                   100c1c34     acl_htmlcode.obj
 0003:00000c3c       $SG96045                   100c1c3c     acl_htmlcode.obj
 0003:00000c44       $SG96046                   100c1c44     acl_htmlcode.obj
 0003:00000c4c       $SG96047                   100c1c4c     acl_htmlcode.obj
 0003:00000c54       $SG96055                   100c1c54     acl_htmlcode.obj
 0003:00000c60       $SG96056                   100c1c60     acl_htmlcode.obj
 0003:00000c68       $SG96060                   100c1c68     acl_htmlcode.obj
 0003:00000c70       _html_charmap              100c1c70     acl_htmlcode.obj
 0003:00040c6c       $SG103272                  10101c6c     acl_htmlcode.obj
 0003:00040c74       $SG103273                  10101c74     acl_htmlcode.obj
 0003:00040c7c       $SG160619                  10101c7c     acl_htmlcode.obj
 0003:00040c84       $SG160620                  10101c84     acl_htmlcode.obj
 0003:00040c8c       $SG160621                  10101c8c     acl_htmlcode.obj
 0003:00040c94       $SG160622                  10101c94     acl_htmlcode.obj
 0003:00040c9c       $SG160623                  10101c9c     acl_htmlcode.obj
 0003:00040ca4       $SG103279                  10101ca4     acl_htmlcode.obj
 0003:00040cb0       $SG160624                  10101cb0     acl_htmlcode.obj
 0003:00040cb8       $SG160625                  10101cb8     acl_htmlcode.obj
 0003:00040cc0       $SG160626                  10101cc0     acl_htmlcode.obj
 0003:00040cc8       $SG103282                  10101cc8     acl_htmlcode.obj
 0003:00040cd0       $SG160627                  10101cd0     acl_htmlcode.obj
 0003:00040cd8       $SG103283                  10101cd8     acl_htmlcode.obj
 0003:00040ce0       $SG160628                  10101ce0     acl_htmlcode.obj
 0003:00040cec       $SG103284                  10101cec     acl_htmlcode.obj
 0003:00040cf4       $SG160629                  10101cf4     acl_htmlcode.obj
 0003:00040cfc       $SG103285                  10101cfc     acl_htmlcode.obj
 0003:00040d04       $SG160630                  10101d04     acl_htmlcode.obj
 0003:00040d10       $SG160631                  10101d10     acl_htmlcode.obj
 0003:00040d18       $SG160632                  10101d18     acl_htmlcode.obj
 0003:00040d20       $SG160633                  10101d20     acl_htmlcode.obj
 0003:00040d28       $SG103289                  10101d28     acl_htmlcode.obj
 0003:00040d30       $SG160634                  10101d30     acl_htmlcode.obj
 0003:00040d38       $SG103290                  10101d38     acl_htmlcode.obj
 0003:00040d40       $SG160635                  10101d40     acl_htmlcode.obj
 0003:00040d48       $SG160636                  10101d48     acl_htmlcode.obj
 0003:00040d50       $SG160637                  10101d50     acl_htmlcode.obj
 0003:00040d58       $SG160638                  10101d58     acl_htmlcode.obj
 0003:00040d60       $SG103294                  10101d60     acl_htmlcode.obj
 0003:00040d68       $SG160639                  10101d68     acl_htmlcode.obj
 0003:00040d70       $SG103295                  10101d70     acl_htmlcode.obj
 0003:00040d78       $SG160640                  10101d78     acl_htmlcode.obj
 0003:00040d80       $SG103296                  10101d80     acl_htmlcode.obj
 0003:00040d88       $SG160641                  10101d88     acl_htmlcode.obj
 0003:00040d94       $SG160642                  10101d94     acl_htmlcode.obj
 0003:00040d9c       $SG103298                  10101d9c     acl_htmlcode.obj
 0003:00040da4       $SG160643                  10101da4     acl_htmlcode.obj
 0003:00040dac       $SG103299                  10101dac     acl_htmlcode.obj
 0003:00040db4       $SG160644                  10101db4     acl_htmlcode.obj
 0003:00040dbc       $SG103300                  10101dbc     acl_htmlcode.obj
 0003:00040dc4       $SG160645                  10101dc4     acl_htmlcode.obj
 0003:00040dcc       $SG160646                  10101dcc     acl_htmlcode.obj
 0003:00040dd4       $SG103302                  10101dd4     acl_htmlcode.obj
 0003:00040de0       $SG160647                  10101de0     acl_htmlcode.obj
 0003:00040dec       $SG103303                  10101dec     acl_htmlcode.obj
 0003:00040df8       $SG160648                  10101df8     acl_htmlcode.obj
 0003:00040e00       $SG103304                  10101e00     acl_htmlcode.obj
 0003:00040e08       $SG95112                   10101e08     acl_htmlcode.obj
 0003:00040e10       $SG160649                  10101e10     acl_htmlcode.obj
 0003:00040e18       $SG160650                  10101e18     acl_htmlcode.obj
 0003:00040e20       $SG160651                  10101e20     acl_htmlcode.obj
 0003:00040e28       $SG160652                  10101e28     acl_htmlcode.obj
 0003:00040e34       $SG103308                  10101e34     acl_htmlcode.obj
 0003:00040e40       $SG95116                   10101e40     acl_htmlcode.obj
 0003:00040e48       $SG160653                  10101e48     acl_htmlcode.obj
 0003:00040e54       $SG95117                   10101e54     acl_htmlcode.obj
 0003:00040e5c       $SG160654                  10101e5c     acl_htmlcode.obj
 0003:00040e68       $SG160655                  10101e68     acl_htmlcode.obj
 0003:00040e74       $SG160656                  10101e74     acl_htmlcode.obj
 0003:00040e80       $SG160657                  10101e80     acl_htmlcode.obj
 0003:00040e8c       $SG160658                  10101e8c     acl_htmlcode.obj
 0003:00040e94       $SG160659                  10101e94     acl_htmlcode.obj
 0003:00040ea0       $SG160660                  10101ea0     acl_htmlcode.obj
 0003:00040ea8       $SG160661                  10101ea8     acl_htmlcode.obj
 0003:00040eb0       $SG160662                  10101eb0     acl_htmlcode.obj
 0003:00040eb8       $SG103318                  10101eb8     acl_htmlcode.obj
 0003:00040ec4       $SG160663                  10101ec4     acl_htmlcode.obj
 0003:00040ed0       $SG160664                  10101ed0     acl_htmlcode.obj
 0003:00040edc       $SG103320                  10101edc     acl_htmlcode.obj
 0003:00040ee4       $SG160665                  10101ee4     acl_htmlcode.obj
 0003:00040ef0       $SG103321                  10101ef0     acl_htmlcode.obj
 0003:00040ef8       $SG160666                  10101ef8     acl_htmlcode.obj
 0003:00040f00       $SG160667                  10101f00     acl_htmlcode.obj
 0003:00040f08       $SG160668                  10101f08     acl_htmlcode.obj
 0003:00040f14       $SG160669                  10101f14     acl_htmlcode.obj
 0003:00040f20       $SG160670                  10101f20     acl_htmlcode.obj
 0003:00040f28       $SG160671                  10101f28     acl_htmlcode.obj
 0003:00040f30       $SG103327                  10101f30     acl_htmlcode.obj
 0003:00040f3c       $SG160672                  10101f3c     acl_htmlcode.obj
 0003:00040f44       $SG103328                  10101f44     acl_htmlcode.obj
 0003:00040f50       $SG160673                  10101f50     acl_htmlcode.obj
 0003:00040f5c       $SG160674                  10101f5c     acl_htmlcode.obj
 0003:00040f68       $SG95138                   10101f68     acl_htmlcode.obj
 0003:00040f70       $SG160675                  10101f70     acl_htmlcode.obj
 0003:00040f7c       $SG160676                  10101f7c     acl_htmlcode.obj
 0003:00040f84       $SG103332                  10101f84     acl_htmlcode.obj
 0003:00040f8c       $SG95140                   10101f8c     acl_htmlcode.obj
 0003:00040f94       $SG160677                  10101f94     acl_htmlcode.obj
 0003:00040fa0       $SG160678                  10101fa0     acl_htmlcode.obj
 0003:00040fa8       $SG160679                  10101fa8     acl_htmlcode.obj
 0003:00040fb0       $SG160680                  10101fb0     acl_htmlcode.obj
 0003:00040fbc       $SG160681                  10101fbc     acl_htmlcode.obj
 0003:00040fc8       $SG160682                  10101fc8     acl_htmlcode.obj
 0003:00040fd4       $SG103338                  10101fd4     acl_htmlcode.obj
 0003:00040fdc       $SG160683                  10101fdc     acl_htmlcode.obj
 0003:00040fe4       $SG160684                  10101fe4     acl_htmlcode.obj
 0003:00040fec       $SG160685                  10101fec     acl_htmlcode.obj
 0003:00040ff8       $SG160686                  10101ff8     acl_htmlcode.obj
 0003:00041000       $SG160687                  10102000     acl_htmlcode.obj
 0003:00041008       $SG160688                  10102008     acl_htmlcode.obj
 0003:00041014       $SG160689                  10102014     acl_htmlcode.obj
 0003:00041020       $SG160690                  10102020     acl_htmlcode.obj
 0003:00041028       $SG160691                  10102028     acl_htmlcode.obj
 0003:00041034       $SG160692                  10102034     acl_htmlcode.obj
 0003:0004103c       $SG160693                  1010203c     acl_htmlcode.obj
 0003:00041044       $SG160694                  10102044     acl_htmlcode.obj
 0003:0004104c       $SG160695                  1010204c     acl_htmlcode.obj
 0003:00041058       $SG160696                  10102058     acl_htmlcode.obj
 0003:00041064       $SG160697                  10102064     acl_htmlcode.obj
 0003:00041070       $SG160698                  10102070     acl_htmlcode.obj
 0003:00041078       $SG160699                  10102078     acl_htmlcode.obj
 0003:00041080       $SG160700                  10102080     acl_htmlcode.obj
 0003:0004108c       $SG160701                  1010208c     acl_htmlcode.obj
 0003:00041098       $SG160702                  10102098     acl_htmlcode.obj
 0003:000410a0       $SG160703                  101020a0     acl_htmlcode.obj
 0003:000410a8       $SG160704                  101020a8     acl_htmlcode.obj
 0003:000410b0       $SG160705                  101020b0     acl_htmlcode.obj
 0003:000410bc       $SG160706                  101020bc     acl_htmlcode.obj
 0003:000410c8       $SG160707                  101020c8     acl_htmlcode.obj
 0003:000410d4       $SG160708                  101020d4     acl_htmlcode.obj
 0003:000410dc       $SG160709                  101020dc     acl_htmlcode.obj
 0003:000410e8       $SG160710                  101020e8     acl_htmlcode.obj
 0003:000410f0       $SG160711                  101020f0     acl_htmlcode.obj
 0003:000410fc       $SG160712                  101020fc     acl_htmlcode.obj
 0003:00041108       $SG160713                  10102108     acl_htmlcode.obj
 0003:00041114       $SG160714                  10102114     acl_htmlcode.obj
 0003:00041120       $SG160715                  10102120     acl_htmlcode.obj
 0003:00041128       $SG160716                  10102128     acl_htmlcode.obj
 0003:00041130       $SG160717                  10102130     acl_htmlcode.obj
 0003:0004113c       $SG160718                  1010213c     acl_htmlcode.obj
 0003:00041144       $SG160719                  10102144     acl_htmlcode.obj
 0003:0004114c       $SG160720                  1010214c     acl_htmlcode.obj
 0003:00041154       $SG160721                  10102154     acl_htmlcode.obj
 0003:0004115c       $SG160722                  1010215c     acl_htmlcode.obj
 0003:00041168       $SG160723                  10102168     acl_htmlcode.obj
 0003:00041174       $SG160724                  10102174     acl_htmlcode.obj
 0003:0004117c       $SG160725                  1010217c     acl_htmlcode.obj
 0003:00041184       $SG160726                  10102184     acl_htmlcode.obj
 0003:0004118c       $SG160727                  1010218c     acl_htmlcode.obj
 0003:00041194       $SG160728                  10102194     acl_htmlcode.obj
 0003:0004119c       $SG160729                  1010219c     acl_htmlcode.obj
 0003:000411a4       $SG160730                  101021a4     acl_htmlcode.obj
 0003:000411ac       $SG160731                  101021ac     acl_htmlcode.obj
 0003:000411b4       $SG160732                  101021b4     acl_htmlcode.obj
 0003:000411c0       $SG160733                  101021c0     acl_htmlcode.obj
 0003:000411c8       $SG160734                  101021c8     acl_htmlcode.obj
 0003:000411d0       $SG160735                  101021d0     acl_htmlcode.obj
 0003:000411d8       $SG160736                  101021d8     acl_htmlcode.obj
 0003:000411e0       $SG160737                  101021e0     acl_htmlcode.obj
 0003:000411e8       $SG160738                  101021e8     acl_htmlcode.obj
 0003:000411f4       $SG160739                  101021f4     acl_htmlcode.obj
 0003:000411fc       $SG160740                  101021fc     acl_htmlcode.obj
 0003:00041204       $SG160741                  10102204     acl_htmlcode.obj
 0003:0004120c       $SG160742                  1010220c     acl_htmlcode.obj
 0003:00041218       $SG160743                  10102218     acl_htmlcode.obj
 0003:00041220       $SG160744                  10102220     acl_htmlcode.obj
 0003:00041228       $SG160745                  10102228     acl_htmlcode.obj
 0003:00041230       $SG160746                  10102230     acl_htmlcode.obj
 0003:00041238       $SG160747                  10102238     acl_htmlcode.obj
 0003:00041244       $SG160748                  10102244     acl_htmlcode.obj
 0003:0004124c       $SG160749                  1010224c     acl_htmlcode.obj
 0003:00041254       $SG160750                  10102254     acl_htmlcode.obj
 0003:0004125c       $SG160751                  1010225c     acl_htmlcode.obj
 0003:00041264       $SG160752                  10102264     acl_htmlcode.obj
 0003:0004126c       $SG160753                  1010226c     acl_htmlcode.obj
 0003:00041274       $SG160754                  10102274     acl_htmlcode.obj
 0003:0004127c       $SG160755                  1010227c     acl_htmlcode.obj
 0003:00041284       $SG160756                  10102284     acl_htmlcode.obj
 0003:00041290       $SG160757                  10102290     acl_htmlcode.obj
 0003:00041298       $SG160758                  10102298     acl_htmlcode.obj
 0003:000412a0       $SG160759                  101022a0     acl_htmlcode.obj
 0003:000412a8       $SG160760                  101022a8     acl_htmlcode.obj
 0003:000412b0       $SG160761                  101022b0     acl_htmlcode.obj
 0003:000412b8       $SG160762                  101022b8     acl_htmlcode.obj
 0003:000412c4       $SG160763                  101022c4     acl_htmlcode.obj
 0003:000412cc       $SG160764                  101022cc     acl_htmlcode.obj
 0003:000412d4       $SG160765                  101022d4     acl_htmlcode.obj
 0003:000412dc       $SG160766                  101022dc     acl_htmlcode.obj
 0003:000412e8       $SG160767                  101022e8     acl_htmlcode.obj
 0003:000412f0       _hex_enc_table             101022f0     acl_urlcode.obj
 0003:00041304       $SG95073                   10102304     acl_urlcode.obj
 0003:00041314       $SG95080                   10102314     acl_urlcode.obj
 0003:00041330       $SG95083                   10102330     acl_urlcode.obj
 0003:00041348       $SG95092                   10102348     acl_urlcode.obj
 0003:0004134c       $SG95093                   1010234c     acl_urlcode.obj
 0003:00041368       $SG95095                   10102368     acl_urlcode.obj
 0003:00041380       _hex_dec_table             10102380     acl_urlcode.obj
 0003:00041480       $SG95104                   10102480     acl_urlcode.obj
 0003:00041490       $SG95110                   10102490     acl_urlcode.obj
 0003:000414ac       $SG95113                   101024ac     acl_urlcode.obj
 0003:000414c8       $SG95354                   101024c8     acl_xmlcode.obj
 0003:000414cc       $SG95355                   101024cc     acl_xmlcode.obj
 0003:000414d4       $SG95356                   101024d4     acl_xmlcode.obj
 0003:000414d8       $SG95357                   101024d8     acl_xmlcode.obj
 0003:000414e0       $SG95358                   101024e0     acl_xmlcode.obj
 0003:000414e4       $SG95359                   101024e4     acl_xmlcode.obj
 0003:000414ec       $SG95360                   101024ec     acl_xmlcode.obj
 0003:000414f0       $SG95361                   101024f0     acl_xmlcode.obj
 0003:000414f8       $SG95362                   101024f8     acl_xmlcode.obj
 0003:000414fc       $SG95363                   101024fc     acl_xmlcode.obj
 0003:00041504       $SG95364                   10102504     acl_xmlcode.obj
 0003:00041508       $SG95365                   10102508     acl_xmlcode.obj
 0003:00041510       $SG95366                   10102510     acl_xmlcode.obj
 0003:00041514       $SG95367                   10102514     acl_xmlcode.obj
 0003:0004151c       $SG95368                   1010251c     acl_xmlcode.obj
 0003:00041520       $SG95369                   10102520     acl_xmlcode.obj
 0003:00041528       $SG95399                   10102528     acl_xmlcode.obj
 0003:00041534       $SG95400                   10102534     acl_xmlcode.obj
 0003:00041540       $SG95425                   10102540     acl_xmlcode.obj
 0003:00041554       $SG95111                   10102554     acl_xmlcode.obj
 0003:00041560       ___charmap                 10102560     acl_xmlcode.obj
 0003:0004195c       $SG95115                   1010295c     acl_xmlcode.obj
 0003:00041964       $SG95116                   10102964     acl_xmlcode.obj
 0003:0004196c       $SG95137                   1010296c     acl_xmlcode.obj
 0003:00041974       $SG95139                   10102974     acl_xmlcode.obj
 0003:00041980       $SG95237                   10102980     acl_chunk_chain.obj
 0003:00041990       $SG95250                   10102990     acl_chunk_chain.obj
 0003:000419d8       $SG95309                   101029d8     acl_chunk_chain.obj
 0003:00041a00       $SG95318                   10102a00     acl_chunk_chain.obj
 0003:00041a28       $SG95089                   10102a28     acl_chunk_chain.obj
 0003:00041a48       $SG95091                   10102a48     acl_chunk_chain.obj
 0003:00041a68       $SG95099                   10102a68     acl_chunk_chain.obj
 0003:00041a88       $SG95104                   10102a88     acl_chunk_chain.obj
 0003:00041aa8       $SG95125                   10102aa8     acl_chunk_chain.obj
 0003:00041ac8       $SG95130                   10102ac8     acl_chunk_chain.obj
 0003:00041ae8       $SG95136                   10102ae8     acl_chunk_chain.obj
 0003:00041b08       $SG95139                   10102b08     acl_chunk_chain.obj
 0003:00041b28       $SG95144                   10102b28     acl_chunk_chain.obj
 0003:00041b48       $SG95150                   10102b48     acl_chunk_chain.obj
 0003:00041b68       $SG95160                   10102b68     acl_chunk_chain.obj
 0003:00041b88       $SG95176                   10102b88     acl_chunk_chain.obj
 0003:00041ba8       ___max_debug_sections      10102ba8     acl_debug.obj
 0003:00041bac       $SG95077                   10102bac     acl_debug.obj
 0003:00041bc8       $SG95093                   10102bc8     acl_debug.obj
 0003:00041bcc       $SG95096                   10102bcc     acl_debug.obj
 0003:00041be8       $SG95105                   10102be8     acl_debug.obj
 0003:00041bf0       $SG95108                   10102bf0     acl_debug.obj
 0003:00041bf4       $SG95090                   10102bf4     acl_file.obj
 0003:00041c0c       $SG95126                   10102c0c     acl_file.obj
 0003:00041c24       $SG95133                   10102c24     acl_file.obj
 0003:00041c3c       $SG95144                   10102c3c     acl_file.obj
 0003:00041c54       $SG95091                   10102c54     acl_getopt.obj
 0003:00041c58       $SG95095                   10102c58     acl_getopt.obj
 0003:00041c70       $SG95102                   10102c70     acl_getopt.obj
 0003:00041c8c       $SG95079                   10102c8c     acl_meter_time.obj
 0003:00041cac       $SG95090                   10102cac     acl_meter_time.obj
 0003:00041ccc       $SG95110                   10102ccc     acl_meter_time.obj
 0003:00041cec       $SG95134                   10102cec     acl_meter_time.obj
 0003:00041d1c       $SG95137                   10102d1c     acl_meter_time.obj
 0003:00041d48       $SG95234                   10102d48     acl_msg.obj
 0003:00041d4c       $SG95246                   10102d4c     acl_msg.obj
 0003:00041d54       $SG95249                   10102d54     acl_msg.obj
 0003:00041d58       $SG95262                   10102d58     acl_msg.obj
 0003:00041d60       $SG95265                   10102d60     acl_msg.obj
 0003:00041d68       $SG95266                   10102d68     acl_msg.obj
 0003:00041d6c       $SG95282                   10102d6c     acl_msg.obj
 0003:00041d74       $SG95285                   10102d74     acl_msg.obj
 0003:00041d78       $SG95303                   10102d78     acl_msg.obj
 0003:00041d80       $SG95306                   10102d80     acl_msg.obj
 0003:00041d84       $SG95323                   10102d84     acl_msg.obj
 0003:00041d8c       $SG95326                   10102d8c     acl_msg.obj
 0003:00041d90       $SG95343                   10102d90     acl_msg.obj
 0003:00041d98       $SG95346                   10102d98     acl_msg.obj
 0003:00041d9c       $SG95362                   10102d9c     acl_msg.obj
 0003:00041da4       $SG95365                   10102da4     acl_msg.obj
 0003:00041da8       $SG95378                   10102da8     acl_msg.obj
 0003:00041db8       $SG95383                   10102db8     acl_msg.obj
 0003:00041dd0       $SG95384                   10102dd0     acl_msg.obj
 0003:00041de8       $SG95408                   10102de8     acl_msg.obj
 0003:00041e00       $SG95423                   10102e00     acl_msg.obj
 0003:00041e18       ?__buf_size@?1??acl_last_serror@@9@9 10102e18     acl_msg.obj
 0003:00041e1c       $SG95441                   10102e1c     acl_msg.obj
 0003:00041e34       $SG95458                   10102e34     acl_msg.obj
 0003:00041e3c       $SG95133                   10102e3c     acl_msg.obj
 0003:00041e4c       $SG95149                   10102e4c     acl_msg.obj
 0003:00041e78       $SG95169                   10102e78     acl_msg.obj
 0003:00041e80       $SG95172                   10102e80     acl_msg.obj
 0003:00041e84       $SG95184                   10102e84     acl_msg.obj
 0003:00041e8c       $SG95187                   10102e8c     acl_msg.obj
 0003:00041e90       $SG95200                   10102e90     acl_msg.obj
 0003:00041e98       $SG95203                   10102e98     acl_msg.obj
 0003:00041e9c       $SG95215                   10102e9c     acl_msg.obj
 0003:00041ea4       $SG95218                   10102ea4     acl_msg.obj
 0003:00041ea8       $SG95231                   10102ea8     acl_msg.obj
 0003:00041eb0       $SG95076                   10102eb0     acl_myflock.obj
 0003:00041ebc       $SG95083                   10102ebc     acl_myflock.obj
 0003:00041ee4       $SG95086                   10102ee4     acl_myflock.obj
 0003:00041f00       $SG95095                   10102f00     acl_myflock.obj
 0003:00041f18       $SG95104                   10102f18     acl_myflock.obj
 0003:00041f30       $SG95105                   10102f30     acl_myflock.obj
 0003:00041f4c       $SG95260                   10102f4c     acl_mylog.obj
 0003:00041f5c       $SG95274                   10102f5c     acl_mylog.obj
 0003:00041f7c       $SG95281                   10102f7c     acl_mylog.obj
 0003:00041f80       $SG95290                   10102f80     acl_mylog.obj
 0003:00041f90       $SG95302                   10102f90     acl_mylog.obj
 0003:00041fb0       $SG95306                   10102fb0     acl_mylog.obj
 0003:00041fcc       $SG95307                   10102fcc     acl_mylog.obj
 0003:00041fd0       $SG95315                   10102fd0     acl_mylog.obj
 0003:00041fd4       $SG95369                   10102fd4     acl_mylog.obj
 0003:00041fe4       $SG95378                   10102fe4     acl_mylog.obj
 0003:00042008       $SG95381                   10103008     acl_mylog.obj
 0003:00042028       $SG95389                   10103028     acl_mylog.obj
 0003:0004202c       $SG95446                   1010302c     acl_mylog.obj
 0003:0004203c       $SG95453                   1010303c     acl_mylog.obj
 0003:00042040       $SG95467                   10103040     acl_mylog.obj
 0003:00042064       $SG95480                   10103064     acl_mylog.obj
 0003:00042068       $SG95489                   10103068     acl_mylog.obj
 0003:00042074       $SG95492                   10103074     acl_mylog.obj
 0003:0004207c       $SG95494                   1010307c     acl_mylog.obj
 0003:0004209c       $SG95497                   1010309c     acl_mylog.obj
 0003:000420a4       $SG95499                   101030a4     acl_mylog.obj
 0003:000420c4       $SG95502                   101030c4     acl_mylog.obj
 0003:000420cc       $SG95504                   101030cc     acl_mylog.obj
 0003:000420ec       $SG95507                   101030ec     acl_mylog.obj
 0003:000420f4       $SG95509                   101030f4     acl_mylog.obj
 0003:00042114       $SG95517                   10103114     acl_mylog.obj
 0003:00042124       $SG95525                   10103124     acl_mylog.obj
 0003:00042140       $SG95530                   10103140     acl_mylog.obj
 0003:00042158       $SG95533                   10103158     acl_mylog.obj
 0003:0004215c       $SG95547                   1010315c     acl_mylog.obj
 0003:00042170       $SG95604                   10103170     acl_mylog.obj
 0003:00042190       $SG95607                   10103190     acl_mylog.obj
 0003:000421a8       $SG95611                   101031a8     acl_mylog.obj
 0003:000421ac       $SG95630                   101031ac     acl_mylog.obj
 0003:000421c8       $SG95633                   101031c8     acl_mylog.obj
 0003:000421dc       $SG95640                   101031dc     acl_mylog.obj
 0003:000421e0       $SG95672                   101031e0     acl_mylog.obj
 0003:000421e4       $SG95110                   101031e4     acl_readline.obj
 0003:000421e8       $SG95112                   101031e8     acl_readline.obj
 0003:00042224       $SG95245                   10103224     acl_vbuf_print.obj
 0003:00042234       $SG95246                   10103234     acl_vbuf_print.obj
 0003:00042250       $SG95103                   10103250     acl_vbuf_print.obj
 0003:00042254       $SG95113                   10103254     acl_vbuf_print.obj
 0003:00042270       $SG95123                   10103270     acl_vbuf_print.obj
 0003:00042274       $SG95133                   10103274     acl_vbuf_print.obj
 0003:00042290       $SG95203                   10103290     acl_vbuf_print.obj
 0003:000422a0       $SG95204                   101032a0     acl_vbuf_print.obj
 0003:000422cc       $SG95251                   101032cc     acl_vsprintf.obj
 0003:000422d4       $SG95089                   101032d4     acl_vsprintf.obj
 0003:000422fc       $SG95091                   101032fc     acl_vsprintf.obj
 0003:00042328       $SG95232                   10103328     acl_vstream.obj
 0003:00042354       $SG96258                   10103354     acl_vstream.obj
 0003:00042370       $SG96265                   10103370     acl_vstream.obj
 0003:0004238c       $SG96271                   1010338c     acl_vstream.obj
 0003:000423a8       $SG96286                   101033a8     acl_vstream.obj
 0003:000423c4       $SG96287                   101033c4     acl_vstream.obj
 0003:000423ec       $SG96300                   101033ec     acl_vstream.obj
 0003:00042408       $SG96303                   10103408     acl_vstream.obj
 0003:00042424       $SG96304                   10103424     acl_vstream.obj
 0003:00042440       $SG96306                   10103440     acl_vstream.obj
 0003:0004245c       $SG96307                   1010345c     acl_vstream.obj
 0003:00042484       $SG95294                   10103484     acl_vstream.obj
 0003:000424a0       $SG95301                   101034a0     acl_vstream.obj
 0003:000424bc       $SG95313                   101034bc     acl_vstream.obj
 0003:000424d4       $SG95319                   101034d4     acl_vstream.obj
 0003:000424f0       $SG95320                   101034f0     acl_vstream.obj
 0003:00042508       $SG95323                   10103508     acl_vstream.obj
 0003:00042524       $SG95324                   10103524     acl_vstream.obj
 0003:00042544       $SG96351                   10103544     acl_vstream.obj
 0003:0004255c       $SG96362                   1010355c     acl_vstream.obj
 0003:00042578       $SG96363                   10103578     acl_vstream.obj
 0003:00042590       $SG96367                   10103590     acl_vstream.obj
 0003:000425ac       $SG96368                   101035ac     acl_vstream.obj
 0003:000425d0       $SG96372                   101035d0     acl_vstream.obj
 0003:000425ec       $SG96373                   101035ec     acl_vstream.obj
 0003:00042610       $SG96390                   10103610     acl_vstream.obj
 0003:00042620       $SG96476                   10103620     acl_vstream.obj
 0003:0004263c       $SG96477                   1010363c     acl_vstream.obj
 0003:00042654       $SG95459                   10103654     acl_vstream.obj
 0003:00042688       $SG96487                   10103688     acl_vstream.obj
 0003:0004269c       $SG95468                   1010369c     acl_vstream.obj
 0003:000426b0       $SG96494                   101036b0     acl_vstream.obj
 0003:000426cc       $SG96495                   101036cc     acl_vstream.obj
 0003:000426e4       $SG96497                   101036e4     acl_vstream.obj
 0003:00042700       $SG96498                   10103700     acl_vstream.obj
 0003:00042738       $SG96501                   10103738     acl_vstream.obj
 0003:00042754       $SG96502                   10103754     acl_vstream.obj
 0003:0004277c       $SG95478                   1010377c     acl_vstream.obj
 0003:00042798       $SG95479                   10103798     acl_vstream.obj
 0003:000427b8       $SG96514                   101037b8     acl_vstream.obj
 0003:000427d4       $SG96515                   101037d4     acl_vstream.obj
 0003:000427f8       $SG96525                   101037f8     acl_vstream.obj
 0003:0004280c       $SG96532                   1010380c     acl_vstream.obj
 0003:00042828       $SG95508                   10103828     acl_vstream.obj
 0003:00042840       $SG96533                   10103840     acl_vstream.obj
 0003:00042858       $SG96535                   10103858     acl_vstream.obj
 0003:00042874       $SG96536                   10103874     acl_vstream.obj
 0003:000428ac       $SG96539                   101038ac     acl_vstream.obj
 0003:000428c8       $SG95515                   101038c8     acl_vstream.obj
 0003:000428e4       $SG96540                   101038e4     acl_vstream.obj
 0003:0004290c       $SG95516                   1010390c     acl_vstream.obj
 0003:00042928       $SG95520                   10103928     acl_vstream.obj
 0003:00042944       $SG96545                   10103944     acl_vstream.obj
 0003:00042960       $SG95521                   10103960     acl_vstream.obj
 0003:00042980       $SG96546                   10103980     acl_vstream.obj
 0003:000429c0       $SG96554                   101039c0     acl_vstream.obj
 0003:000429dc       $SG96555                   101039dc     acl_vstream.obj
 0003:00042a00       $SG96559                   10103a00     acl_vstream.obj
 0003:00042a1c       $SG96560                   10103a1c     acl_vstream.obj
 0003:00042a40       $SG96562                   10103a40     acl_vstream.obj
 0003:00042a5c       $SG96563                   10103a5c     acl_vstream.obj
 0003:00042a9c       $SG96575                   10103a9c     acl_vstream.obj
 0003:00042ab0       $SG96578                   10103ab0     acl_vstream.obj
 0003:00042acc       $SG96579                   10103acc     acl_vstream.obj
 0003:00042ae8       $SG96581                   10103ae8     acl_vstream.obj
 0003:00042b04       $SG96582                   10103b04     acl_vstream.obj
 0003:00042b28       $SG96584                   10103b28     acl_vstream.obj
 0003:00042b44       $SG96585                   10103b44     acl_vstream.obj
 0003:00042b60       $SG95563                   10103b60     acl_vstream.obj
 0003:00042b7c       $SG96592                   10103b7c     acl_vstream.obj
 0003:00042b90       $SG95570                   10103b90     acl_vstream.obj
 0003:00042bac       $SG95571                   10103bac     acl_vstream.obj
 0003:00042bc8       $SG96596                   10103bc8     acl_vstream.obj
 0003:00042be4       $SG96597                   10103be4     acl_vstream.obj
 0003:00042c0c       $SG95575                   10103c0c     acl_vstream.obj
 0003:00042c28       $SG95576                   10103c28     acl_vstream.obj
 0003:00042c48       $SG96605                   10103c48     acl_vstream.obj
 0003:00042c5c       $SG96610                   10103c5c     acl_vstream.obj
 0003:00042c74       $SG96613                   10103c74     acl_vstream.obj
 0003:00042c90       $SG96618                   10103c90     acl_vstream.obj
 0003:00042ca4       $SG96621                   10103ca4     acl_vstream.obj
 0003:00042cb4       $SG96624                   10103cb4     acl_vstream.obj
 0003:00042cd0       $SG96633                   10103cd0     acl_vstream.obj
 0003:00042cd4       $SG95611                   10103cd4     acl_vstream.obj
 0003:00042cec       $SG96636                   10103cec     acl_vstream.obj
 0003:00042cf0       $SG95618                   10103cf0     acl_vstream.obj
 0003:00042d0c       $SG95619                   10103d0c     acl_vstream.obj
 0003:00042d28       $SG95622                   10103d28     acl_vstream.obj
 0003:00042d44       $SG95623                   10103d44     acl_vstream.obj
 0003:00042d64       $SG96660                   10103d64     acl_vstream.obj
 0003:00042d80       $SG96670                   10103d80     acl_vstream.obj
 0003:00042d9c       $SG95646                   10103d9c     acl_vstream.obj
 0003:00042db4       $SG95652                   10103db4     acl_vstream.obj
 0003:00042dd0       $SG96677                   10103dd0     acl_vstream.obj
 0003:00042dec       $SG95653                   10103dec     acl_vstream.obj
 0003:00042e08       $SG95657                   10103e08     acl_vstream.obj
 0003:00042e24       $SG96682                   10103e24     acl_vstream.obj
 0003:00042e40       $SG95658                   10103e40     acl_vstream.obj
 0003:00042e60       $SG96691                   10103e60     acl_vstream.obj
 0003:00042e88       $SG95669                   10103e88     acl_vstream.obj
 0003:00042ea0       $SG95672                   10103ea0     acl_vstream.obj
 0003:00042ebc       $SG95673                   10103ebc     acl_vstream.obj
 0003:00042edc       $SG96709                   10103edc     acl_vstream.obj
 0003:00042ef8       $SG95693                   10103ef8     acl_vstream.obj
 0003:00042f0c       $SG96725                   10103f0c     acl_vstream.obj
 0003:00042f28       $SG95702                   10103f28     acl_vstream.obj
 0003:00042f44       $SG95703                   10103f44     acl_vstream.obj
 0003:00042f5c       $SG95706                   10103f5c     acl_vstream.obj
 0003:00043908       $SG95707                   10104908     acl_vstream.obj
 0003:00043920       $SG96732                   10104920     acl_vstream.obj
 0003:0004393c       $SG95709                   1010493c     acl_vstream.obj
 0003:00043958       $SG95710                   10104958     acl_vstream.obj
 0003:00043974       $SG95711                   10104974     acl_vstream.obj
 0003:00043990       $SG95712                   10104990     acl_vstream.obj
 0003:000439ac       $SG96737                   101049ac     acl_vstream.obj
 0003:000439c8       $SG95717                   101049c8     acl_vstream.obj
 0003:000439e4       $SG95718                   101049e4     acl_vstream.obj
 0003:00043a00       $SG95722                   10104a00     acl_vstream.obj
 0003:00043a1c       $SG95723                   10104a1c     acl_vstream.obj
 0003:00043a38       $SG95731                   10104a38     acl_vstream.obj
 0003:00043a54       $SG95732                   10104a54     acl_vstream.obj
 0003:00043a94       $SG96759                   10104a94     acl_vstream.obj
 0003:00043ab0       $SG96772                   10104ab0     acl_vstream.obj
 0003:00043ad0       $SG95749                   10104ad0     acl_vstream.obj
 0003:00043ae8       $SG96777                   10104ae8     acl_vstream.obj
 0003:00043b04       $SG96778                   10104b04     acl_vstream.obj
 0003:00043b1c       $SG95756                   10104b1c     acl_vstream.obj
 0003:00043b38       $SG96781                   10104b38     acl_vstream.obj
 0003:00043b54       $SG95757                   10104b54     acl_vstream.obj
 0003:00043b70       $SG96782                   10104b70     acl_vstream.obj
 0003:00043b94       $SG96785                   10104b94     acl_vstream.obj
 0003:00043bb0       $SG96786                   10104bb0     acl_vstream.obj
 0003:00043bcc       $SG95762                   10104bcc     acl_vstream.obj
 0003:00043be8       $SG95763                   10104be8     acl_vstream.obj
 0003:00043c04       $SG95767                   10104c04     acl_vstream.obj
 0003:00043c20       $SG95768                   10104c20     acl_vstream.obj
 0003:00043c3c       $SG96794                   10104c3c     acl_vstream.obj
 0003:00043c58       $SG96797                   10104c58     acl_vstream.obj
 0003:00043c74       $SG96798                   10104c74     acl_vstream.obj
 0003:00043c90       $SG96800                   10104c90     acl_vstream.obj
 0003:00043cac       $SG95776                   10104cac     acl_vstream.obj
 0003:00043cc8       $SG96801                   10104cc8     acl_vstream.obj
 0003:00043cf0       $SG95777                   10104cf0     acl_vstream.obj
 0003:00043d30       $SG96812                   10104d30     acl_vstream.obj
 0003:00043d50       $SG96818                   10104d50     acl_vstream.obj
 0003:00043d64       $SG96821                   10104d64     acl_vstream.obj
 0003:00043d84       $SG96824                   10104d84     acl_vstream.obj
 0003:00043d9c       $SG95811                   10104d9c     acl_vstream.obj
 0003:00043db0       $SG96837                   10104db0     acl_vstream.obj
 0003:00043dcc       $SG95820                   10104dcc     acl_vstream.obj
 0003:00043de8       $SG95821                   10104de8     acl_vstream.obj
 0003:00043e04       $SG95826                   10104e04     acl_vstream.obj
 0003:00043e20       $SG96857                   10104e20     acl_vstream.obj
 0003:00043e3c       $SG95837                   10104e3c     acl_vstream.obj
 0003:00043e58       ?err@?1??acl_vstream_strerror@@9@9 10104e58     acl_vstream.obj
 0003:00043e64       $SG95851                   10104e64     acl_vstream.obj
 0003:00043e80       $SG95861                   10104e80     acl_vstream.obj
 0003:00043e98       $SG95868                   10104e98     acl_vstream.obj
 0003:00043eb4       $SG95869                   10104eb4     acl_vstream.obj
 0003:00043ecc       $SG95872                   10104ecc     acl_vstream.obj
 0003:00043ee8       $SG95873                   10104ee8     acl_vstream.obj
 0003:00043f04       $SG95876                   10104f04     acl_vstream.obj
 0003:00043f20       $SG95877                   10104f20     acl_vstream.obj
 0003:00043f44       $SG95880                   10104f44     acl_vstream.obj
 0003:00043f60       $SG95881                   10104f60     acl_vstream.obj
 0003:00043f7c       $SG95889                   10104f7c     acl_vstream.obj
 0003:00043f90       $SG95896                   10104f90     acl_vstream.obj
 0003:00043fac       $SG95897                   10104fac     acl_vstream.obj
 0003:00043fc8       $SG95906                   10104fc8     acl_vstream.obj
 0003:00043fdc       $SG95911                   10104fdc     acl_vstream.obj
 0003:00043ff8       $SG95912                   10104ff8     acl_vstream.obj
 0003:00044014       $SG95918                   10105014     acl_vstream.obj
 0003:00044030       $SG95919                   10105030     acl_vstream.obj
 0003:0004405c       $SG95930                   1010505c     acl_vstream.obj
 0003:00044070       $SG95935                   10105070     acl_vstream.obj
 0003:00044088       $SG95938                   10105088     acl_vstream.obj
 0003:0004408c       $SG95943                   1010508c     acl_vstream.obj
 0003:000440a0       $SG95949                   101050a0     acl_vstream.obj
 0003:000440bc       $SG95950                   101050bc     acl_vstream.obj
 0003:000440e8       $SG95995                   101050e8     acl_vstream.obj
 0003:00044104       $SG96017                   10105104     acl_vstream.obj
 0003:00044120       $SG96024                   10105120     acl_vstream.obj
 0003:0004413c       $SG96025                   1010513c     acl_vstream.obj
 0003:00044154       $SG96028                   10105154     acl_vstream.obj
 0003:00044170       $SG96029                   10105170     acl_vstream.obj
 0003:0004418c       $SG96032                   1010518c     acl_vstream.obj
 0003:000441a8       $SG96033                   101051a8     acl_vstream.obj
 0003:000441cc       $SG96036                   101051cc     acl_vstream.obj
 0003:000441e8       $SG96037                   101051e8     acl_vstream.obj
 0003:00044204       $SG96045                   10105204     acl_vstream.obj
 0003:00044220       $SG96052                   10105220     acl_vstream.obj
 0003:0004423c       $SG96053                   1010523c     acl_vstream.obj
 0003:00044258       $SG96062                   10105258     acl_vstream.obj
 0003:00044274       $SG96067                   10105274     acl_vstream.obj
 0003:00044290       $SG96068                   10105290     acl_vstream.obj
 0003:000442ac       $SG96074                   101052ac     acl_vstream.obj
 0003:000442c8       $SG96075                   101052c8     acl_vstream.obj
 0003:000442f4       $SG96086                   101052f4     acl_vstream.obj
 0003:00044310       $SG96091                   10105310     acl_vstream.obj
 0003:00044328       $SG96094                   10105328     acl_vstream.obj
 0003:0004432c       $SG96099                   1010532c     acl_vstream.obj
 0003:00044344       $SG96105                   10105344     acl_vstream.obj
 0003:00044360       $SG96106                   10105360     acl_vstream.obj
 0003:0004438c       $SG96111                   1010538c     acl_vstream.obj
 0003:000443a0       $SG96114                   101053a0     acl_vstream.obj
 0003:000443b0       $SG96116                   101053b0     acl_vstream.obj
 0003:000443cc       $SG96118                   101053cc     acl_vstream.obj
 0003:000443f8       $SG96120                   101053f8     acl_vstream.obj
 0003:0004441c       $SG96126                   1010541c     acl_vstream.obj
 0003:00044438       $SG96131                   10105438     acl_vstream.obj
 0003:0004444c       $SG96136                   1010544c     acl_vstream.obj
 0003:00044460       $SG96150                   10105460     acl_vstream.obj
 0003:0004447c       $SG96155                   1010547c     acl_vstream.obj
 0003:00044490       $SG96156                   10105490     acl_vstream.obj
 0003:000444a8       $SG96163                   101054a8     acl_vstream.obj
 0003:000444bc       $SG95142                   101054bc     acl_vstream.obj
 0003:000444cc       $SG96168                   101054cc     acl_vstream.obj
 0003:000444e8       $SG96169                   101054e8     acl_vstream.obj
 0003:00044500       $SG95145                   10105500     acl_vstream.obj
 0003:00044510       $SG95159                   10105510     acl_vstream.obj
 0003:00044520       $SG95162                   10105520     acl_vstream.obj
 0003:00044530       $SG96187                   10105530     acl_vstream.obj
 0003:00044544       $SG96192                   10105544     acl_vstream.obj
 0003:00044560       $SG95168                   10105560     acl_vstream.obj
 0003:00044574       $SG96195                   10105574     acl_vstream.obj
 0003:00044590       $SG96199                   10105590     acl_vstream.obj
 0003:000445ac       $SG96206                   101055ac     acl_vstream.obj
 0003:000445c8       $SG96212                   101055c8     acl_vstream.obj
 0003:000445e4       $SG96214                   101055e4     acl_vstream.obj
 0003:00044600       $SG95190                   10105600     acl_vstream.obj
 0003:00044618       $SG96217                   10105618     acl_vstream.obj
 0003:00044648       $SG96223                   10105648     acl_vstream.obj
 0003:0004464c       $SG96226                   1010564c     acl_vstream.obj
 0003:00044650       $SG95202                   10105650     acl_vstream.obj
 0003:0004466c       $SG95203                   1010566c     acl_vstream.obj
 0003:00044694       $SG95209                   10105694     acl_vstream.obj
 0003:000446b0       $SG95210                   101056b0     acl_vstream.obj
 0003:000446dc       $SG96236                   101056dc     acl_vstream.obj
 0003:000446f8       $SG95214                   101056f8     acl_vstream.obj
 0003:00044714       $SG95215                   10105714     acl_vstream.obj
 0003:0004473c       $SG96241                   1010573c     acl_vstream.obj
 0003:00044758       $SG96243                   10105758     acl_vstream.obj
 0003:00044774       $SG96244                   10105774     acl_vstream.obj
 0003:0004479c       $SG96250                   1010579c     acl_vstream.obj
 0003:000447b0       $SG95231                   101057b0     acl_vstream.obj
 0003:000447d0       $SG95235                   101057d0     acl_vstream_popen.obj
 0003:000447e4       $SG95083                   101057e4     acl_vstream_popen.obj
 0003:000447f8       $SG95101                   101057f8     acl_vstream_popen.obj
 0003:00044838       $SG95111                   10105838     acl_vstream_popen.obj
 0003:00044878       $SG95144                   10105878     acl_vstream_popen.obj
 0003:0004488c       $SG95151                   1010588c     acl_vstream_popen.obj
 0003:000448a0       $SG95146                   101058a0     acl_vstream_popen.obj
 0003:000448e0       $SG95174                   101058e0     acl_vstream_popen.obj
 0003:000448e4       $SG95175                   101058e4     acl_vstream_popen.obj
 0003:000448e8       $SG95177                   101058e8     acl_vstream_popen.obj
 0003:000448ec       $SG95178                   101058ec     acl_vstream_popen.obj
 0003:000448f0       $SG95182                   101058f0     acl_vstream_popen.obj
 0003:00044914       $SG95204                   10105914     acl_vstream_popen.obj
 0003:00044934       $SG95213                   10105934     acl_vstream_popen.obj
 0003:00044940       $SG95223                   10105940     acl_vstream_popen.obj
 0003:0004495c       $SG95226                   1010595c     acl_vstream_popen.obj
 0003:00044978       $SG95228                   10105978     acl_vstream_popen.obj
 0003:00044998       $SG95280                   10105998     acl_vstring.obj
 0003:000449b4       $SG95284                   101059b4     acl_vstring.obj
 0003:000449d0       $SG95450                   101059d0     acl_vstring.obj
 0003:000449e4       $SG95455                   101059e4     acl_vstring.obj
 0003:000449fc       $SG95484                   101059fc     acl_vstring.obj
 0003:00044a18       $SG95492                   10105a18     acl_vstring.obj
 0003:00044a34       $SG95508                   10105a34     acl_vstring.obj
 0003:00044a48       $SG95511                   10105a48     acl_vstring.obj
 0003:00044a60       $SG95517                   10105a60     acl_vstring.obj
 0003:00044a84       $SG95581                   10105a84     acl_vstring.obj
 0003:00044a9c       $SG95587                   10105a9c     acl_vstring.obj
 0003:00044ab8       $SG95608                   10105ab8     acl_vstring.obj
 0003:00044ac8       $SG95612                   10105ac8     acl_vstring.obj
 0003:00044ae8       _maptolower                10105ae8     acl_vstring.obj
 0003:00044be8       $SG95082                   10105be8     acl_vstring.obj
 0003:00044c04       $SG95085                   10105c04     acl_vstring.obj
 0003:00044c20       $SG95090                   10105c20     acl_vstring.obj
 0003:00044c44       $SG95103                   10105c44     acl_vstring.obj
 0003:00044c68       $SG95111                   10105c68     acl_vstring.obj
 0003:00044c9c       $SG95113                   10105c9c     acl_vstring.obj
 0003:00044cb8       $SG95122                   10105cb8     acl_vstring.obj
 0003:00044cd4       $SG95137                   10105cd4     acl_vstring.obj
 0003:00044cf8       $SG95140                   10105cf8     acl_vstring.obj
 0003:00044d14       $SG95143                   10105d14     acl_vstring.obj
 0003:00044d30       $SG95147                   10105d30     acl_vstring.obj
 0003:00044d4c       $SG95150                   10105d4c     acl_vstring.obj
 0003:00044d68       $SG95156                   10105d68     acl_vstring.obj
 0003:00044d84       $SG95161                   10105d84     acl_vstring.obj
 0003:00044da0       $SG95164                   10105da0     acl_vstring.obj
 0003:00044dbc       $SG95169                   10105dbc     acl_vstring.obj
 0003:00044dd8       $SG95175                   10105dd8     acl_vstring.obj
 0003:00044de8       $SG95196                   10105de8     acl_vstring.obj
 0003:00044e00       $SG95206                   10105e00     acl_vstring.obj
 0003:00044e18       $SG95121                   10105e18     acl_vstring_vstream.obj
 0003:00044e30       $SG95125                   10105e30     acl_vstring_vstream.obj
 0003:00044e48       $SG95142                   10105e48     acl_vstring_vstream.obj
 0003:00044e64       $SG95147                   10105e64     acl_vstring_vstream.obj
 0003:00044e7c       $SG95168                   10105e7c     acl_vstring_vstream.obj
 0003:00044e98       $SG95172                   10105e98     acl_vstring_vstream.obj
 0003:00044eb0       $SG95077                   10105eb0     acl_non_blocking.obj
 0003:00044ed0       $SG95072                   10105ed0     acl_pipe.obj
 0003:00044edc       $SG95081                   10105edc     acl_pipe.obj
 0003:00044efc       $SG95087                   10105efc     acl_pipe.obj
 0003:00044f20       $SG95128                   10105f20     acl_read_wait.obj
 0003:00044f30       $SG95076                   10105f30     acl_readable.obj
 0003:00044f54       $SG95122                   10105f54     acl_readable.obj
 0003:00044f60       $SG95086                   10105f60     acl_timed_read.obj
 0003:00044f98       $SG95087                   10105f98     acl_timed_read.obj
 0003:00044fd0       $SG95086                   10105fd0     acl_timed_write.obj
 0003:00045008       $SG95087                   10106008     acl_timed_write.obj
 0003:00045040       $SG95086                   10106040     acl_write_buf.obj
 0003:00045054       $SG95077                   10106054     acl_write_wait.obj
 0003:00045068       $SG95130                   10106068     acl_write_wait.obj
 0003:00045090       $SG95131                   10106090     acl_write_wait.obj
 0003:000450b8       $SG95250                   101060b8     acl_argv.obj
 0003:000450d8       $SG95252                   101060d8     acl_argv.obj
 0003:000450f8       $SG95257                   101060f8     acl_argv.obj
 0003:00045108       $SG95282                   10106108     acl_argv.obj
 0003:00045124       $SG95285                   10106124     acl_argv.obj
 0003:00045144       $SG95287                   10106144     acl_argv.obj
 0003:00045164       $SG95295                   10106164     acl_argv.obj
 0003:00045174       $SG95316                   10106174     acl_argv.obj
 0003:00045190       $SG95319                   10106190     acl_argv.obj
 0003:000451b0       $SG95321                   101061b0     acl_argv.obj
 0003:000451d0       $SG95076                   101061d0     acl_argv.obj
 0003:000451f0       $SG95081                   101061f0     acl_argv.obj
 0003:00045210       $SG95100                   10106210     acl_argv.obj
 0003:00045230       $SG95102                   10106230     acl_argv.obj
 0003:00045250       $SG95160                   10106250     acl_argv.obj
 0003:00045270       $SG95165                   10106270     acl_argv.obj
 0003:00045290       $SG95168                   10106290     acl_argv.obj
 0003:000452b0       $SG95169                   101062b0     acl_argv.obj
 0003:000452d0       $SG95174                   101062d0     acl_argv.obj
 0003:000452f0       $SG95179                   101062f0     acl_argv.obj
 0003:00045310       $SG95195                   10106310     acl_argv.obj
 0003:00045330       $SG95198                   10106330     acl_argv.obj
 0003:00045350       $SG95203                   10106350     acl_argv.obj
 0003:00045370       $SG95207                   10106370     acl_argv.obj
 0003:00045390       $SG95228                   10106390     acl_argv.obj
 0003:000453b0       $SG95230                   101063b0     acl_argv.obj
 0003:000453d0       $SG95083                   101063d0     acl_argv_split.obj
 0003:000453f8       $SG95084                   101063f8     acl_argv_split.obj
 0003:00045420       $SG95092                   10106420     acl_argv_split.obj
 0003:00045448       $SG95097                   10106448     acl_argv_split.obj
 0003:00045470       $SG95118                   10106470     acl_argv_split.obj
 0003:00045498       $SG95119                   10106498     acl_argv_split.obj
 0003:000454c0       $SG95127                   101064c0     acl_argv_split.obj
 0003:000454e8       $SG95132                   101064e8     acl_argv_split.obj
 0003:00045510       $SG95142                   10106510     acl_argv_split.obj
 0003:00045538       $SG95143                   10106538     acl_argv_split.obj
 0003:00045560       $SG95151                   10106560     acl_argv_split.obj
 0003:00045588       $SG95156                   10106588     acl_argv_split.obj
 0003:000455b0       $SG95168                   101065b0     acl_argv_split.obj
 0003:000455d8       $SG95169                   101065d8     acl_argv_split.obj
 0003:00045600       $SG95177                   10106600     acl_argv_split.obj
 0003:00045628       $SG95182                   10106628     acl_argv_split.obj
 0003:00045650       $SG95377                   10106650     acl_array.obj
 0003:00045668       $SG95381                   10106668     acl_array.obj
 0003:00045688       $SG95382                   10106688     acl_array.obj
 0003:000456a4       $SG95149                   101066a4     acl_array.obj
 0003:000456c4       $SG95153                   101066c4     acl_array.obj
 0003:000456e4       $SG95162                   101066e4     acl_array.obj
 0003:00045704       $SG95168                   10106704     acl_array.obj
 0003:00045724       $SG95195                   10106724     acl_array.obj
 0003:00045744       $SG95200                   10106744     acl_array.obj
 0003:00045764       $SG95247                   10106764     acl_binhash.obj
 0003:00045788       $SG95250                   10106788     acl_binhash.obj
 0003:000457ac       $SG95310                   101067ac     acl_binhash.obj
 0003:000457d0       $SG95317                   101067d0     acl_binhash.obj
 0003:000457f4       $SG95340                   101067f4     acl_binhash.obj
 0003:00045818       $SG95346                   10106818     acl_binhash.obj
 0003:0004583c       $SG95351                   1010683c     acl_binhash.obj
 0003:00045860       $SG95357                   10106860     acl_binhash.obj
 0003:00045884       $SG95385                   10106884     acl_binhash.obj
 0003:000458a8       $SG95176                   101068a8     acl_binhash.obj
 0003:000458cc       $SG95189                   101068cc     acl_binhash.obj
 0003:000458f0       $SG95196                   101068f0     acl_binhash.obj
 0003:000458fc       $SG95218                   101068fc     acl_binhash.obj
 0003:00045920       $SG95233                   10106920     acl_btree.obj
 0003:00045934       $SG95238                   10106934     acl_btree.obj
 0003:00045958       $SG95301                   10106958     acl_btree.obj
 0003:0004595c       $SG95305                   1010695c     acl_btree.obj
 0003:00045960       $SG95306                   10106960     acl_btree.obj
 0003:00045968       $SG95085                   10106968     acl_btree.obj
 0003:00045978       $SG95087                   10106978     acl_btree.obj
 0003:00045994       $SG95138                   10106994     acl_btree.obj
 0003:000459a8       $SG95147                   101069a8     acl_btree.obj
 0003:000459c0       $SG95182                   101069c0     acl_btree.obj
 0003:000459e0       $SG95186                   101069e0     acl_btree.obj
 0003:000459ec       $SG95192                   101069ec     acl_btree.obj
 0003:00045a00       $SG95195                   10106a00     acl_btree.obj
 0003:00045a18       $SG95199                   10106a18     acl_btree.obj
 0003:00045a38       $SG95218                   10106a38     acl_btree.obj
 0003:00045a48       $SG95222                   10106a48     acl_btree.obj
 0003:00045a70       $SG95243                   10106a70     acl_cache.obj
 0003:00045a90       $SG95244                   10106a90     acl_cache.obj
 0003:00045ad8       $SG95247                   10106ad8     acl_cache.obj
 0003:00045af8       $SG95251                   10106af8     acl_cache.obj
 0003:00045b18       $SG95252                   10106b18     acl_cache.obj
 0003:00045b44       $SG95300                   10106b44     acl_cache.obj
 0003:00045b64       $SG95393                   10106b64     acl_cache.obj
 0003:00045b78       $SG95395                   10106b78     acl_cache.obj
 0003:00045b98       $SG95396                   10106b98     acl_cache.obj
 0003:00045bc4       $SG95436                   10106bc4     acl_cache.obj
 0003:00045bd4       $SG95454                   10106bd4     acl_cache.obj
 0003:00045bf4       $SG95455                   10106bf4     acl_cache.obj
 0003:00045c18       $SG95164                   10106c18     acl_cache.obj
 0003:00045c2c       $SG95168                   10106c2c     acl_cache.obj
 0003:00045c60       $SG95172                   10106c60     acl_cache.obj
 0003:00045c80       $SG95173                   10106c80     acl_cache.obj
 0003:00045c9c       $SG95176                   10106c9c     acl_cache.obj
 0003:00045cbc       $SG95178                   10106cbc     acl_cache.obj
 0003:00045cc8       $SG95184                   10106cc8     acl_cache.obj
 0003:00045cd8       $SG95197                   10106cd8     acl_cache.obj
 0003:00045cf8       $SG95198                   10106cf8     acl_cache.obj
 0003:00045d20       $SG95204                   10106d20     acl_cache.obj
 0003:00045d40       $SG95214                   10106d40     acl_cache.obj
 0003:00045d50       $SG95224                   10106d50     acl_cache.obj
 0003:00045d70       $SG95225                   10106d70     acl_cache.obj
 0003:00045da8       $SG95233                   10106da8     acl_cache2.obj
 0003:00045db8       $SG95250                   10106db8     acl_cache2.obj
 0003:00045ddc       $SG95256                   10106ddc     acl_cache2.obj
 0003:00045e00       $SG95268                   10106e00     acl_cache2.obj
 0003:00045e14       $SG95284                   10106e14     acl_cache2.obj
 0003:00045e48       $SG95306                   10106e48     acl_cache2.obj
 0003:00045e8c       $SG95314                   10106e8c     acl_cache2.obj
 0003:00045eb0       $SG95317                   10106eb0     acl_cache2.obj
 0003:00045ed4       $SG95319                   10106ed4     acl_cache2.obj
 0003:00045ef8       $SG95323                   10106ef8     acl_cache2.obj
 0003:00045f20       $SG95387                   10106f20     acl_cache2.obj
 0003:00045f44       $SG95392                   10106f44     acl_cache2.obj
 0003:00045f68       $SG95399                   10106f68     acl_cache2.obj
 0003:00045f8c       $SG95470                   10106f8c     acl_cache2.obj
 0003:00045fb0       $SG95478                   10106fb0     acl_cache2.obj
 0003:00045fd4       $SG95534                   10106fd4     acl_cache2.obj
 0003:00045fe8       $SG95536                   10106fe8     acl_cache2.obj
 0003:00046010       $SG95211                   10107010     acl_cache2.obj
 0003:00046024       $SG95215                   10107024     acl_cache2.obj
 0003:00046048       $SG95219                   10107048     acl_cache2.obj
 0003:0004606c       $SG95220                   1010706c     acl_cache2.obj
 0003:00046088       $SG95223                   10107088     acl_cache2.obj
 0003:000460ac       $SG95277                   101070ac     acl_dlink.obj
 0003:000460cc       $SG95285                   101070cc     acl_dlink.obj
 0003:000460ec       $SG95297                   101070ec     acl_dlink.obj
 0003:0004610c       $SG95499                   1010710c     acl_dlink.obj
 0003:0004611c       $SG95507                   1010711c     acl_dlink.obj
 0003:00046130       $SG95514                   10107130     acl_dlink.obj
 0003:0004614c       $SG95080                   1010714c     acl_dlink.obj
 0003:0004616c       $SG95136                   1010716c     acl_dlink.obj
 0003:0004618c       $SG95144                   1010718c     acl_dlink.obj
 0003:000461ac       $SG95160                   101071ac     acl_dlink.obj
 0003:000461cc       $SG95168                   101071cc     acl_dlink.obj
 0003:000461ec       $SG95184                   101071ec     acl_dlink.obj
 0003:0004620c       $SG95192                   1010720c     acl_dlink.obj
 0003:0004622c       $SG95232                   1010722c     acl_fifo.obj
 0003:0004624c       $SG95247                   1010724c     acl_fifo.obj
 0003:0004626c       $SG95252                   1010726c     acl_fifo.obj
 0003:0004628c       $SG95269                   1010728c     acl_fifo.obj
 0003:000462ac       $SG95274                   101072ac     acl_fifo.obj
 0003:000462cc       $SG95301                   101072cc     acl_fifo.obj
 0003:000462ec       $SG95306                   101072ec     acl_fifo.obj
 0003:0004630c       $SG95339                   1010730c     acl_fifo.obj
 0003:0004632c       $SG95344                   1010732c     acl_fifo.obj
 0003:0004634c       $SG95153                   1010734c     acl_fifo.obj
 0003:0004636c       $SG95156                   1010736c     acl_fifo.obj
 0003:0004638c       $SG95173                   1010738c     acl_fifo.obj
 0003:000463ac       $SG95178                   101073ac     acl_fifo.obj
 0003:000463cc       $SG95188                   101073cc     acl_fifo.obj
 0003:000463ec       $SG95191                   101073ec     acl_fifo.obj
 0003:0004640c       $SG95205                   1010740c     acl_fifo.obj
 0003:0004642c       $SG95208                   1010742c     acl_fifo.obj
 0003:0004644c       $SG95227                   1010744c     acl_fifo.obj
 0003:00046470       _crc64_table               10107470     acl_hash.obj
 0003:00046c70       $SG95234                   10107c70     acl_htable.obj
 0003:00046c94       $SG95235                   10107c94     acl_htable.obj
 0003:00046cb0       $SG95238                   10107cb0     acl_htable.obj
 0003:00046cd4       $SG96263                   10107cd4     acl_htable.obj
 0003:00046cec       $SG95239                   10107cec     acl_htable.obj
 0003:00046d0c       $SG96264                   10107d0c     acl_htable.obj
 0003:00046d30       $SG95241                   10107d30     acl_htable.obj
 0003:00046d54       $SG96269                   10107d54     acl_htable.obj
 0003:00046d64       $SG95246                   10107d64     acl_htable.obj
 0003:00046d88       $SG96273                   10107d88     acl_htable.obj
 0003:00046d90       $SG96274                   10107d90     acl_htable.obj
 0003:00046d94       $SG96275                   10107d94     acl_htable.obj
 0003:00046db4       $SG95251                   10107db4     acl_htable.obj
 0003:00046dd8       $SG95256                   10107dd8     acl_htable.obj
 0003:00046dfc       $SG96281                   10107dfc     acl_htable.obj
 0003:00046e20       $SG96282                   10107e20     acl_htable.obj
 0003:00046e3c       $SG95277                   10107e3c     acl_htable.obj
 0003:00046e60       $SG95284                   10107e60     acl_htable.obj
 0003:00046e84       $SG95291                   10107e84     acl_htable.obj
 0003:00046ea8       $SG95296                   10107ea8     acl_htable.obj
 0003:00046ecc       $SG95302                   10107ecc     acl_htable.obj
 0003:00046ef0       $SG95307                   10107ef0     acl_htable.obj
 0003:00046f14       $SG95318                   10107f14     acl_htable.obj
 0003:00046f24       $SG95358                   10107f24     acl_htable.obj
 0003:00046f3c       $SG95360                   10107f3c     acl_htable.obj
 0003:00046f4c       $SG95381                   10107f4c     acl_htable.obj
 0003:00046f60       $SG95390                   10107f60     acl_htable.obj
 0003:00046f84       $SG95392                   10107f84     acl_htable.obj
 0003:00046fa8       $SG95401                   10107fa8     acl_htable.obj
 0003:00046fcc       $SG95406                   10107fcc     acl_htable.obj
 0003:00046ff0       $SG95414                   10107ff0     acl_htable.obj
 0003:00047010       $SG95420                   10108010     acl_htable.obj
 0003:00047034       $SG95425                   10108034     acl_htable.obj
 0003:00047058       $SG95430                   10108058     acl_htable.obj
 0003:0004707c       $SG95434                   1010807c     acl_htable.obj
 0003:000470a0       $SG95437                   101080a0     acl_htable.obj
 0003:000470b4       $SG95443                   101080b4     acl_htable.obj
 0003:000470d8       $SG95448                   101080d8     acl_htable.obj
 0003:000470fc       $SG95454                   101080fc     acl_htable.obj
 0003:00047120       $SG95456                   10108120     acl_htable.obj
 0003:00047144       $SG95459                   10108144     acl_htable.obj
 0003:00047158       $SG95461                   10108158     acl_htable.obj
 0003:0004717c       $SG95466                   1010817c     acl_htable.obj
 0003:000471a0       $SG95473                   101081a0     acl_htable.obj
 0003:000471c4       $SG95478                   101081c4     acl_htable.obj
 0003:000471e8       $SG95488                   101081e8     acl_htable.obj
 0003:0004720c       $SG95493                   1010820c     acl_htable.obj
 0003:00047230       $SG95511                   10108230     acl_htable.obj
 0003:00047244       $SG95520                   10108244     acl_htable.obj
 0003:00047268       $SG95522                   10108268     acl_htable.obj
 0003:0004728c       $SG95529                   1010828c     acl_htable.obj
 0003:000472b0       $SG95530                   101082b0     acl_htable.obj
 0003:000472d0       $SG95538                   101082d0     acl_htable.obj
 0003:000472f4       $SG95539                   101082f4     acl_htable.obj
 0003:00047310       $SG95545                   10108310     acl_htable.obj
 0003:00047334       $SG95550                   10108334     acl_htable.obj
 0003:00047358       $SG95557                   10108358     acl_htable.obj
 0003:00047378       $SG95564                   10108378     acl_htable.obj
 0003:0004739c       $SG95565                   1010839c     acl_htable.obj
 0003:000473b8       $SG95571                   101083b8     acl_htable.obj
 0003:000473dc       $SG95576                   101083dc     acl_htable.obj
 0003:00047400       $SG95581                   10108400     acl_htable.obj
 0003:00047424       $SG95585                   10108424     acl_htable.obj
 0003:00047448       $SG95589                   10108448     acl_htable.obj
 0003:0004746c       $SG95591                   1010846c     acl_htable.obj
 0003:00047490       $SG95600                   10108490     acl_htable.obj
 0003:000474b4       $SG95601                   101084b4     acl_htable.obj
 0003:000474d0       $SG95607                   101084d0     acl_htable.obj
 0003:000474f4       $SG95612                   101084f4     acl_htable.obj
 0003:00047518       $SG95626                   10108518     acl_htable.obj
 0003:0004753c       $SG95628                   1010853c     acl_htable.obj
 0003:00047560       $SG95641                   10108560     acl_htable.obj
 0003:00047584       $SG95646                   10108584     acl_htable.obj
 0003:000475a8       $SG95654                   101085a8     acl_htable.obj
 0003:000475cc       $SG95659                   101085cc     acl_htable.obj
 0003:000475f0       $SG95670                   101085f0     acl_htable.obj
 0003:00047614       $SG95675                   10108614     acl_htable.obj
 0003:00047638       $SG95682                   10108638     acl_htable.obj
 0003:0004765c       $SG95687                   1010865c     acl_htable.obj
 0003:00047680       $SG95710                   10108680     acl_htable.obj
 0003:000476a4       $SG95712                   101086a4     acl_htable.obj
 0003:000476c8       $SG95719                   101086c8     acl_htable.obj
 0003:000476ec       $SG95720                   101086ec     acl_htable.obj
 0003:00047708       $SG95733                   10108708     acl_htable.obj
 0003:0004772c       $SG95734                   1010872c     acl_htable.obj
 0003:00047748       $SG95740                   10108748     acl_htable.obj
 0003:0004776c       $SG95745                   1010876c     acl_htable.obj
 0003:00047790       $SG95753                   10108790     acl_htable.obj
 0003:000477b4       $SG95754                   101087b4     acl_htable.obj
 0003:000477d0       $SG95760                   101087d0     acl_htable.obj
 0003:000477f4       $SG95765                   101087f4     acl_htable.obj
 0003:00047818       $SG95776                   10108818     acl_htable.obj
 0003:0004783c       $SG95777                   1010883c     acl_htable.obj
 0003:00047858       $SG95783                   10108858     acl_htable.obj
 0003:0004787c       $SG95788                   1010887c     acl_htable.obj
 0003:000478a0       $SG95795                   101088a0     acl_htable.obj
 0003:000478c4       $SG95796                   101088c4     acl_htable.obj
 0003:000478e0       $SG95802                   101088e0     acl_htable.obj
 0003:00047904       $SG95807                   10108904     acl_htable.obj
 0003:00047928       $SG95821                   10108928     acl_htable.obj
 0003:0004794c       $SG95823                   1010894c     acl_htable.obj
 0003:00047970       $SG95835                   10108970     acl_htable.obj
 0003:00047994       $SG95840                   10108994     acl_htable.obj
 0003:000479b8       $SG95847                   101089b8     acl_htable.obj
 0003:000479dc       $SG95852                   101089dc     acl_htable.obj
 0003:00047a00       $SG95875                   10108a00     acl_htable.obj
 0003:00047a24       $SG95877                   10108a24     acl_htable.obj
 0003:00047a48       $SG95884                   10108a48     acl_htable.obj
 0003:00047a6c       $SG95885                   10108a6c     acl_htable.obj
 0003:00047a88       $SG95897                   10108a88     acl_htable.obj
 0003:00047aac       $SG95898                   10108aac     acl_htable.obj
 0003:00047ac8       $SG95904                   10108ac8     acl_htable.obj
 0003:00047aec       $SG95909                   10108aec     acl_htable.obj
 0003:00047b10       $SG95916                   10108b10     acl_htable.obj
 0003:00047b34       $SG95917                   10108b34     acl_htable.obj
 0003:00047b50       $SG95923                   10108b50     acl_htable.obj
 0003:00047b74       $SG95928                   10108b74     acl_htable.obj
 0003:00047b98       $SG95946                   10108b98     acl_htable.obj
 0003:00047bbc       $SG95948                   10108bbc     acl_htable.obj
 0003:00047be0       $SG95955                   10108be0     acl_htable.obj
 0003:00047c04       $SG95956                   10108c04     acl_htable.obj
 0003:00047c24       $SG95967                   10108c24     acl_htable.obj
 0003:00047c48       $SG95972                   10108c48     acl_htable.obj
 0003:00047c6c       $SG95976                   10108c6c     acl_htable.obj
 0003:00047c90       $SG95981                   10108c90     acl_htable.obj
 0003:00047cb4       $SG95988                   10108cb4     acl_htable.obj
 0003:00047cd8       $SG95989                   10108cd8     acl_htable.obj
 0003:00047cf4       $SG95995                   10108cf4     acl_htable.obj
 0003:00047d18       $SG96000                   10108d18     acl_htable.obj
 0003:00047d3c       $SG96007                   10108d3c     acl_htable.obj
 0003:00047d60       $SG96008                   10108d60     acl_htable.obj
 0003:00047d7c       $SG96014                   10108d7c     acl_htable.obj
 0003:00047da0       $SG96019                   10108da0     acl_htable.obj
 0003:00047dc4       $SG96039                   10108dc4     acl_htable.obj
 0003:00047de8       $SG96044                   10108de8     acl_htable.obj
 0003:00047e0c       $SG96048                   10108e0c     acl_htable.obj
 0003:00047e30       $SG96053                   10108e30     acl_htable.obj
 0003:00047e54       $SG96056                   10108e54     acl_htable.obj
 0003:00047e78       $SG96061                   10108e78     acl_htable.obj
 0003:00047e9c       $SG96065                   10108e9c     acl_htable.obj
 0003:00047ec0       $SG96070                   10108ec0     acl_htable.obj
 0003:00047ee4       $SG96073                   10108ee4     acl_htable.obj
 0003:00047f08       $SG96078                   10108f08     acl_htable.obj
 0003:00047f2c       $SG96096                   10108f2c     acl_htable.obj
 0003:00047f50       $SG96097                   10108f50     acl_htable.obj
 0003:00047f70       $SG96106                   10108f70     acl_htable.obj
 0003:00047f94       $SG96111                   10108f94     acl_htable.obj
 0003:00047fb8       $SG96115                   10108fb8     acl_htable.obj
 0003:00047fdc       $SG96120                   10108fdc     acl_htable.obj
 0003:00048000       $SG96123                   10109000     acl_htable.obj
 0003:00048024       $SG96128                   10109024     acl_htable.obj
 0003:00048048       $SG96135                   10109048     acl_htable.obj
 0003:0004806c       $SG96136                   1010906c     acl_htable.obj
 0003:00048088       $SG96194                   10109088     acl_htable.obj
 0003:000480ac       $SG96195                   101090ac     acl_htable.obj
 0003:000480c8       $SG95176                   101090c8     acl_htable.obj
 0003:000480ec       $SG95180                   101090ec     acl_htable.obj
 0003:00048110       $SG96207                   10109110     acl_htable.obj
 0003:00048134       $SG96208                   10109134     acl_htable.obj
 0003:00048150       $SG95207                   10109150     acl_htable.obj
 0003:00048174       $SG96232                   10109174     acl_htable.obj
 0003:00048198       $SG95212                   10109198     acl_htable.obj
 0003:000481bc       $SG96241                   101091bc     acl_htable.obj
 0003:000481e0       $SG95221                   101091e0     acl_htable.obj
 0003:000481f4       $SG95228                   101091f4     acl_htable.obj
 0003:00048218       $SG96253                   10109218     acl_htable.obj
 0003:0004823c       $SG96254                   1010923c     acl_htable.obj
 0003:00048258       $SG96255                   10109258     acl_htable.obj
 0003:00048278       $SG95231                   10109278     acl_htable.obj
 0003:0004829c       $SG95128                   1010929c     acl_iplink.obj
 0003:000482b0       $SG95132                   101092b0     acl_iplink.obj
 0003:000482cc       $SG95135                   101092cc     acl_iplink.obj
 0003:000482e4       $SG95184                   101092e4     acl_iplink.obj
 0003:000482f0       $SG95202                   101092f0     acl_iplink.obj
 0003:000482fc       $SG95203                   101092fc     acl_iplink.obj
 0003:00048308       $SG95141                   10109308     acl_stack.obj
 0003:00048314       $SG95150                   10109314     acl_stack.obj
 0003:00048334       $SG95151                   10109334     acl_stack.obj
 0003:0004833c       $SG95155                   1010933c     acl_stack.obj
 0003:0004835c       $SG95156                   1010935c     acl_stack.obj
 0003:00048364       $SG95160                   10109364     acl_stack.obj
 0003:0004837c       $SG95172                   1010937c     acl_stack.obj
 0003:00048390       $SG95176                   10109390     acl_stack.obj
 0003:000483b0       $SG95180                   101093b0     acl_stack.obj
 0003:000483d0       $SG95195                   101093d0     acl_stack.obj
 0003:000483f0       $SG95204                   101093f0     acl_stack.obj
 0003:00048410       $SG95370                   10109410     acl_token_tree.obj
 0003:00048424       $SG95374                   10109424     acl_token_tree.obj
 0003:0004842c       $SG95381                   1010942c     acl_token_tree.obj
 0003:00048444       $SG95405                   10109444     acl_token_tree.obj
 0003:00048460       $SG95421                   10109460     acl_token_tree.obj
 0003:0004847c       $SG95428                   1010947c     acl_token_tree.obj
 0003:00048480       $SG95431                   10109480     acl_token_tree.obj
 0003:0004849c       $SG95450                   1010949c     acl_token_tree.obj
 0003:000484b8       $SG95457                   101094b8     acl_token_tree.obj
 0003:000484bc       $SG95460                   101094bc     acl_token_tree.obj
 0003:000484d8       $SG95486                   101094d8     acl_token_tree.obj
 0003:000484dc       $SG95487                   101094dc     acl_token_tree.obj
 0003:000484e0       $SG95488                   101094e0     acl_token_tree.obj
 0003:000484f0       $SG95506                   101094f0     acl_token_tree.obj
 0003:000484f4       $SG95509                   101094f4     acl_token_tree.obj
 0003:000484fc       $SG95510                   101094fc     acl_token_tree.obj
 0003:00048504       $SG95511                   10109504     acl_token_tree.obj
 0003:0004850c       $SG95512                   1010950c     acl_token_tree.obj
 0003:0004852c       $SG95514                   1010952c     acl_token_tree.obj
 0003:0004853c       $SG95525                   1010953c     acl_token_tree.obj
 0003:00048548       $SG95518                   10109548     acl_token_tree.obj
 0003:00048618       $SG95520                   10109618     acl_token_tree.obj
 0003:00048648       ?test1_tab@?1??acl_token_tree_test@@9@9 10109648     acl_token_tree.obj
 0003:00048698       $SG95523                   10109698     acl_token_tree.obj
 0003:000486a0       $SG95524                   101096a0     acl_token_tree.obj
 0003:000486a8       $SG95526                   101096a8     acl_token_tree.obj
 0003:000486b4       $SG95527                   101096b4     acl_token_tree.obj
 0003:000486c4       $SG95528                   101096c4     acl_token_tree.obj
 0003:000486d4       $SG95529                   101096d4     acl_token_tree.obj
 0003:000486e8       $SG95530                   101096e8     acl_token_tree.obj
 0003:00048700       $SG95531                   10109700     acl_token_tree.obj
 0003:00048720       $SG95532                   10109720     acl_token_tree.obj
 0003:00048728       $SG95533                   10109728     acl_token_tree.obj
 0003:00048734       $SG95534                   10109734     acl_token_tree.obj
 0003:00048740       $SG95535                   10109740     acl_token_tree.obj
 0003:00048750       $SG95536                   10109750     acl_token_tree.obj
 0003:0004875c       $SG95537                   1010975c     acl_token_tree.obj
 0003:00048768       $SG95538                   10109768     acl_token_tree.obj
 0003:00048778       $SG95539                   10109778     acl_token_tree.obj
 0003:00048780       $SG95540                   10109780     acl_token_tree.obj
 0003:0004878c       $SG95541                   1010978c     acl_token_tree.obj
 0003:0004879c       ?test2_tab@?1??acl_token_tree_test@@9@9 1010979c     acl_token_tree.obj
 0003:000487b0       $SG95545                   101097b0     acl_token_tree.obj
 0003:000487b8       $SG95546                   101097b8     acl_token_tree.obj
 0003:000487c0       $SG95547                   101097c0     acl_token_tree.obj
 0003:000487d0       $SG95548                   101097d0     acl_token_tree.obj
 0003:000487dc       ?test3_tab@?1??acl_token_tree_test@@9@9 101097dc     acl_token_tree.obj
 0003:000487f8       $SG95552                   101097f8     acl_token_tree.obj
 0003:00048808       $SG95553                   10109808     acl_token_tree.obj
 0003:00048810       $SG95554                   10109810     acl_token_tree.obj
 0003:00048818       $SG95555                   10109818     acl_token_tree.obj
 0003:00048824       $SG95556                   10109824     acl_token_tree.obj
 0003:00048830       $SG95557                   10109830     acl_token_tree.obj
 0003:0004883c       $SG95074                   1010983c     acl_token_tree.obj
 0003:00048864       $SG95086                   10109864     acl_token_tree.obj
 0003:0004888c       $SG95092                   1010988c     acl_token_tree.obj
 0003:000488b4       $SG95104                   101098b4     acl_token_tree.obj
 0003:000488dc       ?buf_key@?1??acl_token_name1@@9@9 101098dc     acl_token_tree.obj
 0003:000488e0       $SG95158                   101098e0     acl_token_tree.obj
 0003:000488f4       $SG95174                   101098f4     acl_token_tree.obj
 0003:00048910       $SG95165                   10109910     acl_token_tree.obj
 0003:00048954       $SG95187                   10109954     acl_token_tree.obj
 0003:00048970       $SG95196                   10109970     acl_token_tree.obj
 0003:000489b4       $SG95205                   101099b4     acl_token_tree.obj
 0003:000489d0       $SG95241                   101099d0     acl_loadcfg.obj
 0003:000489e4       $SG95258                   101099e4     acl_loadcfg.obj
 0003:000489fc       $SG95261                   101099fc     acl_loadcfg.obj
 0003:00048a24       $SG95270                   10109a24     acl_loadcfg.obj
 0003:00048a4c       $SG95281                   10109a4c     acl_loadcfg.obj
 0003:00048a74       $SG95285                   10109a74     acl_loadcfg.obj
 0003:00048a9c       $SG95288                   10109a9c     acl_loadcfg.obj
 0003:00048ad4       $SG95297                   10109ad4     acl_loadcfg.obj
 0003:00048afc       $SG95308                   10109afc     acl_loadcfg.obj
 0003:00048b24       $SG95313                   10109b24     acl_loadcfg.obj
 0003:00048b54       $SG95322                   10109b54     acl_loadcfg.obj
 0003:00048b7c       $SG95333                   10109b7c     acl_loadcfg.obj
 0003:00048ba4       $SG95337                   10109ba4     acl_loadcfg.obj
 0003:00048bcc       $SG95340                   10109bcc     acl_loadcfg.obj
 0003:00048bf8       $SG95349                   10109bf8     acl_loadcfg.obj
 0003:00048c20       $SG95360                   10109c20     acl_loadcfg.obj
 0003:00048c48       $SG95366                   10109c48     acl_loadcfg.obj
 0003:00048c70       $SG95375                   10109c70     acl_loadcfg.obj
 0003:00048c98       $SG95386                   10109c98     acl_loadcfg.obj
 0003:00048cc0       $SG95390                   10109cc0     acl_loadcfg.obj
 0003:00048ce8       $SG95399                   10109ce8     acl_loadcfg.obj
 0003:00048d10       $SG95410                   10109d10     acl_loadcfg.obj
 0003:00048d38       $SG95435                   10109d38     acl_loadcfg.obj
 0003:00048d60       $SG95446                   10109d60     acl_loadcfg.obj
 0003:00048d88       $SG95451                   10109d88     acl_loadcfg.obj
 0003:00048db8       $SG95460                   10109db8     acl_loadcfg.obj
 0003:00048de0       $SG95471                   10109de0     acl_loadcfg.obj
 0003:00048e08       $SG95490                   10109e08     acl_loadcfg.obj
 0003:00048e30       $SG95501                   10109e30     acl_loadcfg.obj
 0003:00048e58       $SG95506                   10109e58     acl_loadcfg.obj
 0003:00048e88       $SG95515                   10109e88     acl_loadcfg.obj
 0003:00048eb0       $SG95526                   10109eb0     acl_loadcfg.obj
 0003:00048ed8       $SG95546                   10109ed8     acl_loadcfg.obj
 0003:00048f00       $SG95557                   10109f00     acl_loadcfg.obj
 0003:00048f28       $SG95562                   10109f28     acl_loadcfg.obj
 0003:00048f58       $SG95571                   10109f58     acl_loadcfg.obj
 0003:00048f80       $SG95582                   10109f80     acl_loadcfg.obj
 0003:00048fa8       $SG95586                   10109fa8     acl_loadcfg.obj
 0003:00048fe0       $SG95595                   10109fe0     acl_loadcfg.obj
 0003:00049008       $SG95619                   1010a008     acl_loadcfg.obj
 0003:00049030       $SG95626                   1010a030     acl_loadcfg.obj
 0003:00049058       $SG95633                   1010a058     acl_loadcfg.obj
 0003:00049080       $SG95638                   1010a080     acl_loadcfg.obj
 0003:000490a8       $SG95648                   1010a0a8     acl_loadcfg.obj
 0003:000490d0       $SG95676                   1010a0d0     acl_loadcfg.obj
 0003:000490e8       $SG95701                   1010a0e8     acl_loadcfg.obj
 0003:00049110       $SG95703                   1010a110     acl_loadcfg.obj
 0003:00049138       $SG95706                   1010a138     acl_loadcfg.obj
 0003:00049158       $SG95719                   1010a158     acl_loadcfg.obj
 0003:00049180       $SG95721                   1010a180     acl_loadcfg.obj
 0003:000491a8       $SG95724                   1010a1a8     acl_loadcfg.obj
 0003:000491c8       $SG95750                   1010a1c8     acl_loadcfg.obj
 0003:000491d8       $SG95769                   1010a1d8     acl_loadcfg.obj
 0003:00049200       $SG95776                   1010a200     acl_loadcfg.obj
 0003:00049208       $SG95778                   1010a208     acl_loadcfg.obj
 0003:0004920c       $SG95779                   1010a20c     acl_loadcfg.obj
 0003:00049210       $SG95782                   1010a210     acl_loadcfg.obj
 0003:00049230       $SG95786                   1010a230     acl_loadcfg.obj
 0003:00049258       $SG95792                   1010a258     acl_loadcfg.obj
 0003:00049280       $SG95795                   1010a280     acl_loadcfg.obj
 0003:00049284       $SG95806                   1010a284     acl_loadcfg.obj
 0003:00049298       $SG95822                   1010a298     acl_loadcfg.obj
 0003:000492c0       $SG95854                   1010a2c0     acl_loadcfg.obj
 0003:000492d8       $SG95860                   1010a2d8     acl_loadcfg.obj
 0003:000492ec       $SG95865                   1010a2ec     acl_loadcfg.obj
 0003:00049310       $SG95868                   1010a310     acl_loadcfg.obj
 0003:00049340       $SG95878                   1010a340     acl_loadcfg.obj
 0003:00049358       $SG95889                   1010a358     acl_loadcfg.obj
 0003:0004936c       $SG95924                   1010a36c     acl_loadcfg.obj
 0003:00049394       $SG95930                   1010a394     acl_loadcfg.obj
 0003:000493bc       $SG95944                   1010a3bc     acl_loadcfg.obj
 0003:000493e4       $SG95955                   1010a3e4     acl_loadcfg.obj
 0003:0004940c       $SG95960                   1010a40c     acl_loadcfg.obj
 0003:00049434       $SG95965                   1010a434     acl_loadcfg.obj
 0003:0004945c       $SG95972                   1010a45c     acl_loadcfg.obj
 0003:00049484       $SG95986                   1010a484     acl_loadcfg.obj
 0003:000494ac       $SG95997                   1010a4ac     acl_loadcfg.obj
 0003:000494d4       $SG96002                   1010a4d4     acl_loadcfg.obj
 0003:000494fc       $SG96007                   1010a4fc     acl_loadcfg.obj
 0003:00049524       $SG95098                   1010a524     acl_loadcfg.obj
 0003:00049538       $SG95106                   1010a538     acl_loadcfg.obj
 0003:00049560       $SG95109                   1010a560     acl_loadcfg.obj
 0003:00049584       $SG95112                   1010a584     acl_loadcfg.obj
 0003:000495ac       $SG95115                   1010a5ac     acl_loadcfg.obj
 0003:000495c8       $SG95137                   1010a5c8     acl_loadcfg.obj
 0003:000495f0       $SG95146                   1010a5f0     acl_loadcfg.obj
 0003:00049618       $SG95158                   1010a618     acl_loadcfg.obj
 0003:00049640       $SG95163                   1010a640     acl_loadcfg.obj
 0003:00049668       $SG95177                   1010a668     acl_loadcfg.obj
 0003:00049690       $SG95182                   1010a690     acl_loadcfg.obj
 0003:000496b8       $SG95189                   1010a6b8     acl_loadcfg.obj
 0003:000496e0       $SG95201                   1010a6e0     acl_loadcfg.obj
 0003:00049708       $SG95206                   1010a708     acl_loadcfg.obj
 0003:00049730       $SG95226                   1010a730     acl_loadcfg.obj
 0003:00049758       $SG95231                   1010a758     acl_loadcfg.obj
 0003:00049780       $SG95258                   1010a780     acl_xinetd_cfg.obj
 0003:000497a8       $SG95264                   1010a7a8     acl_xinetd_cfg.obj
 0003:000497d0       $SG95268                   1010a7d0     acl_xinetd_cfg.obj
 0003:000497f8       $SG95269                   1010a7f8     acl_xinetd_cfg.obj
 0003:00049824       $SG95275                   1010a824     acl_xinetd_cfg.obj
 0003:00049838       $SG95278                   1010a838     acl_xinetd_cfg.obj
 0003:00049860       $SG95279                   1010a860     acl_xinetd_cfg.obj
 0003:00049878       $SG95284                   1010a878     acl_xinetd_cfg.obj
 0003:000498a0       $SG95290                   1010a8a0     acl_xinetd_cfg.obj
 0003:000498b4       $SG95301                   1010a8b4     acl_xinetd_cfg.obj
 0003:000498dc       $SG95302                   1010a8dc     acl_xinetd_cfg.obj
 0003:000498f4       $SG95307                   1010a8f4     acl_xinetd_cfg.obj
 0003:0004991c       $SG95314                   1010a91c     acl_xinetd_cfg.obj
 0003:00049944       $SG95319                   1010a944     acl_xinetd_cfg.obj
 0003:0004996c       $SG95322                   1010a96c     acl_xinetd_cfg.obj
 0003:00049994       $SG95323                   1010a994     acl_xinetd_cfg.obj
 0003:000499b4       $SG95328                   1010a9b4     acl_xinetd_cfg.obj
 0003:000499dc       $SG95335                   1010a9dc     acl_xinetd_cfg.obj
 0003:00049a04       $SG95340                   1010aa04     acl_xinetd_cfg.obj
 0003:00049a2c       $SG95341                   1010aa2c     acl_xinetd_cfg.obj
 0003:00049a58       $SG95346                   1010aa58     acl_xinetd_cfg.obj
 0003:00049a80       $SG95353                   1010aa80     acl_xinetd_cfg.obj
 0003:00049aa8       $SG95358                   1010aaa8     acl_xinetd_cfg.obj
 0003:00049ad0       $SG95359                   1010aad0     acl_xinetd_cfg.obj
 0003:00049af4       $SG95364                   1010aaf4     acl_xinetd_cfg.obj
 0003:00049b1c       $SG95371                   1010ab1c     acl_xinetd_cfg.obj
 0003:00049b44       $SG95384                   1010ab44     acl_xinetd_cfg.obj
 0003:00049b6c       $SG95391                   1010ab6c     acl_xinetd_cfg.obj
 0003:00049b94       $SG95398                   1010ab94     acl_xinetd_cfg.obj
 0003:00049bbc       $SG95406                   1010abbc     acl_xinetd_cfg.obj
 0003:00049bd0       $SG95415                   1010abd0     acl_xinetd_cfg.obj
 0003:00049bf8       $SG95416                   1010abf8     acl_xinetd_cfg.obj
 0003:00049c10       $SG95432                   1010ac10     acl_xinetd_cfg.obj
 0003:00049c24       $SG95441                   1010ac24     acl_xinetd_cfg.obj
 0003:00049c4c       $SG95442                   1010ac4c     acl_xinetd_cfg.obj
 0003:00049c64       $SG95084                   1010ac64     acl_xinetd_cfg.obj
 0003:00049c8c       $SG95090                   1010ac8c     acl_xinetd_cfg.obj
 0003:00049cb4       $SG95099                   1010acb4     acl_xinetd_cfg.obj
 0003:00049cc4       $SG95104                   1010acc4     acl_xinetd_cfg.obj
 0003:00049cec       $SG95108                   1010acec     acl_xinetd_cfg.obj
 0003:00049d14       $SG95116                   1010ad14     acl_xinetd_cfg.obj
 0003:00049d3c       $SG95122                   1010ad3c     acl_xinetd_cfg.obj
 0003:00049d64       $SG95124                   1010ad64     acl_xinetd_cfg.obj
 0003:00049d8c       $SG95132                   1010ad8c     acl_xinetd_cfg.obj
 0003:00049db4       $SG95138                   1010adb4     acl_xinetd_cfg.obj
 0003:00049ddc       $SG95147                   1010addc     acl_xinetd_cfg.obj
 0003:00049e04       $SG95153                   1010ae04     acl_xinetd_cfg.obj
 0003:00049e2c       $SG95157                   1010ae2c     acl_xinetd_cfg.obj
 0003:00049e54       $SG95158                   1010ae54     acl_xinetd_cfg.obj
 0003:00049e7c       $SG95164                   1010ae7c     acl_xinetd_cfg.obj
 0003:00049ea4       $SG95170                   1010aea4     acl_xinetd_cfg.obj
 0003:00049ecc       $SG95179                   1010aecc     acl_xinetd_cfg.obj
 0003:00049ee0       $SG95181                   1010aee0     acl_xinetd_cfg.obj
 0003:00049f08       $SG95189                   1010af08     acl_xinetd_cfg.obj
 0003:00049f30       $SG95191                   1010af30     acl_xinetd_cfg.obj
 0003:00049f58       $SG95192                   1010af58     acl_xinetd_cfg.obj
 0003:00049f7c       $SG95200                   1010af7c     acl_xinetd_cfg.obj
 0003:00049f90       $SG95092                   1010af90     acl_xinetd_params.obj
 0003:00049fbc       $SG95145                   1010afbc     acl_xinetd_params.obj
 0003:00049fe8       $SG95147                   1010afe8     acl_xinetd_params.obj
 0003:0004a014       $SG95839                   1010b014     acl_dir.obj
 0003:0004a01c       $SG95841                   1010b01c     acl_dir.obj
 0003:0004a020       $SG95242                   1010b020     acl_fhandle.obj
 0003:0004a04c       $SG95256                   1010b04c     acl_fhandle.obj
 0003:0004a07c       $SG95259                   1010b07c     acl_fhandle.obj
 0003:0004a0a4       $SG95265                   1010b0a4     acl_fhandle.obj
 0003:0004a0bc       $SG95270                   1010b0bc     acl_fhandle.obj
 0003:0004a0d0       $SG95273                   1010b0d0     acl_fhandle.obj
 0003:0004a0f4       $SG95276                   1010b0f4     acl_fhandle.obj
 0003:0004a110       $SG95281                   1010b110     acl_fhandle.obj
 0003:0004a124       $SG95284                   1010b124     acl_fhandle.obj
 0003:0004a14c       $SG95287                   1010b14c     acl_fhandle.obj
 0003:0004a174       $SG95291                   1010b174     acl_fhandle.obj
 0003:0004a194       $SG95293                   1010b194     acl_fhandle.obj
 0003:0004a1b8       $SG95302                   1010b1b8     acl_fhandle.obj
 0003:0004a1cc       $SG95305                   1010b1cc     acl_fhandle.obj
 0003:0004a1f0       $SG95312                   1010b1f0     acl_fhandle.obj
 0003:0004a204       $SG95314                   1010b204     acl_fhandle.obj
 0003:0004a224       $SG95317                   1010b224     acl_fhandle.obj
 0003:0004a24c       $SG95320                   1010b24c     acl_fhandle.obj
 0003:0004a25c       $SG95321                   1010b25c     acl_fhandle.obj
 0003:0004a280       $SG95324                   1010b280     acl_fhandle.obj
 0003:0004a2a0       ___cache_max_size          1010b2a0     acl_fhandle.obj
 0003:0004a2a4       $SG95082                   1010b2a4     acl_fhandle.obj
 0003:0004a2b4       $SG95089                   1010b2b4     acl_fhandle.obj
 0003:0004a2e0       $SG95091                   1010b2e0     acl_fhandle.obj
 0003:0004a304       $SG95103                   1010b304     acl_fhandle.obj
 0003:0004a328       $SG95122                   1010b328     acl_fhandle.obj
 0003:0004a33c       $SG95131                   1010b33c     acl_fhandle.obj
 0003:0004a354       $SG95140                   1010b354     acl_fhandle.obj
 0003:0004a36c       $SG95147                   1010b36c     acl_fhandle.obj
 0003:0004a370       $SG95155                   1010b370     acl_fhandle.obj
 0003:0004a388       $SG95156                   1010b388     acl_fhandle.obj
 0003:0004a3a4       $SG95164                   1010b3a4     acl_fhandle.obj
 0003:0004a3bc       $SG95165                   1010b3bc     acl_fhandle.obj
 0003:0004a3dc       $SG95170                   1010b3dc     acl_fhandle.obj
 0003:0004a400       $SG95176                   1010b400     acl_fhandle.obj
 0003:0004a418       $SG95180                   1010b418     acl_fhandle.obj
 0003:0004a444       $SG95186                   1010b444     acl_fhandle.obj
 0003:0004a45c       $SG95193                   1010b45c     acl_fhandle.obj
 0003:0004a46c       $SG95195                   1010b46c     acl_fhandle.obj
 0003:0004a480       $SG95205                   1010b480     acl_fhandle.obj
 0003:0004a494       $SG95215                   1010b494     acl_fhandle.obj
 0003:0004a4ac       $SG95225                   1010b4ac     acl_fhandle.obj
 0003:0004a4c4       $SG95149                   1010b4c4     acl_make_dirs.obj
 0003:0004a4d4       $SG95156                   1010b4d4     acl_make_dirs.obj
 0003:0004a4fc       $SG95164                   1010b4fc     acl_make_dirs.obj
 0003:0004a518       $SG95196                   1010b518     acl_make_dirs.obj
 0003:0004a540       $SG95074                   1010b540     acl_sane_basename.obj
 0003:0004a554       $SG95078                   1010b554     acl_sane_basename.obj
 0003:0004a564       $SG95083                   1010b564     acl_sane_basename.obj
 0003:0004a568       $SG95090                   1010b568     acl_sane_basename.obj
 0003:0004a56c       $SG95101                   1010b56c     acl_sane_basename.obj
 0003:0004a580       $SG95104                   1010b580     acl_sane_basename.obj
 0003:0004a590       $SG95109                   1010b590     acl_sane_basename.obj
 0003:0004a594       $SG95116                   1010b594     acl_sane_basename.obj
 0003:0004a598       $SG95122                   1010b598     acl_sane_basename.obj
 0003:0004a59c       $SG95305                   1010b59c     acl_scan_dir.obj
 0003:0004a5b0       $SG95308                   1010b5b0     acl_scan_dir.obj
 0003:0004a5d4       $SG95311                   1010b5d4     acl_scan_dir.obj
 0003:0004a5d8       $SG95313                   1010b5d8     acl_scan_dir.obj
 0003:0004a5fc       $SG95316                   1010b5fc     acl_scan_dir.obj
 0003:0004a620       $SG95317                   1010b620     acl_scan_dir.obj
 0003:0004a64c       $SG95319                   1010b64c     acl_scan_dir.obj
 0003:0004a658       $SG95324                   1010b658     acl_scan_dir.obj
 0003:0004a66c       $SG95332                   1010b66c     acl_scan_dir.obj
 0003:0004a690       $SG95333                   1010b690     acl_scan_dir.obj
 0003:0004a6bc       $SG95335                   1010b6bc     acl_scan_dir.obj
 0003:0004a6cc       $SG95339                   1010b6cc     acl_scan_dir.obj
 0003:0004a6f0       $SG95344                   1010b6f0     acl_scan_dir.obj
 0003:0004a714       $SG95351                   1010b714     acl_scan_dir.obj
 0003:0004a728       $SG95362                   1010b728     acl_scan_dir.obj
 0003:0004a72c       $SG95363                   1010b72c     acl_scan_dir.obj
 0003:0004a730       $SG95365                   1010b730     acl_scan_dir.obj
 0003:0004a73c       $SG95367                   1010b73c     acl_scan_dir.obj
 0003:0004a74c       $SG95373                   1010b74c     acl_scan_dir.obj
 0003:0004a764       $SG95384                   1010b764     acl_scan_dir.obj
 0003:0004a76c       $SG95387                   1010b76c     acl_scan_dir.obj
 0003:0004a790       $SG95388                   1010b790     acl_scan_dir.obj
 0003:0004a7b4       $SG95398                   1010b7b4     acl_scan_dir.obj
 0003:0004a7c8       $SG95411                   1010b7c8     acl_scan_dir.obj
 0003:0004a7d0       $SG95414                   1010b7d0     acl_scan_dir.obj
 0003:0004a7f4       $SG95415                   1010b7f4     acl_scan_dir.obj
 0003:0004a818       $SG95448                   1010b818     acl_scan_dir.obj
 0003:0004a82c       $SG95459                   1010b82c     acl_scan_dir.obj
 0003:0004a830       $SG95465                   1010b830     acl_scan_dir.obj
 0003:0004a838       $SG95468                   1010b838     acl_scan_dir.obj
 0003:0004a85c       $SG95469                   1010b85c     acl_scan_dir.obj
 0003:0004a880       $SG95491                   1010b880     acl_scan_dir.obj
 0003:0004a894       $SG95499                   1010b894     acl_scan_dir.obj
 0003:0004a8b8       $SG95500                   1010b8b8     acl_scan_dir.obj
 0003:0004a8e0       $SG95505                   1010b8e0     acl_scan_dir.obj
 0003:0004a904       $SG95506                   1010b904     acl_scan_dir.obj
 0003:0004a928       $SG95187                   1010b928     acl_scan_dir.obj
 0003:0004a94c       $SG95199                   1010b94c     acl_scan_dir.obj
 0003:0004a970       $SG95072                   1010b970     acl_dll.obj
 0003:0004a97c       $SG95076                   1010b97c     acl_dll.obj
 0003:0004a998       $SG95092                   1010b998     acl_env.obj
 0003:0004a9ac       $SG95097                   1010b9ac     acl_env.obj
 0003:0004a9b8       ?buf_key@?1??acl_getenv@@9@9 1010b9b8     acl_env.obj
 0003:0004a9bc       $SG95105                   1010b9bc     acl_env.obj
 0003:0004a9e4       $SG95108                   1010b9e4     acl_env.obj
 0003:0004aa00       $SG95137                   1010ba00     acl_env.obj
 0003:0004aa0c       $SG95139                   1010ba0c     acl_env.obj
 0003:0004aa10       $SG95141                   1010ba10     acl_env.obj
 0003:0004aa2c       $SG95143                   1010ba2c     acl_env.obj
 0003:0004aa50       $SG95151                   1010ba50     acl_env.obj
 0003:0004aa60       ?buf_key@?1??acl_getenv_list@@9@9 1010ba60     acl_env.obj
 0003:0004aa64       $SG95163                   1010ba64     acl_env.obj
 0003:0004aa8c       $SG95173                   1010ba8c     acl_env.obj
 0003:0004aa90       ?ok_chars@?1??acl_exec_command@@9@9 1010ba90     acl_exec_command.obj
 0003:0004aadc       $SG95075                   1010badc     acl_exec_command.obj
 0003:0004aae0       $SG95079                   1010bae0     acl_exec_command.obj
 0003:0004aaf0       $SG95082                   1010baf0     acl_exec_command.obj
 0003:0004ab00       $SG95072                   1010bb00     acl_process.obj
 0003:0004ab0c       ?buf_key@?1??get_tls_buf@@9@9 1010bb0c     acl_process.obj
 0003:0004ab10       $SG95083                   1010bb10     acl_process.obj
 0003:0004ab48       $SG95086                   1010bb48     acl_process.obj
 0003:0004ab68       $SG95165                   1010bb68     acl_process.obj
 0003:0004ab7c       $SG95170                   1010bb7c     acl_process.obj
 0003:0004ab98       $SG95174                   1010bb98     acl_process.obj
 0003:0004aba4       $SG95179                   1010bba4     acl_process.obj
 0003:0004abc0       $SG95115                   1010bbc0     acl_sys_file.obj
 0003:0004abcc       $SG95124                   1010bbcc     acl_sys_file.obj
 0003:0004abe8       $SG95073                   1010bbe8     acl_sys_socket.obj
 0003:0004abf8       $SG95078                   1010bbf8     acl_sys_socket.obj
 0003:0004ac10       $SG95087                   1010bc10     acl_sys_socket.obj
 0003:0004ac30       $SG95098                   1010bc30     acl_sys_socket.obj
 0003:0004ac70       $SG95102                   1010bc70     acl_sys_socket.obj
 0003:0004ac80       $SG95105                   1010bc80     acl_sys_socket.obj
 0003:0004ac98       $SG95107                   1010bc98     acl_sys_socket.obj
 0003:0004acb8       $SG95079                   1010bcb8     gettimeofday.obj
 0003:0004acd8       $SG95090                   1010bcd8     gettimeofday.obj
 0003:0004acf8       $SG95110                   1010bcf8     gettimeofday.obj
 0003:0004ad18       $SG95135                   1010bd18     gettimeofday.obj
 0003:0004ad38       $SG95136                   1010bd38     gettimeofday.obj
 0003:0004ad64       $SG95140                   1010bd64     gettimeofday.obj
 0003:0004ad84       $SG95141                   1010bd84     gettimeofday.obj
 0003:0004adac       $SG95144                   1010bdac     gettimeofday.obj
 0003:0004adcc       $SG95145                   1010bdcc     gettimeofday.obj
 0003:0004adf4       $SG95090                   1010bdf4     acl_concatenate.obj
 0003:0004ae1c       $SG95084                   1010be1c     acl_split_nameval.obj
 0003:0004ae34       $SG95094                   1010be34     acl_split_nameval.obj
 0003:0004ae58       $SG95075                   1010be58     acl_str2time.obj
 0003:0004ae68       _maptolower                1010be68     strcasecmp.obj
 0003:0004af68       _maptolower                1010bf68     strcasestr.obj
 0003:0004b068       $SG95232                   1010c068     acl_allocator.obj
 0003:0004b078       $SG95233                   1010c078     acl_allocator.obj
 0003:0004b08c       $SG95239                   1010c08c     acl_allocator.obj
 0003:0004b0a4       $SG95240                   1010c0a4     acl_allocator.obj
 0003:0004b0b8       $SG95246                   1010c0b8     acl_allocator.obj
 0003:0004b0dc       $SG95256                   1010c0dc     acl_allocator.obj
 0003:0004b0f0       $SG95292                   1010c0f0     acl_allocator.obj
 0003:0004b100       $SG95310                   1010c100     acl_allocator.obj
 0003:0004b124       $SG95335                   1010c124     acl_allocator.obj
 0003:0004b13c       $SG95341                   1010c13c     acl_allocator.obj
 0003:0004b160       $SG95348                   1010c160     acl_allocator.obj
 0003:0004b17c       $SG95355                   1010c17c     acl_allocator.obj
 0003:0004b190       $SG95369                   1010c190     acl_allocator.obj
 0003:0004b1a8       $SG95375                   1010c1a8     acl_allocator.obj
 0003:0004b1cc       $SG95384                   1010c1cc     acl_allocator.obj
 0003:0004b1e4       $SG95390                   1010c1e4     acl_allocator.obj
 0003:0004b208       $SG95488                   1010c208     acl_allocator.obj
 0003:0004b224       $SG95493                   1010c224     acl_allocator.obj
 0003:0004b248       $SG95500                   1010c248     acl_allocator.obj
 0003:0004b268       $SG95505                   1010c268     acl_allocator.obj
 0003:0004b28c       $SG95512                   1010c28c     acl_allocator.obj
 0003:0004b2ac       $SG95517                   1010c2ac     acl_allocator.obj
 0003:0004b2d0       ___min_gross_size          1010c2d0     acl_allocator.obj
 0003:0004b2d4       ___max_gross_size          1010c2d4     acl_allocator.obj
 0003:0004b2d8       $SG95175                   1010c2d8     acl_allocator.obj
 0003:0004b2e4       $SG95176                   1010c2e4     acl_allocator.obj
 0003:0004b2f8       $SG95183                   1010c2f8     acl_allocator.obj
 0003:0004b308       $SG95184                   1010c308     acl_allocator.obj
 0003:0004b31c       $SG95190                   1010c31c     acl_allocator.obj
 0003:0004b328       $SG95191                   1010c328     acl_allocator.obj
 0003:0004b33c       $SG95199                   1010c33c     acl_allocator.obj
 0003:0004b348       $SG95200                   1010c348     acl_allocator.obj
 0003:0004b35c       $SG95211                   1010c35c     acl_allocator.obj
 0003:0004b368       $SG95212                   1010c368     acl_allocator.obj
 0003:0004b37c       $SG95218                   1010c37c     acl_allocator.obj
 0003:0004b388       $SG95219                   1010c388     acl_allocator.obj
 0003:0004b39c       $SG95225                   1010c39c     acl_allocator.obj
 0003:0004b3b0       $SG95226                   1010c3b0     acl_allocator.obj
 0003:0004b3c4       $SG95233                   1010c3c4     acl_dbuf_pool.obj
 0003:0004b3e0       $SG95081                   1010c3e0     acl_dbuf_pool.obj
 0003:0004b404       $SG95100                   1010c404     acl_dbuf_pool.obj
 0003:0004b428       $SG95105                   1010c428     acl_dbuf_pool.obj
 0003:0004b44c       $SG95110                   1010c44c     acl_dbuf_pool.obj
 0003:0004b470       $SG95121                   1010c470     acl_dbuf_pool.obj
 0003:0004b494       $SG95124                   1010c494     acl_dbuf_pool.obj
 0003:0004b4b8       $SG95136                   1010c4b8     acl_dbuf_pool.obj
 0003:0004b4dc       $SG95141                   1010c4dc     acl_dbuf_pool.obj
 0003:0004b500       $SG95213                   1010c500     acl_dbuf_pool.obj
 0003:0004b518       $SG95247                   1010c518     acl_default_malloc.obj
 0003:0004b530       $SG95250                   1010c530     acl_default_malloc.obj
 0003:0004b54c       $SG95257                   1010c54c     acl_default_malloc.obj
 0003:0004b588       $SG95259                   1010c588     acl_default_malloc.obj
 0003:0004b5ac       $SG95269                   1010c5ac     acl_default_malloc.obj
 0003:0004b5c0       $SG95283                   1010c5c0     acl_default_malloc.obj
 0003:0004b5e4       $SG95296                   1010c5e4     acl_default_malloc.obj
 0003:0004b5f8       $SG95312                   1010c5f8     acl_default_malloc.obj
 0003:0004b61c       $SG95326                   1010c61c     acl_default_malloc.obj
 0003:0004b630       $SG95340                   1010c630     acl_default_malloc.obj
 0003:0004b654       ___FILENAME_UNKNOWN        1010c654     acl_default_malloc.obj
 0003:0004b664       $SG95104                   1010c664     acl_default_malloc.obj
 0003:0004b680       $SG95111                   1010c680     acl_default_malloc.obj
 0003:0004b6bc       $SG95113                   1010c6bc     acl_default_malloc.obj
 0003:0004b6e0       $SG95126                   1010c6e0     acl_default_malloc.obj
 0003:0004b6f4       $SG95144                   1010c6f4     acl_default_malloc.obj
 0003:0004b728       $SG95149                   1010c728     acl_default_malloc.obj
 0003:0004b744       $SG95153                   1010c744     acl_default_malloc.obj
 0003:0004b764       $SG95156                   1010c764     acl_default_malloc.obj
 0003:0004b790       $SG95178                   1010c790     acl_default_malloc.obj
 0003:0004b7a4       $SG95197                   1010c7a4     acl_default_malloc.obj
 0003:0004b7d0       $SG95199                   1010c7d0     acl_default_malloc.obj
 0003:0004b7ec       $SG95206                   1010c7ec     acl_default_malloc.obj
 0003:0004b828       $SG95208                   1010c828     acl_default_malloc.obj
 0003:0004b84c       $SG95213                   1010c84c     acl_default_malloc.obj
 0003:0004b868       $SG95217                   1010c868     acl_default_malloc.obj
 0003:0004b888       $SG95221                   1010c888     acl_default_malloc.obj
 0003:0004b8b8       $SG95230                   1010c8b8     acl_default_malloc.obj
 0003:0004b8cc       $SG95239                   1010c8cc     acl_malloc_glue.obj
 0003:0004b8e8       $SG95256                   1010c8e8     acl_malloc_glue.obj
 0003:0004b904       $SG95271                   1010c904     acl_malloc_glue.obj
 0003:0004b920       $SG95284                   1010c920     acl_malloc_glue.obj
 0003:0004b938       $SG95292                   1010c938     acl_malloc_glue.obj
 0003:0004b940       $SG95293                   1010c940     acl_malloc_glue.obj
 0003:0004b948       ___alloc_max               1010c948     acl_malloc_glue.obj
 0003:0004b94c       $SG95122                   1010c94c     acl_malloc_glue.obj
 0003:0004b98c       $SG95128                   1010c98c     acl_malloc_glue.obj
 0003:0004b998       $SG95133                   1010c998     acl_malloc_glue.obj
 0003:0004b9bc       $SG95134                   1010c9bc     acl_malloc_glue.obj
 0003:0004b9fc       $SG95135                   1010c9fc     acl_malloc_glue.obj
 0003:0004ba1c       $SG95136                   1010ca1c     acl_malloc_glue.obj
 0003:0004ba3c       $SG95137                   1010ca3c     acl_malloc_glue.obj
 0003:0004ba5c       $SG95138                   1010ca5c     acl_malloc_glue.obj
 0003:0004ba7c       $SG95139                   1010ca7c     acl_malloc_glue.obj
 0003:0004ba9c       $SG95140                   1010ca9c     acl_malloc_glue.obj
 0003:0004babc       $SG95141                   1010cabc     acl_malloc_glue.obj
 0003:0004bad8       $SG95143                   1010cad8     acl_malloc_glue.obj
 0003:0004baf0       $SG95144                   1010caf0     acl_malloc_glue.obj
 0003:0004bb24       $SG95145                   1010cb24     acl_malloc_glue.obj
 0003:0004bb80       $SG95192                   1010cb80     acl_malloc_glue.obj
 0003:0004bb9c       $SG95207                   1010cb9c     acl_malloc_glue.obj
 0003:0004bbb8       $SG95225                   1010cbb8     acl_malloc_glue.obj
 0003:0004bbd4       $SG95142                   1010cbd4     acl_mem_hook.obj
 0003:0004bbe4       $SG95145                   1010cbe4     acl_mem_hook.obj
 0003:0004bc00       $SG95149                   1010cc00     acl_mem_hook.obj
 0003:0004bc1c       $SG95153                   1010cc1c     acl_mem_hook.obj
 0003:0004bc38       $SG95157                   1010cc38     acl_mem_hook.obj
 0003:0004bc54       $SG95161                   1010cc54     acl_mem_hook.obj
 0003:0004bc70       $SG95165                   1010cc70     acl_mem_hook.obj
 0003:0004bc8c       $SG95169                   1010cc8c     acl_mem_hook.obj
 0003:0004bca8       $SG95260                   1010cca8     acl_mem_slice.obj
 0003:0004bcc0       $SG95265                   1010ccc0     acl_mem_slice.obj
 0003:0004bd18       $SG95270                   1010cd18     acl_mem_slice.obj
 0003:0004bd3c       $SG95273                   1010cd3c     acl_mem_slice.obj
 0003:0004bd64       $SG95280                   1010cd64     acl_mem_slice.obj
 0003:0004bd94       $SG95292                   1010cd94     acl_mem_slice.obj
 0003:0004bdb0       $SG95299                   1010cdb0     acl_mem_slice.obj
 0003:0004bdfc       $SG95301                   1010cdfc     acl_mem_slice.obj
 0003:0004be20       $SG95318                   1010ce20     acl_mem_slice.obj
 0003:0004be30       $SG95330                   1010ce30     acl_mem_slice.obj
 0003:0004be54       $SG95357                   1010ce54     acl_mem_slice.obj
 0003:0004be70       $SG95364                   1010ce70     acl_mem_slice.obj
 0003:0004bebc       $SG95366                   1010cebc     acl_mem_slice.obj
 0003:0004bee0       $SG95426                   1010cee0     acl_mem_slice.obj
 0003:0004bf04       $SG95444                   1010cf04     acl_mem_slice.obj
 0003:0004bf20       $SG95458                   1010cf20     acl_mem_slice.obj
 0003:0004bf48       $SG95462                   1010cf48     acl_mem_slice.obj
 0003:0004bf6c       $SG95474                   1010cf6c     acl_mem_slice.obj
 0003:0004bf80       $SG95478                   1010cf80     acl_mem_slice.obj
 0003:0004bf98       $SG95485                   1010cf98     acl_mem_slice.obj
 0003:0004bfb0       $SG95488                   1010cfb0     acl_mem_slice.obj
 0003:0004bfd0       $SG95491                   1010cfd0     acl_mem_slice.obj
 0003:0004bff4       $SG95492                   1010cff4     acl_mem_slice.obj
 0003:0004c018       $SG95497                   1010d018     acl_mem_slice.obj
 0003:0004c02c       $SG95503                   1010d02c     acl_mem_slice.obj
 0003:0004c050       ___mem_slice_key           1010d050     acl_mem_slice.obj
 0003:0004c054       ___mem_base                1010d054     acl_mem_slice.obj
 0003:0004c058       ___mem_nslice              1010d058     acl_mem_slice.obj
 0003:0004c05c       ___mem_nalloc_gc           1010d05c     acl_mem_slice.obj
 0003:0004c060       ___mem_list_init_size      1010d060     acl_mem_slice.obj
 0003:0004c064       ___mem_slice_flag          1010d064     acl_mem_slice.obj
 0003:0004c068       $SG95211                   1010d068     acl_mem_slice.obj
 0003:0004c078       $SG95215                   1010d078     acl_mem_slice.obj
 0003:0004c090       $SG95217                   1010d090     acl_mem_slice.obj
 0003:0004c0d0       $SG95221                   1010d0d0     acl_mem_slice.obj
 0003:0004c0f8       $SG95227                   1010d0f8     acl_mem_slice.obj
 0003:0004c11c       $SG95296                   1010d11c     acl_mempool.obj
 0003:0004c12c       $SG95301                   1010d12c     acl_mempool.obj
 0003:0004c154       $SG95339                   1010d154     acl_mempool.obj
 0003:0004c168       $SG95281                   1010d168     acl_slice.obj
 0003:0004c188       $SG95282                   1010d188     acl_slice.obj
 0003:0004c1a8       $SG95291                   1010d1a8     acl_slice.obj
 0003:0004c1b4       $SG95468                   1010d1b4     acl_slice.obj
 0003:0004c1f0       $SG95303                   1010d1f0     acl_slice.obj
 0003:0004c234       $SG95355                   1010d234     acl_slice.obj
 0003:0004c254       $SG95356                   1010d254     acl_slice.obj
 0003:0004c274       $SG95382                   1010d274     acl_slice.obj
 0003:0004c294       $SG95391                   1010d294     acl_slice.obj
 0003:0004c2b4       $SG95396                   1010d2b4     acl_slice.obj
 0003:0004c2d4       $SG95410                   1010d2d4     acl_slice.obj
 0003:0004c2f4       $SG95424                   1010d2f4     acl_slice.obj
 0003:0004c314       $SG95429                   1010d314     acl_slice.obj
 0003:0004c334       $SG95447                   1010d334     acl_slice.obj
 0003:0004c344       $SG95458                   1010d344     acl_slice.obj
 0003:0004c35c       $SG95461                   1010d35c     acl_slice.obj
 0003:0004c374       $SG95477                   1010d374     acl_slice.obj
 0003:0004c388       $SG95467                   1010d388     acl_slice.obj
 0003:0004c408       $SG95487                   1010d408     acl_slice.obj
 0003:0004c444       $SG95494                   1010d444     acl_slice.obj
 0003:0004c468       $SG95506                   1010d468     acl_slice.obj
 0003:0004c488       $SG95514                   1010d488     acl_slice.obj
 0003:0004c494       $SG95524                   1010d494     acl_slice.obj
 0003:0004c4ac       $SG95530                   1010d4ac     acl_slice.obj
 0003:0004c4c0       $SG95527                   1010d4c0     acl_slice.obj
 0003:0004c504       $SG95532                   1010d504     acl_slice.obj
 0003:0004c520       $SG95541                   1010d520     acl_slice.obj
 0003:0004c540       $SG95546                   1010d540     acl_slice.obj
 0003:0004c560       $SG95551                   1010d560     acl_slice.obj
 0003:0004c57c       $SG95602                   1010d57c     acl_slice.obj
 0003:0004c59c       $SG95604                   1010d59c     acl_slice.obj
 0003:0004c5bc       $SG95605                   1010d5bc     acl_slice.obj
 0003:0004c5dc       $SG95625                   1010d5dc     acl_slice.obj
 0003:0004c5fc       $SG95643                   1010d5fc     acl_slice.obj
 0003:0004c61c       $SG95648                   1010d61c     acl_slice.obj
 0003:0004c63c       $SG95663                   1010d63c     acl_slice.obj
 0003:0004c65c       $SG95668                   1010d65c     acl_slice.obj
 0003:0004c67c       $SG95701                   1010d67c     acl_slice.obj
 0003:0004c69c       $SG95706                   1010d69c     acl_slice.obj
 0003:0004c6bc       $SG95714                   1010d6bc     acl_slice.obj
 0003:0004c6d0       $SG95736                   1010d6d0     acl_slice.obj
 0003:0004c6f0       $SG95737                   1010d6f0     acl_slice.obj
 0003:0004c710       $SG95739                   1010d710     acl_slice.obj
 0003:0004c72c       $SG95761                   1010d72c     acl_slice.obj
 0003:0004c738       $SG95783                   1010d738     acl_slice.obj
 0003:0004c74c       $SG95800                   1010d74c     acl_slice.obj
 0003:0004c76c       $SG95801                   1010d76c     acl_slice.obj
 0003:0004c78c       $SG95803                   1010d78c     acl_slice.obj
 0003:0004c7ac       $SG95804                   1010d7ac     acl_slice.obj
 0003:0004c7cc       $SG95810                   1010d7cc     acl_slice.obj
 0003:0004c7d8       $SG95811                   1010d7d8     acl_slice.obj
 0003:0004c7f4       $SG95831                   1010d7f4     acl_slice.obj
 0003:0004c814       $SG95859                   1010d814     acl_slice.obj
 0003:0004c828       $SG95869                   1010d828     acl_slice.obj
 0003:0004c874       $SG95877                   1010d874     acl_slice.obj
 0003:0004c888       $SG95879                   1010d888     acl_slice.obj
 0003:0004c88c       $SG95903                   1010d88c     acl_slice.obj
 0003:0004c89c       $SG95910                   1010d89c     acl_slice.obj
 0003:0004c8b4       $SG95927                   1010d8b4     acl_slice.obj
 0003:0004c8c8       $SG95967                   1010d8c8     acl_slice.obj
 0003:0004c8e8       $SG95970                   1010d8e8     acl_slice.obj
 0003:0004c908       $SG95978                   1010d908     acl_slice.obj
 0003:0004c928       $SG95979                   1010d928     acl_slice.obj
 0003:0004c948       $SG95169                   1010d948     acl_slice.obj
 0003:0004c968       $SG95179                   1010d968     acl_slice.obj
 0003:0004c988       $SG95184                   1010d988     acl_slice.obj
 0003:0004c9a8       $SG95206                   1010d9a8     acl_slice.obj
 0003:0004c9c8       $SG95211                   1010d9c8     acl_slice.obj
 0003:0004c9e8       $SG95128                   1010d9e8     mem_pool.obj
 0003:0004c9f4       $SG95132                   1010d9f4     mem_pool.obj
 0003:0004ca00       $SG95136                   1010da00     mem_pool.obj
 0003:0004ca0c       $SG95140                   1010da0c     mem_pool.obj
 0003:0004ca18       $SG95144                   1010da18     mem_pool.obj
 0003:0004ca24       $SG95148                   1010da24     mem_pool.obj
 0003:0004ca30       $SG95152                   1010da30     mem_pool.obj
 0003:0004ca3c       $SG95156                   1010da3c     mem_pool.obj
 0003:0004ca48       $SG95160                   1010da48     mem_pool.obj
 0003:0004ca54       $SG95164                   1010da54     mem_pool.obj
 0003:0004ca60       $SG95168                   1010da60     mem_pool.obj
 0003:0004ca6c       $SG95172                   1010da6c     mem_pool.obj
 0003:0004ca78       $SG95176                   1010da78     mem_pool.obj
 0003:0004ca84       $SG95180                   1010da84     mem_pool.obj
 0003:0004ca90       $SG95184                   1010da90     mem_pool.obj
 0003:0004ca9c       $SG95188                   1010da9c     mem_pool.obj
 0003:0004caa8       $SG95192                   1010daa8     mem_pool.obj
 0003:0004cab4       $SG95196                   1010dab4     mem_pool.obj
 0003:0004cac0       $SG95257                   1010dac0     squid_allocator.obj
 0003:0004caec       $SG95268                   1010daec     squid_allocator.obj
 0003:0004cb18       $SG95288                   1010db18     squid_allocator.obj
 0003:0004cb40       $SG95303                   1010db40     squid_allocator.obj
 0003:0004cb64       $SG95315                   1010db64     squid_allocator.obj
 0003:0004cb8c       $SG95328                   1010db8c     squid_allocator.obj
 0003:0004cbb4       $SG95329                   1010dbb4     squid_allocator.obj
 0003:0004cbdc       $SG95378                   1010dbdc     squid_allocator.obj
 0003:0004cc04       $SG95411                   1010dc04     squid_allocator.obj
 0003:0004cc2c       $SG95201                   1010dc2c     squid_allocator.obj
 0003:0004cc50       $SG95231                   1010dc50     squid_allocator.obj
 0003:0004cc78       $SG95201                   1010dc78     squid_allocator_tools.obj
 0003:0004cc80       $SG95205                   1010dc80     squid_allocator_tools.obj
 0003:0004cc88       $SG95208                   1010dc88     squid_allocator_tools.obj
 0003:0004cc90       ___len                     1010dc90     vstring_pool.obj
 0003:0004cc94       $SG95133                   1010dc94     vstring_pool.obj
 0003:0004ccb8       $SG95138                   1010dcb8     vstring_pool.obj
 0003:0004ccdc       $SG95151                   1010dcdc     vstring_pool.obj
 0003:0004cd00       $SG95162                   1010dd00     vstring_pool.obj
 0003:0004cd24       $SG95171                   1010dd24     vstring_pool.obj
 0003:0004cd48       $SG95238                   1010dd48     acl_debug_malloc.obj
 0003:0004cd5c       $SG95249                   1010dd5c     acl_debug_malloc.obj
 0003:0004cd64       $SG95256                   1010dd64     acl_debug_malloc.obj
 0003:0004cd70       $SG95288                   1010dd70     acl_debug_malloc.obj
 0003:0004cd78       $SG95295                   1010dd78     acl_debug_malloc.obj
 0003:0004cd84       $SG95334                   1010dd84     acl_debug_malloc.obj
 0003:0004cd8c       $SG95341                   1010dd8c     acl_debug_malloc.obj
 0003:0004cd98       $SG95374                   1010dd98     acl_debug_malloc.obj
 0003:0004cda0       $SG95381                   1010dda0     acl_debug_malloc.obj
 0003:0004cdac       $SG95409                   1010ddac     acl_debug_malloc.obj
 0003:0004cdb4       $SG95416                   1010ddb4     acl_debug_malloc.obj
 0003:0004cdc8       $SG95429                   1010ddc8     acl_debug_malloc.obj
 0003:0004cdd4       $SG95437                   1010ddd4     acl_debug_malloc.obj
 0003:0004cde4       $SG95440                   1010dde4     acl_debug_malloc.obj
 0003:0004ce10       $SG95448                   1010de10     acl_debug_malloc.obj
 0003:0004ce2c       $SG95470                   1010de2c     acl_debug_malloc.obj
 0003:0004ce30       $SG95480                   1010de30     acl_debug_malloc.obj
 0003:0004ce44       $SG95159                   1010de44     acl_debug_malloc.obj
 0003:0004ce4c       $SG95162                   1010de4c     acl_debug_malloc.obj
 0003:0004ce58       $SG95195                   1010de58     acl_debug_malloc.obj
 0003:0004ce60       $SG95202                   1010de60     acl_debug_malloc.obj
 0003:0004ce6c       $SG95231                   1010de6c     acl_debug_malloc.obj
 0003:0004ce74       ___log_fn                  1010de74     acl_access.obj
 0003:0004ce78       $SG95078                   1010de78     acl_access.obj
 0003:0004ce88       $SG95083                   1010de88     acl_access.obj
 0003:0004cea0       $SG95084                   1010dea0     acl_access.obj
 0003:0004ced4       $SG95093                   1010ded4     acl_access.obj
 0003:0004cee4       $SG95104                   1010dee4     acl_access.obj
 0003:0004cefc       $SG95105                   1010defc     acl_access.obj
 0003:0004cf18       $SG95108                   1010df18     acl_access.obj
 0003:0004cf1c       $SG95110                   1010df1c     acl_access.obj
 0003:0004cf24       $SG95111                   1010df24     acl_access.obj
 0003:0004cf34       $SG95117                   1010df34     acl_access.obj
 0003:0004cf4c       $SG95118                   1010df4c     acl_access.obj
 0003:0004cf74       $SG95132                   1010df74     acl_access.obj
 0003:0004cf8c       $SG95133                   1010df8c     acl_access.obj
 0003:0004cfac       $SG95151                   1010dfac     acl_access.obj
 0003:0004cfc4       $SG95152                   1010dfc4     acl_access.obj
 0003:0004cfe4       $SG95168                   1010dfe4     acl_access.obj
 0003:0004d004       $SG95171                   1010e004     acl_access.obj
 0003:0004d01c       $SG95172                   1010e01c     acl_access.obj
 0003:0004d044       $SG95179                   1010e044     acl_access.obj
 0003:0004d054       $SG95186                   1010e054     acl_access.obj
 0003:0004d06c       $SG95187                   1010e06c     acl_access.obj
 0003:0004d088       $SG95194                   1010e088     acl_access.obj
 0003:0004d08c       $SG95195                   1010e08c     acl_access.obj
 0003:0004d090       $SG95082                   1010e090     acl_host_port.obj
 0003:0004d09c       $SG95084                   1010e09c     acl_host_port.obj
 0003:0004d0b0       $SG95089                   1010e0b0     acl_host_port.obj
 0003:0004d0cc       $SG95091                   1010e0cc     acl_host_port.obj
 0003:0004d0e8       $SG95093                   1010e0e8     acl_host_port.obj
 0003:0004d114       $SG95096                   1010e114     acl_host_port.obj
 0003:0004d134       $SG100201                  1010e134     acl_ifconf.obj
 0003:0004d144       $SG100209                  1010e144     acl_ifconf.obj
 0003:0004d168       $SG100212                  1010e168     acl_ifconf.obj
 0003:0004d180       $SG100214                  1010e180     acl_ifconf.obj
 0003:0004d1a4       $SG100218                  1010e1a4     acl_ifconf.obj
 0003:0004d1bc       $SG100223                  1010e1bc     acl_ifconf.obj
 0003:0004d1d4       $SG100227                  1010e1d4     acl_ifconf.obj
 0003:0004d1ec       $SG100234                  1010e1ec     acl_ifconf.obj
 0003:0004d1f4       $SG100236                  1010e1f4     acl_ifconf.obj
 0003:0004d20c       $SG100237                  1010e20c     acl_ifconf.obj
 0003:0004d224       $SG100238                  1010e224     acl_ifconf.obj
 0003:0004d228       $SG100242                  1010e228     acl_ifconf.obj
 0003:0004d240       $SG100246                  1010e240     acl_ifconf.obj
 0003:0004d258       $SG100252                  1010e258     acl_ifconf.obj
 0003:0004d270       $SG100257                  1010e270     acl_ifconf.obj
 0003:0004d288       $SG100274                  1010e288     acl_ifconf.obj
 0003:0004d2a0       $SG100281                  1010e2a0     acl_ifconf.obj
 0003:0004d2b8       $SG100286                  1010e2b8     acl_ifconf.obj
 0003:0004d2d0       $SG100291                  1010e2d0     acl_ifconf.obj
 0003:0004d2e8       $SG95077                   1010e2e8     acl_mask_addr.obj
 0003:0004d324       $SG95093                   1010e324     acl_sane_socket.obj
 0003:0004d32c       $SG95115                   1010e32c     acl_sane_socket.obj
 0003:0004d338       $SG95074                   1010e338     acl_tcp_ctl.obj
 0003:0004d34c       $SG95078                   1010e34c     acl_tcp_ctl.obj
 0003:0004d374       $SG95085                   1010e374     acl_tcp_ctl.obj
 0003:0004d384       $SG95089                   1010e384     acl_tcp_ctl.obj
 0003:0004d39c       $SG95094                   1010e39c     acl_tcp_ctl.obj
 0003:0004d3b0       $SG95101                   1010e3b0     acl_tcp_ctl.obj
 0003:0004d3d8       $SG95106                   1010e3d8     acl_tcp_ctl.obj
 0003:0004d3ec       $SG95113                   1010e3ec     acl_tcp_ctl.obj
 0003:0004d414       $SG95123                   1010e414     acl_tcp_ctl.obj
 0003:0004d424       $SG95128                   1010e424     acl_tcp_ctl.obj
 0003:0004d450       $SG95142                   1010e450     acl_tcp_ctl.obj
 0003:0004d468       $SG95147                   1010e468     acl_tcp_ctl.obj
 0003:0004d4a8       $SG95074                   1010e4a8     acl_valid_hostname.obj
 0003:0004d4bc       $SG95082                   1010e4bc     acl_valid_hostname.obj
 0003:0004d4d0       $SG95093                   1010e4d0     acl_valid_hostname.obj
 0003:0004d4f4       $SG95101                   1010e4f4     acl_valid_hostname.obj
 0003:0004d514       $SG95107                   1010e514     acl_valid_hostname.obj
 0003:0004d534       $SG95110                   1010e534     acl_valid_hostname.obj
 0003:0004d560       $SG95113                   1010e560     acl_valid_hostname.obj
 0003:0004d580       $SG95117                   1010e580     acl_valid_hostname.obj
 0003:0004d5a0       $SG95124                   1010e5a0     acl_valid_hostname.obj
 0003:0004d5b4       $SG95127                   1010e5b4     acl_valid_hostname.obj
 0003:0004d5c8       $SG95137                   1010e5c8     acl_valid_hostname.obj
 0003:0004d5e0       $SG95151                   1010e5e0     acl_valid_hostname.obj
 0003:0004d600       $SG95157                   1010e600     acl_valid_hostname.obj
 0003:0004d61c       $SG95159                   1010e61c     acl_valid_hostname.obj
 0003:0004d620       $SG95161                   1010e620     acl_valid_hostname.obj
 0003:0004d644       $SG95164                   1010e644     acl_valid_hostname.obj
 0003:0004d670       $SG95167                   1010e670     acl_valid_hostname.obj
 0003:0004d690       $SG95174                   1010e690     acl_valid_hostname.obj
 0003:0004d6a8       $SG95190                   1010e6a8     acl_valid_hostname.obj
 0003:0004d6d0       $SG95194                   1010e6d0     acl_valid_hostname.obj
 0003:0004d700       $SG95200                   1010e700     acl_valid_hostname.obj
 0003:0004d72c       $SG95206                   1010e72c     acl_valid_hostname.obj
 0003:0004d760       $SG95209                   1010e760     acl_valid_hostname.obj
 0003:0004d78c       $SG95213                   1010e78c     acl_valid_hostname.obj
 0003:0004d7b8       $SG95216                   1010e7b8     acl_valid_hostname.obj
 0003:0004d7d0       $SG95219                   1010e7d0     acl_valid_hostname.obj
 0003:0004d7f4       $SG95222                   1010e7f4     acl_valid_hostname.obj
 0003:0004d830       $SG95080                   1010e830     acl_vstream_net.obj
 0003:0004d848       $SG95087                   1010e848     acl_vstream_net.obj
 0003:0004d85c       $SG95091                   1010e85c     acl_vstream_net.obj
 0003:0004d87c       $SG95095                   1010e87c     acl_vstream_net.obj
 0003:0004d89c       $SG95102                   1010e89c     acl_vstream_net.obj
 0003:0004d8c4       $SG95103                   1010e8c4     acl_vstream_net.obj
 0003:0004d8c8       $SG95107                   1010e8c8     acl_vstream_net.obj
 0003:0004d8d0       $SG95108                   1010e8d0     acl_vstream_net.obj
 0003:0004d8d4       $SG95124                   1010e8d4     acl_vstream_net.obj
 0003:0004d8ec       $SG95151                   1010e8ec     acl_vstream_net.obj
 0003:0004d908       $SG95152                   1010e908     acl_vstream_net.obj
 0003:0004d930       $SG95195                   1010e930     acl_vstream_net.obj
 0003:0004d948       $SG95202                   1010e948     acl_vstream_net.obj
 0003:0004d958       $SG95206                   1010e958     acl_vstream_net.obj
 0003:0004d98c       $SG95215                   1010e98c     acl_vstream_net.obj
 0003:0004d990       $SG95076                   1010e990     acl_inet_listen.obj
 0003:0004d9a0       $SG95088                   1010e9a0     acl_inet_listen.obj
 0003:0004d9c4       $SG95092                   1010e9c4     acl_inet_listen.obj
 0003:0004d9dc       $SG95096                   1010e9dc     acl_inet_listen.obj
 0003:0004da00       $SG95102                   1010ea00     acl_inet_listen.obj
 0003:0004da08       $SG95105                   1010ea08     acl_inet_listen.obj
 0003:0004da2c       $SG95109                   1010ea2c     acl_inet_listen.obj
 0003:0004da50       $SG95113                   1010ea50     acl_inet_listen.obj
 0003:0004da78       $SG95117                   1010ea78     acl_inet_listen.obj
 0003:0004da9c       $SG95124                   1010ea9c     acl_inet_listen.obj
 0003:0004dac0       $SG95128                   1010eac0     acl_inet_listen.obj
 0003:0004dad0       $SG95132                   1010ead0     acl_inet_listen.obj
 0003:0004daf4       $SG95136                   1010eaf4     acl_inet_listen.obj
 0003:0004db0c       $SG95139                   1010eb0c     acl_inet_listen.obj
 0003:0004db2c       $SG95165                   1010eb2c     acl_inet_listen.obj
 0003:0004db30       ?accept_ok_errors@?1??acl_sane_accept@@9@9 1010eb30     acl_sane_accept.obj
 0003:0004db60       $SG95122                   1010eb60     acl_sane_accept.obj
 0003:0004db64       $SG95097                   1010eb64     acl_inet_connect.obj
 0003:0004db78       $SG95110                   1010eb78     acl_inet_connect.obj
 0003:0004db7c       $SG95113                   1010eb7c     acl_inet_connect.obj
 0003:0004dba4       $SG95114                   1010eba4     acl_inet_connect.obj
 0003:0004dbc4       $SG95117                   1010ebc4     acl_inet_connect.obj
 0003:0004dbec       $SG95118                   1010ebec     acl_inet_connect.obj
 0003:0004dc0c       $SG95125                   1010ec0c     acl_inet_connect.obj
 0003:0004dc34       $SG95126                   1010ec34     acl_inet_connect.obj
 0003:0004dc58       $SG95130                   1010ec58     acl_inet_connect.obj
 0003:0004dc80       $SG95131                   1010ec80     acl_inet_connect.obj
 0003:0004dcb0       $SG95141                   1010ecb0     acl_inet_connect.obj
 0003:0004dcd8       $SG95154                   1010ecd8     acl_inet_connect.obj
 0003:0004dcec       $SG95159                   1010ecec     acl_inet_connect.obj
 0003:0004dd0c       $SG95166                   1010ed0c     acl_inet_connect.obj
 0003:0004dd30       $SG95080                   1010ed30     acl_sane_connect.obj
 0003:0004dd58       $SG95079                   1010ed58     acl_timed_connect.obj
 0003:0004dd78       $SG95233                   1010ed78     acl_dns.obj
 0003:0004dd88       $SG95243                   1010ed88     acl_dns.obj
 0003:0004dda0       $SG95246                   1010eda0     acl_dns.obj
 0003:0004ddb8       $SG95250                   1010edb8     acl_dns.obj
 0003:0004ddd8       $SG95255                   1010edd8     acl_dns.obj
 0003:0004ddf0       $SG95258                   1010edf0     acl_dns.obj
 0003:0004de08       $SG95260                   1010ee08     acl_dns.obj
 0003:0004de28       $SG95261                   1010ee28     acl_dns.obj
 0003:0004de5c       $SG95273                   1010ee5c     acl_dns.obj
 0003:0004de70       $SG95283                   1010ee70     acl_dns.obj
 0003:0004de78       $SG95294                   1010ee78     acl_dns.obj
 0003:0004de90       $SG95304                   1010ee90     acl_dns.obj
 0003:0004deac       $SG95308                   1010eeac     acl_dns.obj
 0003:0004dec8       $SG95315                   1010eec8     acl_dns.obj
 0003:0004dee4       $SG95320                   1010eee4     acl_dns.obj
 0003:0004df00       $SG95321                   1010ef00     acl_dns.obj
 0003:0004df08       $SG95336                   1010ef08     acl_dns.obj
 0003:0004df20       $SG95351                   1010ef20     acl_dns.obj
 0003:0004df34       $SG95354                   1010ef34     acl_dns.obj
 0003:0004df5c       $SG95359                   1010ef5c     acl_dns.obj
 0003:0004df6c       $SG95364                   1010ef6c     acl_dns.obj
 0003:0004df84       $SG95374                   1010ef84     acl_dns.obj
 0003:0004df94       $SG95379                   1010ef94     acl_dns.obj
 0003:0004dfc0       $SG95387                   1010efc0     acl_dns.obj
 0003:0004dfd4       $SG95397                   1010efd4     acl_dns.obj
 0003:0004dff4       $SG95414                   1010eff4     acl_dns.obj
 0003:0004e00c       $SG95432                   1010f00c     acl_dns.obj
 0003:0004e024       $SG95445                   1010f024     acl_dns.obj
 0003:0004e03c       $SG95463                   1010f03c     acl_dns.obj
 0003:0004e054       $SG95470                   1010f054     acl_dns.obj
 0003:0004e06c       $SG95509                   1010f06c     acl_dns.obj
 0003:0004e07c       $SG95513                   1010f07c     acl_dns.obj
 0003:0004e09c       $SG95516                   1010f09c     acl_dns.obj
 0003:0004e0b4       $SG95526                   1010f0b4     acl_dns.obj
 0003:0004e0d0       $SG95535                   1010f0d0     acl_dns.obj
 0003:0004e0e4       $SG95541                   1010f0e4     acl_dns.obj
 0003:0004e114       $SG95542                   1010f114     acl_dns.obj
 0003:0004e11c       $SG95550                   1010f11c     acl_dns.obj
 0003:0004e134       $SG95558                   1010f134     acl_dns.obj
 0003:0004e154       $SG95561                   1010f154     acl_dns.obj
 0003:0004e178       $SG95574                   1010f178     acl_dns.obj
 0003:0004e18c       $SG95584                   1010f18c     acl_dns.obj
 0003:0004e1ac       $SG95587                   1010f1ac     acl_dns.obj
 0003:0004e1c4       $SG95611                   1010f1c4     acl_dns.obj
 0003:0004e1cc       $SG95628                   1010f1cc     acl_dns.obj
 0003:0004e1dc       $SG95679                   1010f1dc     acl_dns.obj
 0003:0004e1e4       $SG95683                   1010f1e4     acl_dns.obj
 0003:0004e1fc       $SG95688                   1010f1fc     acl_dns.obj
 0003:0004e214       $SG95697                   1010f214     acl_dns.obj
 0003:0004e234       $SG95703                   1010f234     acl_dns.obj
 0003:0004e24c       $SG95711                   1010f24c     acl_dns.obj
 0003:0004e25c       $SG95716                   1010f25c     acl_dns.obj
 0003:0004e270       $SG95721                   1010f270     acl_dns.obj
 0003:0004e288       $SG95731                   1010f288     acl_dns.obj
 0003:0004e2a0       $SG95732                   1010f2a0     acl_dns.obj
 0003:0004e2b0       $SG95733                   1010f2b0     acl_dns.obj
 0003:0004e2f8       $SG95734                   1010f2f8     acl_dns.obj
 0003:0004e33c       $SG95735                   1010f33c     acl_dns.obj
 0003:0004e368       $SG95736                   1010f368     acl_dns.obj
 0003:0004e3b8       $SG95737                   1010f3b8     acl_dns.obj
 0003:0004e400       $SG95738                   1010f400     acl_dns.obj
 0003:0004e41c       $SG95739                   1010f41c     acl_dns.obj
 0003:0004e440       $SG95740                   1010f440     acl_dns.obj
 0003:0004e460       $SG95741                   1010f460     acl_dns.obj
 0003:0004e47c       $SG95742                   1010f47c     acl_dns.obj
 0003:0004e4a0       $SG95743                   1010f4a0     acl_dns.obj
 0003:0004e4b0       $SG95744                   1010f4b0     acl_dns.obj
 0003:0004e4c0       $SG95745                   1010f4c0     acl_dns.obj
 0003:0004e4d0       $SG95746                   1010f4d0     acl_dns.obj
 0003:0004e4e0       $SG95747                   1010f4e0     acl_dns.obj
 0003:0004e520       $SG95748                   1010f520     acl_dns.obj
 0003:0004e538       $SG95749                   1010f538     acl_dns.obj
 0003:0004e554       $SG95750                   1010f554     acl_dns.obj
 0003:0004e570       $SG95752                   1010f570     acl_dns.obj
 0003:0004e580       $SG95187                   1010f580     acl_dns.obj
 0003:0004e58c       $SG95195                   1010f58c     acl_dns.obj
 0003:0004e5a4       $SG95196                   1010f5a4     acl_dns.obj
 0003:0004e5c4       $SG95210                   1010f5c4     acl_dns.obj
 0003:0004e5d0       $SG95217                   1010f5d0     acl_dns.obj
 0003:0004e5f4       $SG95220                   1010f5f4     acl_dns.obj
 0003:0004e610       $SG95238                   1010f610     acl_netdb.obj
 0003:0004e620       $SG95242                   1010f620     acl_netdb.obj
 0003:0004e63c       $SG95245                   1010f63c     acl_netdb.obj
 0003:0004e658       $SG95246                   1010f658     acl_netdb.obj
 0003:0004e678       $SG95250                   1010f678     acl_netdb.obj
 0003:0004e694       $SG95251                   1010f694     acl_netdb.obj
 0003:0004e6b8       $SG95255                   1010f6b8     acl_netdb.obj
 0003:0004e6d4       $SG95258                   1010f6d4     acl_netdb.obj
 0003:0004e6d8       $SG95272                   1010f6d8     acl_netdb.obj
 0003:0004e6ec       $SG95280                   1010f6ec     acl_netdb.obj
 0003:0004e704       $SG95282                   1010f704     acl_netdb.obj
 0003:0004e720       $SG95285                   1010f720     acl_netdb.obj
 0003:0004e73c       $SG95294                   1010f73c     acl_netdb.obj
 0003:0004e75c       $SG95299                   1010f75c     acl_netdb.obj
 0003:0004e76c       $SG95312                   1010f76c     acl_netdb.obj
 0003:0004e788       $SG95313                   1010f788     acl_netdb.obj
 0003:0004e7ac       $SG95317                   1010f7ac     acl_netdb.obj
 0003:0004e7c8       $SG95318                   1010f7c8     acl_netdb.obj
 0003:0004e7ec       $SG95329                   1010f7ec     acl_netdb.obj
 0003:0004e808       $SG95332                   1010f808     acl_netdb.obj
 0003:0004e824       $SG95333                   1010f824     acl_netdb.obj
 0003:0004e844       $SG95342                   1010f844     acl_netdb.obj
 0003:0004e860       $SG95343                   1010f860     acl_netdb.obj
 0003:0004e884       $SG95351                   1010f884     acl_netdb.obj
 0003:0004e898       $SG95362                   1010f898     acl_netdb.obj
 0003:0004e8b4       $SG95363                   1010f8b4     acl_netdb.obj
 0003:0004e8cc       $SG95373                   1010f8cc     acl_netdb.obj
 0003:0004e8e8       $SG95374                   1010f8e8     acl_netdb.obj
 0003:0004e90c       $SG95378                   1010f90c     acl_netdb.obj
 0003:0004e928       $SG95381                   1010f928     acl_netdb.obj
 0003:0004e944       $SG95382                   1010f944     acl_netdb.obj
 0003:0004e964       $SG95395                   1010f964     acl_netdb.obj
 0003:0004e980       $SG95396                   1010f980     acl_netdb.obj
 0003:0004e9a4       $SG95405                   1010f9a4     acl_netdb.obj
 0003:0004e9c0       $SG95406                   1010f9c0     acl_netdb.obj
 0003:0004e9f0       $SG95416                   1010f9f0     acl_netdb.obj
 0003:0004ea0c       $SG95417                   1010fa0c     acl_netdb.obj
 0003:0004ea30       $SG95428                   1010fa30     acl_netdb.obj
 0003:0004ea4c       $SG95431                   1010fa4c     acl_netdb.obj
 0003:0004ea68       $SG95432                   1010fa68     acl_netdb.obj
 0003:0004ea88       $SG95441                   1010fa88     acl_netdb.obj
 0003:0004eaa4       $SG95442                   1010faa4     acl_netdb.obj
 0003:0004eac8       ___dns_errlist             1010fac8     acl_netdb.obj
 0003:0004ead0       $SG95453                   1010fad0     acl_netdb.obj
 0003:0004eae0       $SG95464                   1010fae0     acl_netdb.obj
 0003:0004eaf8       $SG95074                   1010faf8     acl_netdb.obj
 0003:0004eb08       $SG95079                   1010fb08     acl_netdb.obj
 0003:0004eb24       $SG95080                   1010fb24     acl_netdb.obj
 0003:0004eb3c       $SG95083                   1010fb3c     acl_netdb.obj
 0003:0004eb58       $SG95084                   1010fb58     acl_netdb.obj
 0003:0004eb78       $SG95087                   1010fb78     acl_netdb.obj
 0003:0004eb94       $SG95088                   1010fb94     acl_netdb.obj
 0003:0004ebb8       $SG95097                   1010fbb8     acl_netdb.obj
 0003:0004ebd0       $SG95102                   1010fbd0     acl_netdb.obj
 0003:0004ebec       $SG95103                   1010fbec     acl_netdb.obj
 0003:0004ec04       $SG95106                   1010fc04     acl_netdb.obj
 0003:0004ec20       $SG95107                   1010fc20     acl_netdb.obj
 0003:0004ec40       $SG95110                   1010fc40     acl_netdb.obj
 0003:0004ec5c       $SG95111                   1010fc5c     acl_netdb.obj
 0003:0004ec80       $SG95120                   1010fc80     acl_netdb.obj
 0003:0004ec94       $SG95125                   1010fc94     acl_netdb.obj
 0003:0004ecb0       $SG95126                   1010fcb0     acl_netdb.obj
 0003:0004ecc8       $SG95129                   1010fcc8     acl_netdb.obj
 0003:0004ece4       $SG95130                   1010fce4     acl_netdb.obj
 0003:0004ed04       $SG95133                   1010fd04     acl_netdb.obj
 0003:0004ed20       $SG95134                   1010fd20     acl_netdb.obj
 0003:0004ed44       $SG95145                   1010fd44     acl_netdb.obj
 0003:0004ed5c       $SG95150                   1010fd5c     acl_netdb.obj
 0003:0004ed78       $SG95151                   1010fd78     acl_netdb.obj
 0003:0004ed90       $SG95153                   1010fd90     acl_netdb.obj
 0003:0004edac       $SG95154                   1010fdac     acl_netdb.obj
 0003:0004edcc       $SG95156                   1010fdcc     acl_netdb.obj
 0003:0004ede8       $SG95157                   1010fde8     acl_netdb.obj
 0003:0004ee0c       $SG95173                   1010fe0c     acl_netdb.obj
 0003:0004ee1c       $SG95176                   1010fe1c     acl_netdb.obj
 0003:0004ee38       $SG95177                   1010fe38     acl_netdb.obj
 0003:0004ee54       $SG95185                   1010fe54     acl_netdb.obj
 0003:0004ee70       $SG95196                   1010fe70     acl_netdb.obj
 0003:0004ee8c       $SG95232                   1010fe8c     acl_netdb_cache.obj
 0003:0004eeac       $SG95233                   1010feac     acl_netdb_cache.obj
 0003:0004eecc       $SG95250                   1010fecc     acl_netdb_cache.obj
 0003:0004eee4       $SG95257                   1010fee4     acl_netdb_cache.obj
 0003:0004ef08       $SG95260                   1010ff08     acl_netdb_cache.obj
 0003:0004ef24       ___cache_timeout           1010ff24     acl_netdb_cache.obj
 0003:0004ef28       $SG95084                   1010ff28     acl_netdb_cache.obj
 0003:0004ef34       $SG95088                   1010ff34     acl_netdb_cache.obj
 0003:0004ef58       $SG95099                   1010ff58     acl_netdb_cache.obj
 0003:0004ef68       $SG95103                   1010ff68     acl_netdb_cache.obj
 0003:0004ef8c       $SG95115                   1010ff8c     acl_netdb_cache.obj
 0003:0004efac       $SG95141                   1010ffac     acl_netdb_cache.obj
 0003:0004efc4       $SG95151                   1010ffc4     acl_netdb_cache.obj
 0003:0004efdc       $SG95154                   1010ffdc     acl_netdb_cache.obj
 0003:0004f000       $SG95156                   10110000     acl_netdb_cache.obj
 0003:0004f018       $SG95158                   10110018     acl_netdb_cache.obj
 0003:0004f030       $SG95160                   10110030     acl_netdb_cache.obj
 0003:0004f054       $SG95169                   10110054     acl_netdb_cache.obj
 0003:0004f074       $SG95172                   10110074     acl_netdb_cache.obj
 0003:0004f090       $SG95176                   10110090     acl_netdb_cache.obj
 0003:0004f0b0       $SG95195                   101100b0     acl_netdb_cache.obj
 0003:0004f0c8       $SG95222                   101100c8     acl_netdb_cache.obj
 0003:0004f0e8       $SG95223                   101100e8     acl_netdb_cache.obj
 0003:0004f104       $SG95235                   10110104     acl_res.obj
 0003:0004f10c       $SG95245                   1011010c     acl_res.obj
 0003:0004f124       $SG95248                   10110124     acl_res.obj
 0003:0004f13c       $SG95258                   1011013c     acl_res.obj
 0003:0004f154       $SG95269                   10110154     acl_res.obj
 0003:0004f16c       $SG95280                   1011016c     acl_res.obj
 0003:0004f184       $SG95290                   10110184     acl_res.obj
 0003:0004f19c       $SG95313                   1011019c     acl_res.obj
 0003:0004f1ac       $SG95325                   101101ac     acl_res.obj
 0003:0004f1c0       $SG95338                   101101c0     acl_res.obj
 0003:0004f1d8       $SG95345                   101101d8     acl_res.obj
 0003:0004f1f0       $SG95348                   101101f0     acl_res.obj
 0003:0004f208       $SG95351                   10110208     acl_res.obj
 0003:0004f220       $SG95352                   10110220     acl_res.obj
 0003:0004f244       $SG95357                   10110244     acl_res.obj
 0003:0004f270       $SG95367                   10110270     acl_res.obj
 0003:0004f280       $SG95368                   10110280     acl_res.obj
 0003:0004f290       $SG95369                   10110290     acl_res.obj
 0003:0004f2a0       $SG95370                   101102a0     acl_res.obj
 0003:0004f2b0       $SG95371                   101102b0     acl_res.obj
 0003:0004f2c0       $SG95381                   101102c0     acl_res.obj
 0003:0004f2d0       $SG95384                   101102d0     acl_res.obj
 0003:0004f2e0       $SG95162                   101102e0     acl_res.obj
 0003:0004f2ec       $SG95167                   101102ec     acl_res.obj
 0003:0004f300       $SG95170                   10110300     acl_res.obj
 0003:0004f318       $SG95186                   10110318     acl_res.obj
 0003:0004f330       $SG95201                   10110330     acl_res.obj
 0003:0004f340       $SG95207                   10110340     acl_res.obj
 0003:0004f358       $SG95240                   10110358     rfc1035.obj
 0003:0004f36c       $SG95246                   1011036c     rfc1035.obj
 0003:0004f384       $SG95258                   10110384     rfc1035.obj
 0003:0004f398       $SG95262                   10110398     rfc1035.obj
 0003:0004f3ac       $SG95265                   101103ac     rfc1035.obj
 0003:0004f3c0       $SG95283                   101103c0     rfc1035.obj
 0003:0004f3d4       $SG95289                   101103d4     rfc1035.obj
 0003:0004f3e4       $SG95296                   101103e4     rfc1035.obj
 0003:0004f3fc       $SG95323                   101103fc     rfc1035.obj
 0003:0004f410       $SG95335                   10110410     rfc1035.obj
 0003:0004f420       $SG95355                   10110420     rfc1035.obj
 0003:0004f438       $SG95362                   10110438     rfc1035.obj
 0003:0004f450       $SG95366                   10110450     rfc1035.obj
 0003:0004f468       $SG95370                   10110468     rfc1035.obj
 0003:0004f480       $SG95379                   10110480     rfc1035.obj
 0003:0004f494       $SG95382                   10110494     rfc1035.obj
 0003:0004f4c0       $SG95380                   101104c0     rfc1035.obj
 0003:0004f504       $SG95388                   10110504     rfc1035.obj
 0003:0004f514       $SG95406                   10110514     rfc1035.obj
 0003:0004f528       $SG95381                   10110528     rfc1035.obj
 0003:0004f56c       $SG95410                   1011056c     rfc1035.obj
 0003:0004f57c       $SG95418                   1011057c     rfc1035.obj
 0003:0004f594       $SG95607                   10110594     rfc1035.obj
 0003:0004f598       $SG95383                   10110598     rfc1035.obj
 0003:0004f5e8       $SG95384                   101105e8     rfc1035.obj
 0003:0004f630       $SG95385                   10110630     rfc1035.obj
 0003:0004f670       $SG95423                   10110670     rfc1035.obj
 0003:0004f688       $SG95450                   10110688     rfc1035.obj
 0003:0004f6a0       $SG95456                   101106a0     rfc1035.obj
 0003:0004f6b8       $SG95490                   101106b8     rfc1035.obj
 0003:0004f6d0       $SG95496                   101106d0     rfc1035.obj
 0003:0004f6e8       $SG95504                   101106e8     rfc1035.obj
 0003:0004f700       $SG95508                   10110700     rfc1035.obj
 0003:0004f718       $SG95518                   10110718     rfc1035.obj
 0003:0004f730       $SG95523                   10110730     rfc1035.obj
 0003:0004f748       $SG95532                   10110748     rfc1035.obj
 0003:0004f760       $SG95546                   10110760     rfc1035.obj
 0003:0004f778       $SG95551                   10110778     rfc1035.obj
 0003:0004f790       $SG95565                   10110790     rfc1035.obj
 0003:0004f7a0       $SG95581                   101107a0     rfc1035.obj
 0003:0004f7b8       $SG95609                   101107b8     rfc1035.obj
 0003:0004f7d0       $SG95613                   101107d0     rfc1035.obj
 0003:0004f7e8       $SG95616                   101107e8     rfc1035.obj
 0003:0004f7ec       $SG95618                   101107ec     rfc1035.obj
 0003:0004f804       $SG95622                   10110804     rfc1035.obj
 0003:0004f81c       $SG95625                   1011081c     rfc1035.obj
 0003:0004f820       $SG95627                   10110820     rfc1035.obj
 0003:0004f838       $SG95631                   10110838     rfc1035.obj
 0003:0004f850       $SG95646                   10110850     rfc1035.obj
 0003:0004f864       $SG95660                   10110864     rfc1035.obj
 0003:0004f87c       $SG95674                   1011087c     rfc1035.obj
 0003:0004f894       $SG95681                   10110894     rfc1035.obj
 0003:0004f8b0       $SG95693                   101108b0     rfc1035.obj
 0003:0004f8c8       $SG95165                   101108c8     rfc1035.obj
 0003:0004f8dc       $SG95171                   101108dc     rfc1035.obj
 0003:0004f8ec       $SG95173                   101108ec     rfc1035.obj
 0003:0004f900       $SG95183                   10110900     rfc1035.obj
 0003:0004f914       $SG95189                   10110914     rfc1035.obj
 0003:0004f930       $SG95194                   10110930     rfc1035.obj
 0003:0004f94c       $SG95206                   1011094c     rfc1035.obj
 0003:0004f95c       $SG95211                   1011095c     rfc1035.obj
 0003:0004f974       $SG95215                   10110974     rfc1035.obj
 0003:0004f978       $SG95216                   10110978     rfc1035.obj
 0003:0004f97c       $SG95220                   1011097c     rfc1035.obj
 0003:0004f994       $SG95226                   10110994     rfc1035.obj
 0003:0004f9ac       $SG95236                   101109ac     acl_pthread.obj
 0003:0004f9c8       $SG95237                   101109c8     acl_pthread.obj
 0003:0004f9ec       $SG95300                   101109ec     acl_pthread.obj
 0003:0004fa04       $SG95304                   10110a04     acl_pthread.obj
 0003:0004fa30       $SG95314                   10110a30     acl_pthread.obj
 0003:0004fa48       $SG95319                   10110a48     acl_pthread.obj
 0003:0004fa60       $SG95321                   10110a60     acl_pthread.obj
 0003:0004fa98       $SG95337                   10110a98     acl_pthread.obj
 0003:0004fab4       $SG95340                   10110ab4     acl_pthread.obj
 0003:0004fadc       $SG95345                   10110adc     acl_pthread.obj
 0003:0004faf0       $SG95350                   10110af0     acl_pthread.obj
 0003:0004fb08       $SG95357                   10110b08     acl_pthread.obj
 0003:0004fb1c       $SG95360                   10110b1c     acl_pthread.obj
 0003:0004fb40       $SG95362                   10110b40     acl_pthread.obj
 0003:0004fb5c       $SG95369                   10110b5c     acl_pthread.obj
 0003:0004fb74       ___pthread_atexit_key      10110b74     acl_pthread.obj
 0003:0004fb78       $SG95391                   10110b78     acl_pthread.obj
 0003:0004fb94       $SG95403                   10110b94     acl_pthread.obj
 0003:0004fbac       $SG95411                   10110bac     acl_pthread.obj
 0003:0004fbd8       $SG95414                   10110bd8     acl_pthread.obj
 0003:0004fbf4       $SG95417                   10110bf4     acl_pthread.obj
 0003:0004fc10       $SG95423                   10110c10     acl_pthread.obj
 0003:0004fc44       $SG95431                   10110c44     acl_pthread.obj
 0003:0004fc60       $SG95439                   10110c60     acl_pthread.obj
 0003:0004fc8c       $SG95445                   10110c8c     acl_pthread.obj
 0003:0004fcc4       $SG95453                   10110cc4     acl_pthread.obj
 0003:0004fce0       _acl_tls_ctx_max           10110ce0     acl_pthread.obj
 0003:0004fce4       ___tls_ctx_key             10110ce4     acl_pthread.obj
 0003:0004fce8       $SG95485                   10110ce8     acl_pthread.obj
 0003:0004fd04       $SG95505                   10110d04     acl_pthread.obj
 0003:0004fd18       $SG95511                   10110d18     acl_pthread.obj
 0003:0004fd40       $SG95518                   10110d40     acl_pthread.obj
 0003:0004fd5c       $SG95520                   10110d5c     acl_pthread.obj
 0003:0004fd78       $SG95522                   10110d78     acl_pthread.obj
 0003:0004fdac       $SG95543                   10110dac     acl_pthread.obj
 0003:0004fdd4       $SG95551                   10110dd4     acl_pthread.obj
 0003:0004fdf4       $SG95568                   10110df4     acl_pthread.obj
 0003:0004fe08       $SG95575                   10110e08     acl_pthread.obj
 0003:0004fe20       $SG95579                   10110e20     acl_pthread.obj
 0003:0004fe48       $SG95584                   10110e48     acl_pthread.obj
 0003:0004fe6c       $SG95587                   10110e6c     acl_pthread.obj
 0003:0004fe84       $SG95595                   10110e84     acl_pthread.obj
 0003:0004fe98       $SG95602                   10110e98     acl_pthread.obj
 0003:0004feb0       $SG95606                   10110eb0     acl_pthread.obj
 0003:0004fed8       $SG95611                   10110ed8     acl_pthread.obj
 0003:0004fefc       $SG95614                   10110efc     acl_pthread.obj
 0003:0004ff14       ___tls_value_list_key      10110f14     acl_pthread.obj
 0003:0004ff18       $SG95133                   10110f18     acl_pthread.obj
 0003:0004ff30       $SG95142                   10110f30     acl_pthread.obj
 0003:0004ff4c       $SG95145                   10110f4c     acl_pthread.obj
 0003:0004ff78       $SG95157                   10110f78     acl_pthread.obj
 0003:0004ff94       $SG95187                   10110f94     acl_pthread.obj
 0003:0004ffb0       $SG95188                   10110fb0     acl_pthread.obj
 0003:0004ffcc       $SG95193                   10110fcc     acl_pthread.obj
 0003:0004ffe4       $SG95194                   10110fe4     acl_pthread.obj
 0003:00050000       $SG95207                   10111000     acl_pthread.obj
 0003:00050014       $SG95215                   10111014     acl_pthread.obj
 0003:00050030       $SG95216                   10111030     acl_pthread.obj
 0003:0005004c       $SG95219                   1011104c     acl_pthread.obj
 0003:00050068       $SG95222                   10111068     acl_pthread.obj
 0003:00050084       $SG95223                   10111084     acl_pthread.obj
 0003:000500a4       $SG95074                   101110a4     acl_pthread_cond.obj
 0003:000500bc       $SG95077                   101110bc     acl_pthread_cond.obj
 0003:000500dc       $SG95078                   101110dc     acl_pthread_cond.obj
 0003:000500f8       $SG95084                   101110f8     acl_pthread_cond.obj
 0003:00050110       $SG95089                   10111110     acl_pthread_cond.obj
 0003:00050130       $SG95092                   10111130     acl_pthread_cond.obj
 0003:00050150       $SG95093                   10111150     acl_pthread_cond.obj
 0003:00050170       $SG95110                   10111170     acl_pthread_cond.obj
 0003:00050190       $SG95116                   10111190     acl_pthread_cond.obj
 0003:000501a8       $SG95119                   101111a8     acl_pthread_cond.obj
 0003:000501c8       $SG95120                   101111c8     acl_pthread_cond.obj
 0003:000501e4       $SG95127                   101111e4     acl_pthread_cond.obj
 0003:00050200       $SG95130                   10111200     acl_pthread_cond.obj
 0003:00050220       $SG95131                   10111220     acl_pthread_cond.obj
 0003:0005023c       $SG95150                   1011123c     acl_pthread_cond.obj
 0003:00050258       $SG95154                   10111258     acl_pthread_cond.obj
 0003:00050278       $SG95155                   10111278     acl_pthread_cond.obj
 0003:00050294       $SG95253                   10111294     acl_pthread_mutex.obj
 0003:000502b8       $SG95074                   101112b8     acl_pthread_mutex.obj
 0003:000502d0       $SG95078                   101112d0     acl_pthread_mutex.obj
 0003:000502f4       $SG95079                   101112f4     acl_pthread_mutex.obj
 0003:00050310       $SG95083                   10111310     acl_pthread_mutex.obj
 0003:00050334       $SG95084                   10111334     acl_pthread_mutex.obj
 0003:00050358       $SG95088                   10111358     acl_pthread_mutex.obj
 0003:0005037c       $SG95093                   1011137c     acl_pthread_mutex.obj
 0003:00050398       $SG95097                   10111398     acl_pthread_mutex.obj
 0003:000503bc       $SG95100                   101113bc     acl_pthread_mutex.obj
 0003:000503e0       $SG95101                   101113e0     acl_pthread_mutex.obj
 0003:00050400       $SG95106                   10111400     acl_pthread_mutex.obj
 0003:00050424       $SG95107                   10111424     acl_pthread_mutex.obj
 0003:00050448       $SG95111                   10111448     acl_pthread_mutex.obj
 0003:0005046c       $SG95123                   1011146c     acl_pthread_mutex.obj
 0003:00050490       $SG95130                   10111490     acl_pthread_mutex.obj
 0003:000504a8       $SG95134                   101114a8     acl_pthread_mutex.obj
 0003:000504cc       $SG95135                   101114cc     acl_pthread_mutex.obj
 0003:000504e8       $SG95138                   101114e8     acl_pthread_mutex.obj
 0003:0005050c       $SG95139                   1011150c     acl_pthread_mutex.obj
 0003:00050538       $SG95144                   10111538     acl_pthread_mutex.obj
 0003:00050554       $SG95148                   10111554     acl_pthread_mutex.obj
 0003:00050578       $SG95149                   10111578     acl_pthread_mutex.obj
 0003:00050594       $SG95151                   10111594     acl_pthread_mutex.obj
 0003:000505b8       $SG95152                   101115b8     acl_pthread_mutex.obj
 0003:000505dc       $SG95197                   101115dc     acl_pthread_mutex.obj
 0003:00050600       $SG95210                   10111600     acl_pthread_mutex.obj
 0003:00050628       $SG95233                   10111628     acl_pthread_pool.obj
 0003:00050648       $SG95234                   10111648     acl_pthread_pool.obj
 0003:0005066c       $SG95245                   1011166c     acl_pthread_pool.obj
 0003:0005068c       $SG95246                   1011168c     acl_pthread_pool.obj
 0003:000506ac       $SG95249                   101116ac     acl_pthread_pool.obj
 0003:000506cc       $SG95270                   101116cc     acl_pthread_pool.obj
 0003:000506e4       $SG95273                   101116e4     acl_pthread_pool.obj
 0003:00050704       $SG95276                   10111704     acl_pthread_pool.obj
 0003:00050724       $SG95277                   10111724     acl_pthread_pool.obj
 0003:00050750       $SG95287                   10111750     acl_pthread_pool.obj
 0003:00050770       $SG95289                   10111770     acl_pthread_pool.obj
 0003:00050790       $SG95290                   10111790     acl_pthread_pool.obj
 0003:000507bc       $SG95297                   101117bc     acl_pthread_pool.obj
 0003:000507dc       $SG95300                   101117dc     acl_pthread_pool.obj
 0003:000507fc       $SG95301                   101117fc     acl_pthread_pool.obj
 0003:00050828       $SG95309                   10111828     acl_pthread_pool.obj
 0003:00050848       $SG95311                   10111848     acl_pthread_pool.obj
 0003:00050868       $SG95312                   10111868     acl_pthread_pool.obj
 0003:00050894       $SG95319                   10111894     acl_pthread_pool.obj
 0003:000508b4       $SG95322                   101118b4     acl_pthread_pool.obj
 0003:000508d4       $SG95323                   101118d4     acl_pthread_pool.obj
 0003:00050900       $SG95337                   10111900     acl_pthread_pool.obj
 0003:00050920       $SG95341                   10111920     acl_pthread_pool.obj
 0003:00050940       $SG95342                   10111940     acl_pthread_pool.obj
 0003:0005095c       $SG95352                   1011195c     acl_pthread_pool.obj
 0003:00050974       $SG95356                   10111974     acl_pthread_pool.obj
 0003:00050994       $SG95357                   10111994     acl_pthread_pool.obj
 0003:000509b0       $SG95367                   101119b0     acl_pthread_pool.obj
 0003:000509c8       $SG95371                   101119c8     acl_pthread_pool.obj
 0003:000509e8       $SG95372                   101119e8     acl_pthread_pool.obj
 0003:00050a04       $SG95378                   10111a04     acl_pthread_pool.obj
 0003:00050a18       $SG95384                   10111a18     acl_pthread_pool.obj
 0003:00050a2c       $SG95387                   10111a2c     acl_pthread_pool.obj
 0003:00050a4c       $SG95388                   10111a4c     acl_pthread_pool.obj
 0003:00050a78       $SG95390                   10111a78     acl_pthread_pool.obj
 0003:00050a90       $SG95397                   10111a90     acl_pthread_pool.obj
 0003:00050aa0       $SG95401                   10111aa0     acl_pthread_pool.obj
 0003:00050ac0       $SG95402                   10111ac0     acl_pthread_pool.obj
 0003:00050aec       $SG95404                   10111aec     acl_pthread_pool.obj
 0003:00050b00       $SG95407                   10111b00     acl_pthread_pool.obj
 0003:00050b20       $SG95408                   10111b20     acl_pthread_pool.obj
 0003:00050b4c       $SG95414                   10111b4c     acl_pthread_pool.obj
 0003:00050b60       $SG95419                   10111b60     acl_pthread_pool.obj
 0003:00050b80       $SG95420                   10111b80     acl_pthread_pool.obj
 0003:00050bac       $SG95422                   10111bac     acl_pthread_pool.obj
 0003:00050bcc       $SG95423                   10111bcc     acl_pthread_pool.obj
 0003:00050be8       $SG95427                   10111be8     acl_pthread_pool.obj
 0003:00050c00       $SG95430                   10111c00     acl_pthread_pool.obj
 0003:00050c20       $SG95433                   10111c20     acl_pthread_pool.obj
 0003:00050c40       $SG95434                   10111c40     acl_pthread_pool.obj
 0003:00050c70       $SG95439                   10111c70     acl_pthread_pool.obj
 0003:00050c9c       $SG95442                   10111c9c     acl_pthread_pool.obj
 0003:00050cb4       $SG95446                   10111cb4     acl_pthread_pool.obj
 0003:00050cd4       $SG95447                   10111cd4     acl_pthread_pool.obj
 0003:00050d04       $SG95450                   10111d04     acl_pthread_pool.obj
 0003:00050d24       $SG95451                   10111d24     acl_pthread_pool.obj
 0003:00050d50       $SG95456                   10111d50     acl_pthread_pool.obj
 0003:00050d6c       $SG95466                   10111d6c     acl_pthread_pool.obj
 0003:00050d8c       $SG95467                   10111d8c     acl_pthread_pool.obj
 0003:00050da8       $SG95470                   10111da8     acl_pthread_pool.obj
 0003:00050dc8       $SG95471                   10111dc8     acl_pthread_pool.obj
 0003:00050df8       $SG95473                   10111df8     acl_pthread_pool.obj
 0003:00050e2c       $SG95476                   10111e2c     acl_pthread_pool.obj
 0003:00050e4c       $SG95477                   10111e4c     acl_pthread_pool.obj
 0003:00050e7c       $SG95479                   10111e7c     acl_pthread_pool.obj
 0003:00050ea8       $SG95486                   10111ea8     acl_pthread_pool.obj
 0003:00050ec8       $SG95492                   10111ec8     acl_pthread_pool.obj
 0003:00050ee0       $SG95497                   10111ee0     acl_pthread_pool.obj
 0003:00050f00       $SG95498                   10111f00     acl_pthread_pool.obj
 0003:00050f1c       $SG95501                   10111f1c     acl_pthread_pool.obj
 0003:00050f3c       $SG95502                   10111f3c     acl_pthread_pool.obj
 0003:00050f6c       $SG95504                   10111f6c     acl_pthread_pool.obj
 0003:00050fa0       $SG95507                   10111fa0     acl_pthread_pool.obj
 0003:00050fc0       $SG95508                   10111fc0     acl_pthread_pool.obj
 0003:00050ff0       $SG95510                   10111ff0     acl_pthread_pool.obj
 0003:0005101c       $SG95518                   1011201c     acl_pthread_pool.obj
 0003:0005102c       $SG95527                   1011202c     acl_pthread_pool.obj
 0003:0005104c       $SG95528                   1011204c     acl_pthread_pool.obj
 0003:00051078       $SG95534                   10112078     acl_pthread_pool.obj
 0003:00051098       $SG95535                   10112098     acl_pthread_pool.obj
 0003:000510c8       $SG95541                   101120c8     acl_pthread_pool.obj
 0003:000510e8       $SG95542                   101120e8     acl_pthread_pool.obj
 0003:0005113c       $SG95544                   1011213c     acl_pthread_pool.obj
 0003:0005115c       $SG95545                   1011215c     acl_pthread_pool.obj
 0003:0005117c       $SG95558                   1011217c     acl_pthread_pool.obj
 0003:00051194       $SG95566                   10112194     acl_pthread_pool.obj
 0003:000511b4       $SG95575                   101121b4     acl_pthread_pool.obj
 0003:000511d4       $SG95577                   101121d4     acl_pthread_pool.obj
 0003:000511f4       $SG95578                   101121f4     acl_pthread_pool.obj
 0003:00051220       $SG95582                   10112220     acl_pthread_pool.obj
 0003:00051240       $SG95583                   10112240     acl_pthread_pool.obj
 0003:0005126c       $SG95588                   1011226c     acl_pthread_pool.obj
 0003:00051288       $SG95592                   10112288     acl_pthread_pool.obj
 0003:000512a8       $SG95593                   101122a8     acl_pthread_pool.obj
 0003:000512c4       $SG95595                   101122c4     acl_pthread_pool.obj
 0003:000512e4       $SG95596                   101122e4     acl_pthread_pool.obj
 0003:00051308       $SG95599                   10112308     acl_pthread_pool.obj
 0003:00051328       $SG95600                   10112328     acl_pthread_pool.obj
 0003:00051354       $SG95610                   10112354     acl_pthread_pool.obj
 0003:00051370       $SG95614                   10112370     acl_pthread_pool.obj
 0003:00051390       $SG95615                   10112390     acl_pthread_pool.obj
 0003:000513ac       $SG95619                   101123ac     acl_pthread_pool.obj
 0003:000513cc       $SG95620                   101123cc     acl_pthread_pool.obj
 0003:000513fc       $SG95623                   101123fc     acl_pthread_pool.obj
 0003:0005141c       $SG95626                   1011241c     acl_pthread_pool.obj
 0003:0005143c       $SG95627                   1011243c     acl_pthread_pool.obj
 0003:00051460       $SG95633                   10112460     acl_pthread_pool.obj
 0003:0005147c       $SG95637                   1011247c     acl_pthread_pool.obj
 0003:0005149c       $SG95638                   1011249c     acl_pthread_pool.obj
 0003:000514b8       $SG95640                   101124b8     acl_pthread_pool.obj
 0003:000514d8       $SG95641                   101124d8     acl_pthread_pool.obj
 0003:000514fc       $SG95644                   101124fc     acl_pthread_pool.obj
 0003:0005151c       $SG95645                   1011251c     acl_pthread_pool.obj
 0003:00051548       $SG95655                   10112548     acl_pthread_pool.obj
 0003:00051564       $SG95660                   10112564     acl_pthread_pool.obj
 0003:00051584       $SG95661                   10112584     acl_pthread_pool.obj
 0003:000515a0       $SG95666                   101125a0     acl_pthread_pool.obj
 0003:000515c0       $SG95672                   101125c0     acl_pthread_pool.obj
 0003:000515e0       $SG95673                   101125e0     acl_pthread_pool.obj
 0003:000515fc       $SG95676                   101125fc     acl_pthread_pool.obj
 0003:0005161c       $SG95677                   1011261c     acl_pthread_pool.obj
 0003:00051650       $SG95680                   10112650     acl_pthread_pool.obj
 0003:00051670       $SG95681                   10112670     acl_pthread_pool.obj
 0003:00051698       $SG95683                   10112698     acl_pthread_pool.obj
 0003:000516b8       $SG95684                   101126b8     acl_pthread_pool.obj
 0003:000516d8       $SG95687                   101126d8     acl_pthread_pool.obj
 0003:000516f8       $SG95688                   101126f8     acl_pthread_pool.obj
 0003:00051724       $SG95692                   10112724     acl_pthread_pool.obj
 0003:00051744       $SG95693                   10112744     acl_pthread_pool.obj
 0003:00051774       $SG95703                   10112774     acl_pthread_pool.obj
 0003:00051790       $SG95709                   10112790     acl_pthread_pool.obj
 0003:000517b0       $SG95710                   101127b0     acl_pthread_pool.obj
 0003:000517cc       $SG95721                   101127cc     acl_pthread_pool.obj
 0003:000517e8       $SG95727                   101127e8     acl_pthread_pool.obj
 0003:00051808       $SG95728                   10112808     acl_pthread_pool.obj
 0003:00051824       $SG95734                   10112824     acl_pthread_pool.obj
 0003:0005183c       $SG95738                   1011283c     acl_pthread_pool.obj
 0003:0005185c       $SG95739                   1011285c     acl_pthread_pool.obj
 0003:00051888       $SG95741                   10112888     acl_pthread_pool.obj
 0003:000518a8       $SG95742                   101128a8     acl_pthread_pool.obj
 0003:000518d4       $SG95110                   101128d4     acl_pthread_pool.obj
 0003:000518e4       $SG95122                   101128e4     acl_pthread_pool.obj
 0003:00051904       $SG95123                   10112904     acl_pthread_pool.obj
 0003:00051924       $SG95126                   10112924     acl_pthread_pool.obj
 0003:00051948       $SG95130                   10112948     acl_pthread_pool.obj
 0003:00051968       $SG95131                   10112968     acl_pthread_pool.obj
 0003:00051994       $SG95140                   10112994     acl_pthread_pool.obj
 0003:000519b8       $SG95148                   101129b8     acl_pthread_pool.obj
 0003:000519dc       $SG95151                   101129dc     acl_pthread_pool.obj
 0003:000519fc       $SG95152                   101129fc     acl_pthread_pool.obj
 0003:00051a28       $SG95154                   10112a28     acl_pthread_pool.obj
 0003:00051a3c       $SG95157                   10112a3c     acl_pthread_pool.obj
 0003:00051a5c       $SG95158                   10112a5c     acl_pthread_pool.obj
 0003:00051a88       $SG95161                   10112a88     acl_pthread_pool.obj
 0003:00051a9c       $SG95168                   10112a9c     acl_pthread_pool.obj
 0003:00051aac       $SG95180                   10112aac     acl_pthread_pool.obj
 0003:00051acc       $SG95181                   10112acc     acl_pthread_pool.obj
 0003:00051afc       $SG95186                   10112afc     acl_pthread_pool.obj
 0003:00051b1c       $SG95187                   10112b1c     acl_pthread_pool.obj
 0003:00051b44       $SG95204                   10112b44     acl_pthread_pool.obj
 0003:00051b64       $SG95205                   10112b64     acl_pthread_pool.obj
 0003:00051b98       $SG95213                   10112b98     acl_pthread_pool.obj
 0003:00051bb8       $SG95214                   10112bb8     acl_pthread_pool.obj
 0003:00051bd4       $SG95220                   10112bd4     acl_pthread_pool.obj
 0003:00051bf4       $SG95221                   10112bf4     acl_pthread_pool.obj
 0003:00051c1c       $SG95228                   10112c1c     acl_pthread_pool.obj
 0003:00051c3c       $SG95079                   10112c3c     acl_pthread_rwlock.obj
 0003:00051c60       $SG95091                   10112c60     acl_pthread_rwlock.obj
 0003:00051c84       $SG95099                   10112c84     acl_pthread_rwlock.obj
 0003:00051ca8       $SG95107                   10112ca8     acl_pthread_rwlock.obj
 0003:00051ccc       $SG95115                   10112ccc     acl_pthread_rwlock.obj
 0003:00051cf0       $SG95204                   10112cf0     acl_pthread_rwlock.obj
 0003:00051d14       $SG95219                   10112d14     acl_pthread_rwlock.obj
 0003:00051d38       $SG95074                   10112d38     acl_sem.obj
 0003:00051d48       $SG95078                   10112d48     acl_sem.obj
 0003:00051d60       $SG95081                   10112d60     acl_sem.obj
 0003:00051d78       $SG95082                   10112d78     acl_sem.obj
 0003:00051d98       $SG95086                   10112d98     acl_sem.obj
 0003:00051db0       $SG95087                   10112db0     acl_sem.obj
 0003:00051ddc       $SG95091                   10112ddc     acl_sem.obj
 0003:00051df4       $SG95106                   10112df4     acl_sem.obj
 0003:00051e0c       $SG95114                   10112e0c     acl_sem.obj
 0003:00051e24       $SG95120                   10112e24     acl_sem.obj
 0003:00051e3c       $SG95121                   10112e3c     acl_sem.obj
 0003:00051e58       $SG95134                   10112e58     acl_sem.obj
 0003:00051e70       $SG95135                   10112e70     acl_sem.obj
 0003:00051e9c       $SG95147                   10112e9c     acl_sem.obj
 0003:00051eac       $SG95150                   10112eac     acl_sem.obj
 0003:00051ec4       $SG95151                   10112ec4     acl_sem.obj
 0003:00051ee0       $SG95156                   10112ee0     acl_sem.obj
 0003:00051ef0       $SG95159                   10112ef0     acl_sem.obj
 0003:00051f08       $SG95160                   10112f08     acl_sem.obj
 0003:00051f24       $SG95164                   10112f24     acl_sem.obj
 0003:00051f3c       $SG95165                   10112f3c     acl_sem.obj
 0003:00051f64       $SG95235                   10112f64     acl_aqueue.obj
 0003:00051f74       $SG95237                   10112f74     acl_aqueue.obj
 0003:00051f8c       $SG95240                   10112f8c     acl_aqueue.obj
 0003:00051fa4       $SG95243                   10112fa4     acl_aqueue.obj
 0003:00051fb8       $SG95247                   10112fb8     acl_aqueue.obj
 0003:00051fd0       $SG95254                   10112fd0     acl_aqueue.obj
 0003:00051fe8       $SG95257                   10112fe8     acl_aqueue.obj
 0003:00052004       $SG95083                   10113004     acl_aqueue.obj
 0003:00052014       $SG95088                   10113014     acl_aqueue.obj
 0003:0005202c       $SG95091                   1011302c     acl_aqueue.obj
 0003:00052044       $SG95114                   10113044     acl_aqueue.obj
 0003:00052054       $SG95123                   10113054     acl_aqueue.obj
 0003:0005207c       $SG95125                   1011307c     acl_aqueue.obj
 0003:00052090       $SG95136                   10113090     acl_aqueue.obj
 0003:000520a8       $SG95139                   101130a8     acl_aqueue.obj
 0003:000520bc       $SG95143                   101130bc     acl_aqueue.obj
 0003:000520d4       $SG95155                   101130d4     acl_aqueue.obj
 0003:000520e0       $SG95164                   101130e0     acl_aqueue.obj
 0003:000520fc       $SG95168                   101130fc     acl_aqueue.obj
 0003:00052118       $SG95170                   10113118     acl_aqueue.obj
 0003:00052130       $SG95179                   10113130     acl_aqueue.obj
 0003:0005214c       $SG95189                   1011314c     acl_aqueue.obj
 0003:0005215c       $SG95192                   1011315c     acl_aqueue.obj
 0003:00052170       $SG95211                   10113170     acl_aqueue.obj
 0003:0005218c       $SG95214                   1011318c     acl_aqueue.obj
 0003:000521a8       $SG95217                   101131a8     acl_aqueue.obj
 0003:000521b8       $SG95221                   101131b8     acl_aqueue.obj
 0003:000521d0       $SG95229                   101131d0     acl_aqueue.obj
 0003:000521e0       $SG95269                   101131e0     acl_msgio.obj
 0003:000521f0       $SG95272                   101131f0     acl_msgio.obj
 0003:00052208       $SG95276                   10113208     acl_msgio.obj
 0003:00052220       $SG95285                   10113220     acl_msgio.obj
 0003:00052230       $SG95288                   10113230     acl_msgio.obj
 0003:00052250       $SG95303                   10113250     acl_msgio.obj
 0003:00052260       $SG95309                   10113260     acl_msgio.obj
 0003:00052280       $SG95341                   10113280     acl_msgio.obj
 0003:00052290       $SG95347                   10113290     acl_msgio.obj
 0003:000522b0       $SG95356                   101132b0     acl_msgio.obj
 0003:000522c4       $SG95362                   101132c4     acl_msgio.obj
 0003:000522e4       $SG95369                   101132e4     acl_msgio.obj
 0003:000522f8       $SG95376                   101132f8     acl_msgio.obj
 0003:00052318       $SG95395                   10113318     acl_msgio.obj
 0003:0005232c       $SG95403                   1011332c     acl_msgio.obj
 0003:0005235c       $SG95413                   1011335c     acl_msgio.obj
 0003:0005236c       $SG95419                   1011336c     acl_msgio.obj
 0003:00052380       $SG95422                   10113380     acl_msgio.obj
 0003:000523a4       $SG95426                   101133a4     acl_msgio.obj
 0003:000523c8       $SG95438                   101133c8     acl_msgio.obj
 0003:000523dc       $SG95442                   101133dc     acl_msgio.obj
 0003:000523f8       $SG95455                   101133f8     acl_msgio.obj
 0003:0005240c       $SG95462                   1011340c     acl_msgio.obj
 0003:00052424       $SG95465                   10113424     acl_msgio.obj
 0003:00052440       $SG95475                   10113440     acl_msgio.obj
 0003:00052450       $SG95481                   10113450     acl_msgio.obj
 0003:00052468       $SG95487                   10113468     acl_msgio.obj
 0003:00052484       $SG95492                   10113484     acl_msgio.obj
 0003:00052494       $SG95494                   10113494     acl_msgio.obj
 0003:000524bc       $SG95508                   101134bc     acl_msgio.obj
 0003:000524d4       $SG95525                   101134d4     acl_msgio.obj
 0003:000524e4       $SG95528                   101134e4     acl_msgio.obj
 0003:00052500       $SG95545                   10113500     acl_msgio.obj
 0003:00052514       $SG95552                   10113514     acl_msgio.obj
 0003:00052530       $SG95563                   10113530     acl_msgio.obj
 0003:00052540       $SG95568                   10113540     acl_msgio.obj
 0003:00052558       $SG95571                   10113558     acl_msgio.obj
 0003:0005256c       $SG95574                   1011356c     acl_msgio.obj
 0003:0005258c       $SG95581                   1011358c     acl_msgio.obj
 0003:000525a0       $SG95583                   101135a0     acl_msgio.obj
 0003:000525ac       $SG95590                   101135ac     acl_msgio.obj
 0003:000525bc       $SG95596                   101135bc     acl_msgio.obj
 0003:000525d8       $SG95681                   101135d8     acl_msgio.obj
 0003:000525e4       $SG95691                   101135e4     acl_msgio.obj
 0003:000525f4       $SG95699                   101135f4     acl_msgio.obj
 0003:00052610       $SG95710                   10113610     acl_msgio.obj
 0003:00052620       $SG95715                   10113620     acl_msgio.obj
 0003:00052634       $SG95723                   10113634     acl_msgio.obj
 0003:00052658       $SG95107                   10113658     acl_msgio.obj
 0003:00052670       $SG95121                   10113670     acl_msgio.obj
 0003:00052688       $SG95133                   10113688     acl_msgio.obj
 0003:000526a0       $SG95141                   101136a0     acl_msgio.obj
 0003:000526b8       $SG95151                   101136b8     acl_msgio.obj
 0003:000526d0       $SG95175                   101136d0     acl_msgio.obj
 0003:000526e8       $SG95305                   101136e8     acl_xml.obj
 0003:000526fc       $SG95306                   101136fc     acl_xml.obj
 0003:00052710       $SG95355                   10113710     acl_xml.obj
 0003:00052724       $SG95356                   10113724     acl_xml.obj
 0003:00052738       $SG95373                   10113738     acl_xml.obj
 0003:0005274c       $SG95377                   1011374c     acl_xml.obj
 0003:00052760       $SG95433                   10113760     acl_xml.obj
 0003:00052774       $SG95438                   10113774     acl_xml.obj
 0003:00052788       $SG95444                   10113788     acl_xml.obj
 0003:00052798       $SG95457                   10113798     acl_xml.obj
 0003:000527b8       $SG95075                   101137b8     acl_xml.obj
 0003:000527cc       $SG95079                   101137cc     acl_xml.obj
 0003:000527e0       $SG95084                   101137e0     acl_xml.obj
 0003:000527f4       $SG95089                   101137f4     acl_xml.obj
 0003:00052808       $SG95176                   10113808     acl_xml.obj
 0003:0005281c       $SG95180                   1011381c     acl_xml.obj
 0003:00052830       $SG95188                   10113830     acl_xml.obj
 0003:00052844       $SG95193                   10113844     acl_xml.obj
 0003:00052858       _status_tab                10113858     acl_xml_parse.obj
 0003:000528d8       $SG95238                   101138d8     acl_xml_util.obj
 0003:000528dc       $SG95242                   101138dc     acl_xml_util.obj
 0003:000528e8       $SG95247                   101138e8     acl_xml_util.obj
 0003:000528f8       $SG95251                   101138f8     acl_xml_util.obj
 0003:00052900       $SG95401                   10113900     acl_xml_util.obj
 0003:00052908       $SG95406                   10113908     acl_xml_util.obj
 0003:00052910       $SG95413                   10113910     acl_xml_util.obj
 0003:00052918       $SG95419                   10113918     acl_xml_util.obj
 0003:0005291c       $SG95425                   1011391c     acl_xml_util.obj
 0003:00052924       $SG95428                   10113924     acl_xml_util.obj
 0003:00052928       $SG95433                   10113928     acl_xml_util.obj
 0003:0005292c       $SG95436                   1011392c     acl_xml_util.obj
 0003:00052930       $SG95439                   10113930     acl_xml_util.obj
 0003:00052934       $SG95443                   10113934     acl_xml_util.obj
 0003:00052940       $SG95449                   10113940     acl_xml_util.obj
 0003:00052948       $SG95458                   10113948     acl_xml_util.obj
 0003:0005294c       $SG95468                   1011394c     acl_xml_util.obj
 0003:00052950       $SG95471                   10113950     acl_xml_util.obj
 0003:00052964       $SG95475                   10113964     acl_xml_util.obj
 0003:00052978       $SG95484                   10113978     acl_xml_util.obj
 0003:0005297c       $SG95487                   1011397c     acl_xml_util.obj
 0003:0005298c       $SG95496                   1011398c     acl_xml_util.obj
 0003:00052990       $SG95508                   10113990     acl_xml_util.obj
 0003:000529a4       $SG95512                   101139a4     acl_xml_util.obj
 0003:000529b8       $SG95523                   101139b8     acl_xml_util.obj
 0003:000529c8       $SG95073                   101139c8     acl_xml_util.obj
 0003:000529ec       $SG95109                   101139ec     acl_xml_util.obj
 0003:000529f4       $SG95137                   101139f4     acl_xml_util.obj
 0003:000529f8       $SG95156                   101139f8     acl_xml_util.obj
 0003:000529fc       $SG95192                   101139fc     acl_xml_util.obj
 0003:00052a04       $SG95368                   10113a04     acl_events.obj
 0003:00052a20       $SG95371                   10113a20     acl_events.obj
 0003:00052a3c       $SG95386                   10113a3c     acl_events.obj
 0003:00052a48       $SG95390                   10113a48     acl_events.obj
 0003:00052a78       $SG95391                   10113a78     acl_events.obj
 0003:00052a8c       $SG95412                   10113a8c     acl_events.obj
 0003:00052aa0       $SG95413                   10113aa0     acl_events.obj
 0003:00052ab8       $SG95421                   10113ab8     acl_events.obj
 0003:00052ad0       $SG95422                   10113ad0     acl_events.obj
 0003:00052ae8       $SG95437                   10113ae8     acl_events.obj
 0003:00052b00       $SG95438                   10113b00     acl_events.obj
 0003:00052b18       $SG95446                   10113b18     acl_events.obj
 0003:00052b30       $SG95447                   10113b30     acl_events.obj
 0003:00052b48       $SG95455                   10113b48     acl_events.obj
 0003:00052b64       $SG95456                   10113b64     acl_events.obj
 0003:00052b7c       $SG95473                   10113b7c     acl_events.obj
 0003:00052b8c       $SG95485                   10113b8c     acl_events.obj
 0003:00052ba8       $SG95499                   10113ba8     acl_events.obj
 0003:00052bc4       $SG95519                   10113bc4     acl_events.obj
 0003:00052be0       $SG95524                   10113be0     acl_events.obj
 0003:00052bfc       $SG95529                   10113bfc     acl_events.obj
 0003:00052c18       $SG95546                   10113c18     acl_events.obj
 0003:00052c30       $SG95550                   10113c30     acl_events.obj
 0003:00052c4c       $SG95563                   10113c4c     acl_events.obj
 0003:00052c64       $SG95567                   10113c64     acl_events.obj
 0003:00052c80       $SG95585                   10113c80     acl_events.obj
 0003:00052c98       $SG95589                   10113c98     acl_events.obj
 0003:00052cb4       $SG95596                   10113cb4     acl_events.obj
 0003:00052ccc       $SG95600                   10113ccc     acl_events.obj
 0003:00052ce8       $SG95638                   10113ce8     acl_events.obj
 0003:00052d00       $SG95640                   10113d00     acl_events.obj
 0003:00052d18       $SG95373                   10113d18     acl_timer.obj
 0003:00052d30       $SG95407                   10113d30     acl_timer.obj
 0003:00052d48       $SG95430                   10113d48     acl_timer.obj
 0003:00052d60       $SG95546                   10113d60     acl_timer.obj
 0003:00052d78       $SG95566                   10113d78     acl_timer.obj
 0003:00052d90       $SG95571                   10113d90     acl_timer.obj
 0003:00052da8       $SG95353                   10113da8     events_alloc.obj
 0003:00052dbc       $SG95354                   10113dbc     events_alloc.obj
 0003:00052dd8       $SG95368                   10113dd8     events_alloc.obj
 0003:00052df4       $SG95369                   10113df4     events_alloc.obj
 0003:00052e10       $SG95383                   10113e10     events_alloc.obj
 0003:00052e2c       $SG95384                   10113e2c     events_alloc.obj
 0003:00052e48       $SG95392                   10113e48     events_alloc.obj
 0003:00052e64       $SG95393                   10113e64     events_alloc.obj
 0003:00052e80       $SG95401                   10113e80     events_alloc.obj
 0003:00052e9c       $SG95402                   10113e9c     events_alloc.obj
 0003:00052eb8       $SG95410                   10113eb8     events_alloc.obj
 0003:00052ed8       $SG95411                   10113ed8     events_alloc.obj
 0003:00052ef4       $SG95419                   10113ef4     events_alloc.obj
 0003:00052f0c       $SG95420                   10113f0c     events_alloc.obj
 0003:00052f28       $SG95428                   10113f28     events_alloc.obj
 0003:00052f40       $SG95429                   10113f40     events_alloc.obj
 0003:00052f5c       $SG95437                   10113f5c     events_alloc.obj
 0003:00052f74       $SG95438                   10113f74     events_alloc.obj
 0003:00052f90       $SG95452                   10113f90     events_alloc.obj
 0003:00052fac       $SG95453                   10113fac     events_alloc.obj
 0003:00052fc8       $SG95463                   10113fc8     events_alloc.obj
 0003:00052fe4       $SG95464                   10113fe4     events_alloc.obj
 0003:00053000       $SG95476                   10114000     events_alloc.obj
 0003:0005301c       $SG95477                   1011401c     events_alloc.obj
 0003:00053038       $SG95487                   10114038     events_alloc.obj
 0003:00053054       $SG95488                   10114054     events_alloc.obj
 0003:00053070       $SG95494                   10114070     events_alloc.obj
 0003:00053088       $SG95495                   10114088     events_alloc.obj
 0003:000530a4       $SG95503                   101140a4     events_alloc.obj
 0003:000530c0       $SG95509                   101140c0     events_alloc.obj
 0003:000530cc       $SG95514                   101140cc     events_alloc.obj
 0003:000530e8       $SG95515                   101140e8     events_alloc.obj
 0003:00053104       $SG95520                   10114104     events_alloc.obj
 0003:00053114       $SG95523                   10114114     events_alloc.obj
 0003:00053124       $SG95123                   10114124     events_dog.obj
 0003:00053134       $SG95125                   10114134     events_dog.obj
 0003:00053140       $SG95130                   10114140     events_dog.obj
 0003:00053168       $SG95133                   10114168     events_dog.obj
 0003:00053190       $SG95135                   10114190     events_dog.obj
 0003:000531ac       $SG95138                   101141ac     events_dog.obj
 0003:000531c8       $SG95140                   101141c8     events_dog.obj
 0003:000531e4       $SG95151                   101141e4     events_dog.obj
 0003:000531f8       $SG95155                   101141f8     events_dog.obj
 0003:00053214       $SG95158                   10114214     events_dog.obj
 0003:0005322c       $SG95168                   1011422c     events_dog.obj
 0003:00053240       $SG95172                   10114240     events_dog.obj
 0003:0005325c       $SG95179                   1011425c     events_dog.obj
 0003:00053278       $SG95360                   10114278     events_fdtable.obj
 0003:00053298       $SG95367                   10114298     events_fdtable.obj
 0003:000532b8       $SG95395                   101142b8     events_iocp.obj
 0003:000532c8       $SG95403                   101142c8     events_iocp.obj
 0003:000532e8       $SG95422                   101142e8     events_iocp.obj
 0003:00053304       $SG95429                   10114304     events_iocp.obj
 0003:00053320       $SG95452                   10114320     events_iocp.obj
 0003:00053334       $SG95526                   10114334     events_iocp.obj
 0003:00053348       $SG95533                   10114348     events_iocp.obj
 0003:0005335c       $SG95536                   1011435c     events_iocp.obj
 0003:00053390       $SG95541                   10114390     events_iocp.obj
 0003:000533b0       $SG95558                   101143b0     events_iocp.obj
 0003:000533c4       $SG95565                   101143c4     events_iocp.obj
 0003:000533d8       $SG95568                   101143d8     events_iocp.obj
 0003:00053400       $SG95573                   10114400     events_iocp.obj
 0003:00053420       $SG95596                   10114420     events_iocp.obj
 0003:00053430       $SG95602                   10114430     events_iocp.obj
 0003:0005344c       $SG95610                   1011444c     events_iocp.obj
 0003:00053458       $SG95618                   10114458     events_iocp.obj
 0003:00053484       $SG95623                   10114484     events_iocp.obj
 0003:000534a0       $SG95630                   101144a0     events_iocp.obj
 0003:000534bc       $SG95642                   101144bc     events_iocp.obj
 0003:000534c8       $SG95646                   101144c8     events_iocp.obj
 0003:000534e4       $SG95647                   101144e4     events_iocp.obj
 0003:00053504       $SG95649                   10114504     events_iocp.obj
 0003:00053520       $SG95650                   10114520     events_iocp.obj
 0003:00053540       $SG95656                   10114540     events_iocp.obj
 0003:0005355c       $SG95657                   1011455c     events_iocp.obj
 0003:00053580       $SG95665                   10114580     events_iocp.obj
 0003:00053590       ?any_ip@?1??enable_connect@@9@9 10114590     events_iocp.obj
 0003:00053594       $SG95680                   10114594     events_iocp.obj
 0003:0005359c       $SG95694                   1011459c     events_iocp.obj
 0003:000535d0       $SG95699                   101145d0     events_iocp.obj
 0003:000535ec       $SG95705                   101145ec     events_iocp.obj
 0003:00053614       $SG95713                   10114614     events_iocp.obj
 0003:00053624       $SG95721                   10114624     events_iocp.obj
 0003:00053650       $SG95726                   10114650     events_iocp.obj
 0003:0005366c       $SG95733                   1011466c     events_iocp.obj
 0003:00053694       $SG95786                   10114694     events_iocp.obj
 0003:000536a0       $SG95828                   101146a0     events_iocp.obj
 0003:000536b8       $SG95832                   101146b8     events_iocp.obj
 0003:000536d4       $SG95903                   101146d4     events_iocp.obj
 0003:000536f0       $SG95909                   101146f0     events_iocp.obj
 0003:00053700       $SG95913                   10114700     events_iocp.obj
 0003:00053708       $SG95914                   10114708     events_iocp.obj
 0003:00053714       $SG95921                   10114714     events_iocp.obj
 0003:00053734       $SG95601                   10114734     events_select.obj
 0003:00053748       $SG95609                   10114748     events_select.obj
 0003:0005375c       $SG95612                   1011475c     events_select.obj
 0003:00053780       $SG95614                   10114780     events_select.obj
 0003:000537a0       $SG95680                   101147a0     events_select.obj
 0003:000537b4       $SG95688                   101147b4     events_select.obj
 0003:000537c8       $SG95691                   101147c8     events_select.obj
 0003:000537ec       $SG95693                   101147ec     events_select.obj
 0003:0005380c       $SG95759                   1011480c     events_select.obj
 0003:00053824       $SG95769                   10114824     events_select.obj
 0003:0005384c       $SG95776                   1011484c     events_select.obj
 0003:00053874       $SG95846                   10114874     events_select.obj
 0003:00053880       $SG95886                   10114880     events_select.obj
 0003:0005389c       $SG95889                   1011489c     events_select.obj
 0003:000538b8       $SG95890                   101148b8     events_select.obj
 0003:000538d0       $SG95923                   101148d0     events_select.obj
 0003:000538e8       $SG95927                   101148e8     events_select.obj
 0003:00053904       $SG95969                   10114904     events_select.obj
 0003:00053920       $SG95976                   10114920     events_select.obj
 0003:00053930       $SG95376                   10114930     events_select_thr.obj
 0003:00053944       $SG95387                   10114944     events_select_thr.obj
 0003:00053964       $SG95388                   10114964     events_select_thr.obj
 0003:0005397c       $SG95392                   1011497c     events_select_thr.obj
 0003:0005399c       $SG95393                   1011499c     events_select_thr.obj
 0003:000539c4       $SG95397                   101149c4     events_select_thr.obj
 0003:000539e4       $SG95398                   101149e4     events_select_thr.obj
 0003:00053a0c       $SG95403                   10114a0c     events_select_thr.obj
 0003:00053a2c       $SG95404                   10114a2c     events_select_thr.obj
 0003:00053a58       $SG95450                   10114a58     events_select_thr.obj
 0003:00053a78       $SG95451                   10114a78     events_select_thr.obj
 0003:00053a94       $SG95466                   10114a94     events_select_thr.obj
 0003:00053aa8       $SG95477                   10114aa8     events_select_thr.obj
 0003:00053ac8       $SG95478                   10114ac8     events_select_thr.obj
 0003:00053ae0       $SG95482                   10114ae0     events_select_thr.obj
 0003:00053b00       $SG95483                   10114b00     events_select_thr.obj
 0003:00053b28       $SG95487                   10114b28     events_select_thr.obj
 0003:00053b48       $SG95488                   10114b48     events_select_thr.obj
 0003:00053b70       $SG95493                   10114b70     events_select_thr.obj
 0003:00053b90       $SG95494                   10114b90     events_select_thr.obj
 0003:00053bbc       $SG95540                   10114bbc     events_select_thr.obj
 0003:00053bdc       $SG95541                   10114bdc     events_select_thr.obj
 0003:00053bf8       $SG95555                   10114bf8     events_select_thr.obj
 0003:00053c0c       $SG95566                   10114c0c     events_select_thr.obj
 0003:00053c2c       $SG95567                   10114c2c     events_select_thr.obj
 0003:00053c44       $SG95571                   10114c44     events_select_thr.obj
 0003:00053c64       $SG95572                   10114c64     events_select_thr.obj
 0003:00053c8c       $SG95576                   10114c8c     events_select_thr.obj
 0003:00053cac       $SG95577                   10114cac     events_select_thr.obj
 0003:00053cd4       $SG95582                   10114cd4     events_select_thr.obj
 0003:00053cf4       $SG95583                   10114cf4     events_select_thr.obj
 0003:00053d20       $SG95629                   10114d20     events_select_thr.obj
 0003:00053d40       $SG95630                   10114d40     events_select_thr.obj
 0003:00053d5c       $SG95639                   10114d5c     events_select_thr.obj
 0003:00053d74       $SG95650                   10114d74     events_select_thr.obj
 0003:00053d94       $SG95651                   10114d94     events_select_thr.obj
 0003:00053dac       $SG95655                   10114dac     events_select_thr.obj
 0003:00053dcc       $SG95662                   10114dcc     events_select_thr.obj
 0003:00053dec       $SG95663                   10114dec     events_select_thr.obj
 0003:00053e08       $SG95667                   10114e08     events_select_thr.obj
 0003:00053e1c       $SG95674                   10114e1c     events_select_thr.obj
 0003:00053e3c       $SG95675                   10114e3c     events_select_thr.obj
 0003:00053e58       $SG95677                   10114e58     events_select_thr.obj
 0003:00053e74       $SG95734                   10114e74     events_select_thr.obj
 0003:00053e94       $SG95744                   10114e94     events_select_thr.obj
 0003:00053eb4       $SG95745                   10114eb4     events_select_thr.obj
 0003:00053ed0       $SG95781                   10114ed0     events_select_thr.obj
 0003:00053edc       $SG95809                   10114edc     events_select_thr.obj
 0003:00053efc       $SG95810                   10114efc     events_select_thr.obj
 0003:00053f14       $SG95827                   10114f14     events_select_thr.obj
 0003:00053f34       $SG95828                   10114f34     events_select_thr.obj
 0003:00053f50       $SG95835                   10114f50     events_select_thr.obj
 0003:00053f70       $SG95836                   10114f70     events_select_thr.obj
 0003:00053f88       $SG95846                   10114f88     events_select_thr.obj
 0003:00053fa8       $SG95847                   10114fa8     events_select_thr.obj
 0003:00053fc4       $SG95860                   10114fc4     events_select_thr.obj
 0003:00053fe4       $SG95861                   10114fe4     events_select_thr.obj
 0003:00054000       $SG95864                   10115000     events_select_thr.obj
 0003:00054020       $SG95865                   10115020     events_select_thr.obj
 0003:00054044       $SG95874                   10115044     events_select_thr.obj
 0003:00054064       $SG95875                   10115064     events_select_thr.obj
 0003:0005407c       $SG95897                   1011507c     events_select_thr.obj
 0003:0005409c       $SG95898                   1011509c     events_select_thr.obj
 0003:000540b8       $SG95909                   101150b8     events_select_thr.obj
 0003:000540d8       $SG95910                   101150d8     events_select_thr.obj
 0003:000540f0       $SG95925                   101150f0     events_select_thr.obj
 0003:00054110       $SG95926                   10115110     events_select_thr.obj
 0003:0005412c       $SG95939                   1011512c     events_select_thr.obj
 0003:0005414c       $SG95953                   1011514c     events_select_thr.obj
 0003:00054158       $SG95958                   10115158     events_select_thr.obj
 0003:00054178       $SG95959                   10115178     events_select_thr.obj
 0003:00054190       $SG95973                   10115190     events_select_thr.obj
 0003:000541b0       $SG95980                   101151b0     events_select_thr.obj
 0003:000541c8       $SG95991                   101151c8     events_select_thr.obj
 0003:000541e8       $SG95992                   101151e8     events_select_thr.obj
 0003:00054204       $SG96000                   10115204     events_select_thr.obj
 0003:00054224       $SG96001                   10115224     events_select_thr.obj
 0003:00054240       $SG95360                   10115240     events_timer.obj
 0003:00054254       $SG95379                   10115254     events_timer.obj
 0003:00054270       $SG95383                   10115270     events_timer.obj
 0003:0005428c       $SG95386                   1011528c     events_timer.obj
 0003:000542ac       $SG95390                   101152ac     events_timer.obj
 0003:000542c8       $SG95400                   101152c8     events_timer.obj
 0003:000542dc       $SG95409                   101152dc     events_timer.obj
 0003:000542f0       $SG95427                   101152f0     events_timer.obj
 0003:00054310       $SG95431                   10115310     events_timer.obj
 0003:0005432c       $SG95436                   1011532c     events_timer.obj
 0003:00054344       $SG95360                   10115344     events_timer_thr.obj
 0003:0005435c       $SG95367                   1011535c     events_timer_thr.obj
 0003:00054374       $SG95374                   10115374     events_timer_thr.obj
 0003:00054394       $SG95375                   10115394     events_timer_thr.obj
 0003:000543ac       $SG95391                   101153ac     events_timer_thr.obj
 0003:000543c8       $SG95395                   101153c8     events_timer_thr.obj
 0003:000543e8       $SG95398                   101153e8     events_timer_thr.obj
 0003:00054408       $SG95402                   10115408     events_timer_thr.obj
 0003:00054424       $SG95417                   10115424     events_timer_thr.obj
 0003:00054444       $SG95418                   10115444     events_timer_thr.obj
 0003:00054460       $SG95427                   10115460     events_timer_thr.obj
 0003:00054478       $SG95439                   10115478     events_timer_thr.obj
 0003:00054498       $SG95440                   10115498     events_timer_thr.obj
 0003:000544b0       $SG95457                   101154b0     events_timer_thr.obj
 0003:000544d0       $SG95465                   101154d0     events_timer_thr.obj
 0003:000544f0       $SG95466                   101154f0     events_timer_thr.obj
 0003:0005450c       $SG95470                   1011550c     events_timer_thr.obj
 0003:00054524       $SG95490                   10115524     events_timer_thr.obj
 0003:00054544       $SG95491                   10115544     events_timer_thr.obj
 0003:0005455c       $SG95506                   1011555c     events_timer_thr.obj
 0003:0005457c       $SG95507                   1011557c     events_timer_thr.obj
 0003:00054598       $SG95525                   10115598     events_timer_thr.obj
 0003:000545b8       $SG95526                   101155b8     events_timer_thr.obj
 0003:000545d0       $SG95541                   101155d0     events_timer_thr.obj
 0003:000545f0       $SG95542                   101155f0     events_timer_thr.obj
 0003:0005460c       $SG95549                   1011560c     events_timer_thr.obj
 0003:0005462c       $SG95550                   1011562c     events_timer_thr.obj
 0003:00054648       $SG95382                   10115648     events_wmsg.obj
 0003:00054658       $SG95391                   10115658     events_wmsg.obj
 0003:0005466c       $SG95392                   1011566c     events_wmsg.obj
 0003:00054670       $SG95407                   10115670     events_wmsg.obj
 0003:00054680       $SG95412                   10115680     events_wmsg.obj
 0003:00054684       $SG95415                   10115684     events_wmsg.obj
 0003:000546a0       $SG95429                   101156a0     events_wmsg.obj
 0003:000546b4       $SG95444                   101156b4     events_wmsg.obj
 0003:000546d0       $SG95464                   101156d0     events_wmsg.obj
 0003:000546e4       $SG95479                   101156e4     events_wmsg.obj
 0003:00054700       $SG95493                   10115700     events_wmsg.obj
 0003:00054714       $SG95501                   10115714     events_wmsg.obj
 0003:00054728       $SG95504                   10115728     events_wmsg.obj
 0003:0005474c       $SG95506                   1011574c     events_wmsg.obj
 0003:0005476c       $SG95521                   1011576c     events_wmsg.obj
 0003:00054780       $SG95529                   10115780     events_wmsg.obj
 0003:00054794       $SG95532                   10115794     events_wmsg.obj
 0003:000547b8       $SG95534                   101157b8     events_wmsg.obj
 0003:000547d8       $SG95549                   101157d8     events_wmsg.obj
 0003:000547f0       $SG95559                   101157f0     events_wmsg.obj
 0003:00054818       $SG95562                   10115818     events_wmsg.obj
 0003:00054840       $SG95577                   10115840     events_wmsg.obj
 0003:00054850       $SG95583                   10115850     events_wmsg.obj
 0003:00054864       $SG95591                   10115864     events_wmsg.obj
 0003:00054874       $SG95597                   10115874     events_wmsg.obj
 0003:00054888       $SG95605                   10115888     events_wmsg.obj
 0003:00054898       $SG95611                   10115898     events_wmsg.obj
 0003:000548ac       $SG95633                   101158ac     events_wmsg.obj
 0003:000548b0       $SG95641                   101158b0     events_wmsg.obj
 0003:000548bc       $SG95656                   101158bc     events_wmsg.obj
 0003:000548cc       $SG95661                   101158cc     events_wmsg.obj
 0003:000548ec       $SG95666                   101158ec     events_wmsg.obj
 0003:00054918       $SG95675                   10115918     events_wmsg.obj
 0003:00054928       $SG95679                   10115928     events_wmsg.obj
 0003:0005493c       $SG95683                   1011593c     events_wmsg.obj
 0003:00054958       $SG95691                   10115958     events_wmsg.obj
 0003:00054964       $SG95696                   10115964     events_wmsg.obj
 0003:00054984       $SG95709                   10115984     events_wmsg.obj
 0003:00054990       $SG95714                   10115990     events_wmsg.obj
 0003:000549b0       $SG95754                   101159b0     events_wmsg.obj
 0003:000549c0       $SG95757                   101159c0     events_wmsg.obj
 0003:000549e8       $SG95771                   101159e8     events_wmsg.obj
 0003:00054a10       $SG95780                   10115a10     events_wmsg.obj
 0003:00054a20       $SG95783                   10115a20     events_wmsg.obj
 0003:00054a40       $SG95789                   10115a40     events_wmsg.obj
 0003:00054a64       $SG95812                   10115a64     events_wmsg.obj
 0003:00054a7c       $SG95820                   10115a7c     events_wmsg.obj
 0003:00054a8c       $SG95824                   10115a8c     events_wmsg.obj
 0003:00054ab0       $SG95840                   10115ab0     events_wmsg.obj
 0003:00054ac8       $SG95844                   10115ac8     events_wmsg.obj
 0003:00054ae4       $SG95915                   10115ae4     events_wmsg.obj
 0003:00054af0       $SG95920                   10115af0     events_wmsg.obj
 0003:00054b04       $SG95925                   10115b04     events_wmsg.obj
 0003:00054b1c       $SG95930                   10115b1c     events_wmsg.obj
 0003:00054b38       ___class_name              10115b38     events_wmsg.obj
 0003:00054b3c       $SG95933                   10115b3c     events_wmsg.obj
 0003:00054b54       $SG95946                   10115b54     events_wmsg.obj
 0003:00054b64       $SG95104                   10115b64     fdmap.obj
 0003:00054b78       $SG95107                   10115b78     fdmap.obj
 0003:00054b94       $SG95110                   10115b94     fdmap.obj
 0003:00054ba8       $SG95113                   10115ba8     fdmap.obj
 0003:00054bc4       $SG95116                   10115bc4     fdmap.obj
 0003:00054bd8       $SG95119                   10115bd8     fdmap.obj
 0003:00054bf4       $SG95128                   10115bf4     fdmap.obj
 0003:00054c04       $SG95130                   10115c04     fdmap.obj
 0003:00054c28       $SG95137                   10115c28     fdmap.obj
 0003:00054c38       $SG95139                   10115c38     fdmap.obj
 0003:00054c5c       $SG95146                   10115c5c     fdmap.obj
 0003:00054c6c       $SG95148                   10115c6c     fdmap.obj
 0003:00054c90       $SG95156                   10115c90     fdmap.obj
 0003:00054ca4       $SG95161                   10115ca4     fdmap.obj
 0003:00054cb8       $SG95253                   10115cb8     acl_ioctl.obj
 0003:00054cd0       $SG95254                   10115cd0     acl_ioctl.obj
 0003:00054ce4       $SG95266                   10115ce4     acl_ioctl.obj
 0003:00054cfc       $SG95278                   10115cfc     acl_ioctl.obj
 0003:00054d10       $SG95283                   10115d10     acl_ioctl.obj
 0003:00054d28       $SG95284                   10115d28     acl_ioctl.obj
 0003:00054d48       $SG95290                   10115d48     acl_ioctl.obj
 0003:00054d5c       $SG95295                   10115d5c     acl_ioctl.obj
 0003:00054d74       $SG95296                   10115d74     acl_ioctl.obj
 0003:00054d94       $SG95356                   10115d94     acl_ioctl.obj
 0003:00054dac       $SG95370                   10115dac     acl_ioctl.obj
 0003:00054dc4       $SG95376                   10115dc4     acl_ioctl.obj
 0003:00054ddc       $SG95380                   10115ddc     acl_ioctl.obj
 0003:00054df4       $SG95398                   10115df4     acl_ioctl.obj
 0003:00054e0c       $SG95404                   10115e0c     acl_ioctl.obj
 0003:00054e24       $SG95408                   10115e24     acl_ioctl.obj
 0003:00054e3c       $SG95426                   10115e3c     acl_ioctl.obj
 0003:00054e58       $SG95431                   10115e58     acl_ioctl.obj
 0003:00054e70       $SG95444                   10115e70     acl_ioctl.obj
 0003:00054e88       $SG95450                   10115e88     acl_ioctl.obj
 0003:00054ea0       $SG95454                   10115ea0     acl_ioctl.obj
 0003:00054eb8       $SG95503                   10115eb8     acl_ioctl.obj
 0003:00054ed0       $SG95508                   10115ed0     acl_ioctl.obj
 0003:00054ee8       $SG95511                   10115ee8     acl_ioctl.obj
 0003:00054f04       $SG95520                   10115f04     acl_ioctl.obj
 0003:00054f1c       $SG95526                   10115f1c     acl_ioctl.obj
 0003:00054f34       $SG95138                   10115f34     acl_ioctl.obj
 0003:00054f48       $SG95142                   10115f48     acl_ioctl.obj
 0003:00054f60       $SG95143                   10115f60     acl_ioctl.obj
 0003:00054f88       $SG95146                   10115f88     acl_ioctl.obj
 0003:00054fa0       $SG95138                   10115fa0     ioctl_proc.obj
 0003:00054fbc       $SG95139                   10115fbc     ioctl_proc.obj
 0003:00054fdc       $SG95158                   10115fdc     ioctl_proc.obj
 0003:00054ff8       $SG95159                   10115ff8     ioctl_proc.obj
 0003:00055018       $SG95179                   10116018     ioctl_proc.obj
 0003:00055034       $SG95180                   10116034     ioctl_proc.obj
 0003:00055054       $SG95144                   10116054     ioctl_thr.obj
 0003:0005506c       $SG95145                   1011606c     ioctl_thr.obj
 0003:0005508c       $SG95160                   1011608c     ioctl_thr.obj
 0003:000550a4       $SG95161                   101160a4     ioctl_thr.obj
 0003:000550c4       $SG95179                   101160c4     ioctl_thr.obj
 0003:000550dc       $SG95180                   101160dc     ioctl_thr.obj
 0003:000550fc       $SG95193                   101160fc     ioctl_thr.obj
 0003:00055114       $SG95203                   10116114     ioctl_thr.obj
 0003:00055124       $SG95210                   10116124     ioctl_thr.obj
 0003:0005513c       $SG95212                   1011613c     ioctl_thr.obj
 0003:00055154       $SG95214                   10116154     ioctl_thr.obj
 0003:0005516c       $SG95218                   1011616c     ioctl_thr.obj
 0003:00055184       $SG95402                   10116184     acl_aio.obj
 0003:00055198       $SG95413                   10116198     acl_aio.obj
 0003:000551a8       $SG95417                   101161a8     acl_aio.obj
 0003:000551bc       $SG95420                   101161bc     acl_aio.obj
 0003:000551d4       $SG95430                   101161d4     acl_aio.obj
 0003:000551f8       $SG95493                   101161f8     acl_aio.obj
 0003:00055210       $SG95499                   10116210     acl_aio.obj
 0003:00055224       $SG95508                   10116224     acl_aio.obj
 0003:0005523c       $SG95514                   1011623c     acl_aio.obj
 0003:00055250       $SG95525                   10116250     acl_aio.obj
 0003:00055264       $SG95530                   10116264     acl_aio.obj
 0003:00055278       $SG95539                   10116278     acl_aio.obj
 0003:00055290       $SG95544                   10116290     acl_aio.obj
 0003:000552a4       $SG95127                   101162a4     acl_aio_connect.obj
 0003:000552cc       $SG95134                   101162cc     acl_aio_connect.obj
 0003:000552e8       $SG95160                   101162e8     acl_aio_connect.obj
 0003:00055304       $SG95190                   10116304     acl_aio_connect.obj
 0003:00055314       $SG95197                   10116314     acl_aio_connect.obj
 0003:00055328       $SG95213                   10116328     acl_aio_connect.obj
 0003:00055344       $SG95217                   10116344     acl_aio_connect.obj
 0003:0005535c       $SG95119                   1011635c     acl_aio_listen.obj
 0003:00055378       $SG95127                   10116378     acl_aio_listen.obj
 0003:000553a0       $SG95132                   101163a0     acl_aio_listen.obj
 0003:000553bc       $SG95143                   101163bc     acl_aio_listen.obj
 0003:000553dc       $SG95146                   101163dc     acl_aio_listen.obj
 0003:0005541c       $SG95151                   1011641c     acl_aio_listen.obj
 0003:0005542c       $SG95154                   1011642c     acl_aio_listen.obj
 0003:00055440       $SG95162                   10116440     acl_aio_listen.obj
 0003:0005545c       $SG95168                   1011645c     acl_aio_listen.obj
 0003:00055484       $SG95180                   10116484     acl_aio_listen.obj
 0003:00055494       $SG95183                   10116494     acl_aio_listen.obj
 0003:000554a8       $SG95483                   101164a8     acl_aio_read.obj
 0003:000554c0       $SG95536                   101164c0     acl_aio_read.obj
 0003:000554d8       $SG95549                   101164d8     acl_aio_read.obj
 0003:000554e4       $SG95553                   101164e4     acl_aio_read.obj
 0003:00055500       $SG95568                   10116500     acl_aio_read.obj
 0003:00055520       $SG95639                   10116520     acl_aio_read.obj
 0003:00055538       $SG95691                   10116538     acl_aio_read.obj
 0003:00055550       $SG95701                   10116550     acl_aio_read.obj
 0003:00055560       $SG95706                   10116560     acl_aio_read.obj
 0003:00055580       $SG95719                   10116580     acl_aio_read.obj
 0003:000555a0       $SG95729                   101165a0     acl_aio_read.obj
 0003:000555b0       $SG95734                   101165b0     acl_aio_read.obj
 0003:000555e0       $SG95748                   101165e0     acl_aio_read.obj
 0003:00055618       $SG95766                   10116618     acl_aio_read.obj
 0003:00055634       $SG95793                   10116634     acl_aio_read.obj
 0003:0005564c       $SG95846                   1011664c     acl_aio_read.obj
 0003:00055668       $SG95849                   10116668     acl_aio_read.obj
 0003:00055678       $SG95861                   10116678     acl_aio_read.obj
 0003:00055688       $SG95864                   10116688     acl_aio_read.obj
 0003:0005569c       $SG95877                   1011669c     acl_aio_read.obj
 0003:000556bc       $SG96060                   101166bc     acl_aio_read.obj
 0003:000556cc       $SG96063                   101166cc     acl_aio_read.obj
 0003:000556e0       $SG95399                   101166e0     acl_aio_stream.obj
 0003:000556f0       $SG95400                   101166f0     acl_aio_stream.obj
 0003:00055718       $SG95408                   10116718     acl_aio_stream.obj
 0003:00055728       $SG95409                   10116728     acl_aio_stream.obj
 0003:00055750       $SG95432                   10116750     acl_aio_stream.obj
 0003:00055760       $SG95436                   10116760     acl_aio_stream.obj
 0003:0005577c       $SG95439                   1011677c     acl_aio_stream.obj
 0003:00055794       $SG95445                   10116794     acl_aio_stream.obj
 0003:000557c0       $SG95459                   101167c0     acl_aio_stream.obj
 0003:000557dc       $SG95465                   101167dc     acl_aio_stream.obj
 0003:000557f0       $SG95468                   101167f0     acl_aio_stream.obj
 0003:00055808       $SG95502                   10116808     acl_aio_stream.obj
 0003:00055824       $SG95539                   10116824     acl_aio_stream.obj
 0003:00055838       $SG95550                   10116838     acl_aio_stream.obj
 0003:00055854       $SG95560                   10116854     acl_aio_stream.obj
 0003:0005586c       $SG95573                   1011686c     acl_aio_stream.obj
 0003:00055888       $SG95575                   10116888     acl_aio_stream.obj
 0003:000558a4       $SG95576                   101168a4     acl_aio_stream.obj
 0003:000558c4       $SG95585                   101168c4     acl_aio_stream.obj
 0003:000558dc       $SG95598                   101168dc     acl_aio_stream.obj
 0003:000558f8       $SG95600                   101168f8     acl_aio_stream.obj
 0003:00055914       $SG95601                   10116914     acl_aio_stream.obj
 0003:00055934       $SG95610                   10116934     acl_aio_stream.obj
 0003:0005594c       $SG95623                   1011694c     acl_aio_stream.obj
 0003:00055968       $SG95625                   10116968     acl_aio_stream.obj
 0003:00055984       $SG95626                   10116984     acl_aio_stream.obj
 0003:000559a4       $SG95635                   101169a4     acl_aio_stream.obj
 0003:000559bc       $SG95648                   101169bc     acl_aio_stream.obj
 0003:000559d8       $SG95650                   101169d8     acl_aio_stream.obj
 0003:000559f4       $SG95651                   101169f4     acl_aio_stream.obj
 0003:00055a14       $SG95660                   10116a14     acl_aio_stream.obj
 0003:00055a30       $SG95673                   10116a30     acl_aio_stream.obj
 0003:00055a4c       $SG95675                   10116a4c     acl_aio_stream.obj
 0003:00055a68       $SG95676                   10116a68     acl_aio_stream.obj
 0003:00055a88       $SG95773                   10116a88     acl_aio_stream.obj
 0003:00055aa4       $SG95826                   10116aa4     acl_aio_stream.obj
 0003:00055ab0       $SG95839                   10116ab0     acl_aio_stream.obj
 0003:00055ac4       $SG96078                   10116ac4     acl_aio_stream.obj
 0003:00055ae4       $SG96092                   10116ae4     acl_aio_stream.obj
 0003:00055af4       $SG96095                   10116af4     acl_aio_stream.obj
 0003:00055b08       $SG95262                   10116b08     acl_aio_write.obj
 0003:00055b18       $SG95317                   10116b18     acl_aio_write.obj
 0003:00055b3c       $SG95330                   10116b3c     acl_aio_write.obj
 0003:00055b50       $SG95389                   10116b50     acl_aio_write.obj
 0003:00055b70       $SG95420                   10116b70     acl_aio_write.obj
 0003:00055b80       $SG95462                   10116b80     acl_aio_write.obj
 0003:00055ba4       $SG95514                   10116ba4     acl_aio_write.obj
 0003:00055bb8       $SG95565                   10116bb8     acl_aio_write.obj
 0003:00055be4       $SG95611                   10116be4     acl_aio_write.obj
 0003:00055bf4       $SG95614                   10116bf4     acl_aio_write.obj
 0003:00055c08       $SG95136                   10116c08     acl_aio_write.obj
 0003:00055c18       $SG95148                   10116c18     acl_aio_write.obj
 0003:00055c30       $SG95156                   10116c30     acl_aio_write.obj
 0003:00055c4c       $SG95164                   10116c4c     acl_aio_write.obj
 0003:00055c64       $SG95214                   10116c64     acl_aio_write.obj
 0003:00055c80       $SG95079                   10116c80     acl_dbpool.obj
 0003:00055c94       $SG95085                   10116c94     acl_dbpool.obj
 0003:00055c9c       $SG95087                   10116c9c     acl_dbpool.obj
 0003:00055ca4       $SG95089                   10116ca4     acl_dbpool.obj
 0003:00055cbc       $SG95090                   10116cbc     acl_dbpool.obj
 0003:00055ce0       $SG95093                   10116ce0     acl_dbpool.obj
 0003:00055cf8       $SG95094                   10116cf8     acl_dbpool.obj
 0003:00055d1c       $SG95076                   10116d1c     acl_dbsql.obj
 0003:00055d30       $SG95081                   10116d30     acl_dbsql.obj
 0003:00055d48       $SG95084                   10116d48     acl_dbsql.obj
 0003:00055d60       $SG95091                   10116d60     acl_dbsql.obj
 0003:00055d78       $SG95096                   10116d78     acl_dbsql.obj
 0003:00055d90       $SG95099                   10116d90     acl_dbsql.obj
 0003:00055dac       $SG95116                   10116dac     acl_dbsql.obj
 0003:00055dc0       $SG95124                   10116dc0     acl_dbsql.obj
 0003:00055dd8       $SG95127                   10116dd8     acl_dbsql.obj
 0003:00055df4       $SG95145                   10116df4     acl_dbsql.obj
 0003:00055e08       $SG95153                   10116e08     acl_dbsql.obj
 0003:00055e20       $SG95156                   10116e20     acl_dbsql.obj
 0003:00055e38       $SG95166                   10116e38     acl_dbsql.obj
 0003:00055e4c       $SG95173                   10116e4c     acl_dbsql.obj
 0003:00055e64       $SG95176                   10116e64     acl_dbsql.obj
 0003:00055e7c       $SG95233                   10116e7c     acl_mdb.obj
 0003:00055e8c       $SG95238                   10116e8c     acl_mdb.obj
 0003:00055ea4       $SG95243                   10116ea4     acl_mdb.obj
 0003:00055ebc       $SG95246                   10116ebc     acl_mdb.obj
 0003:00055ed8       $SG95271                   10116ed8     acl_mdb.obj
 0003:00055ef4       $SG95287                   10116ef4     acl_mdb.obj
 0003:00055f08       $SG95293                   10116f08     acl_mdb.obj
 0003:00055f20       $SG95299                   10116f20     acl_mdb.obj
 0003:00055f50       $SG95314                   10116f50     acl_mdb.obj
 0003:00055f5c       $SG95320                   10116f5c     acl_mdb.obj
 0003:00055f78       $SG95324                   10116f78     acl_mdb.obj
 0003:00055f90       $SG95329                   10116f90     acl_mdb.obj
 0003:00055fb8       $SG95341                   10116fb8     acl_mdb.obj
 0003:00055fc8       $SG95346                   10116fc8     acl_mdb.obj
 0003:00055fe4       $SG95350                   10116fe4     acl_mdb.obj
 0003:00056000       $SG95354                   10117000     acl_mdb.obj
 0003:00056014       $SG95358                   10117014     acl_mdb.obj
 0003:0005603c       $SG95373                   1011703c     acl_mdb.obj
 0003:0005604c       $SG95378                   1011704c     acl_mdb.obj
 0003:00056068       $SG95383                   10117068     acl_mdb.obj
 0003:00056084       $SG95388                   10117084     acl_mdb.obj
 0003:00056098       $SG95393                   10117098     acl_mdb.obj
 0003:000560c0       $SG95405                   101170c0     acl_mdb.obj
 0003:000560d0       $SG95410                   101170d0     acl_mdb.obj
 0003:000560ec       $SG95415                   101170ec     acl_mdb.obj
 0003:00056114       $SG95431                   10117114     acl_mdb.obj
 0003:00056120       $SG95436                   10117120     acl_mdb.obj
 0003:0005613c       $SG95440                   1011713c     acl_mdb.obj
 0003:00056158       $SG95444                   10117158     acl_mdb.obj
 0003:0005616c       $SG95448                   1011716c     acl_mdb.obj
 0003:00056194       $SG95463                   10117194     acl_mdb.obj
 0003:000561a4       $SG95468                   101171a4     acl_mdb.obj
 0003:000561c0       $SG95472                   101171c0     acl_mdb.obj
 0003:000561e8       $SG95479                   101171e8     acl_mdb.obj
 0003:000561f4       $SG95484                   101171f4     acl_mdb.obj
 0003:00056210       $SG95488                   10117210     acl_mdb.obj
 0003:00056238       $SG95304                   10117238     acl_mdt.obj
 0003:00056254       $SG95311                   10117254     acl_mdt.obj
 0003:00056270       $SG95328                   10117270     acl_mdt.obj
 0003:0005628c       $SG95330                   1011728c     acl_mdt.obj
 0003:000562a8       $SG95351                   101172a8     acl_mdt.obj
 0003:000562c4       $SG95367                   101172c4     acl_mdt.obj
 0003:000562e0       $SG95398                   101172e0     acl_mdt.obj
 0003:000562fc       $SG95414                   101172fc     acl_mdt.obj
 0003:00056318       $SG95438                   10117318     acl_mdt.obj
 0003:00056320       $SG95450                   10117320     acl_mdt.obj
 0003:0005634c       $SG95456                   1011734c     acl_mdt.obj
 0003:00056378       $SG95468                   10117378     acl_mdt.obj
 0003:00056384       $SG95473                   10117384     acl_mdt.obj
 0003:000563a8       $SG95489                   101173a8     acl_mdt.obj
 0003:000563b0       $SG95500                   101173b0     acl_mdt.obj
 0003:000563d4       $SG95507                   101173d4     acl_mdt.obj
 0003:000563f0       $SG95516                   101173f0     acl_mdt.obj
 0003:0005640c       $SG95518                   1011740c     acl_mdt.obj
 0003:00056428       $SG95525                   10117428     acl_mdt.obj
 0003:00056444       $SG95541                   10117444     acl_mdt.obj
 0003:0005644c       $SG95553                   1011744c     acl_mdt.obj
 0003:00056470       $SG95573                   10117470     acl_mdt.obj
 0003:000564b4       $SG95585                   101174b4     acl_mdt.obj
 0003:000564c0       $SG95575                   101174c0     acl_mdt.obj
 0003:00056504       $SG95597                   10117504     acl_mdt.obj
 0003:00056520       $SG95606                   10117520     acl_mdt.obj
 0003:0005653c       $SG95608                   1011753c     acl_mdt.obj
 0003:00056550       $SG95680                   10117550     acl_mdt.obj
 0003:00056560       $SG95684                   10117560     acl_mdt.obj
 0003:00056568       $SG95687                   10117568     acl_mdt.obj
 0003:00056570       $SG95690                   10117570     acl_mdt.obj
 0003:00056574       $SG95692                   10117574     acl_mdt.obj
 0003:00056588       $SG95694                   10117588     acl_mdt.obj
 0003:000565a4       $SG95706                   101175a4     acl_mdt.obj
 0003:000565b0       $SG95708                   101175b0     acl_mdt.obj
 0003:000565bc       $SG95710                   101175bc     acl_mdt.obj
 0003:000565c8       $SG95714                   101175c8     acl_mdt.obj
 0003:000565d4       $SG95716                   101175d4     acl_mdt.obj
 0003:000565e0       $SG95718                   101175e0     acl_mdt.obj
 0003:000565ec       $SG95722                   101175ec     acl_mdt.obj
 0003:000565f8       $SG95724                   101175f8     acl_mdt.obj
 0003:00056604       $SG95726                   10117604     acl_mdt.obj
 0003:00056610       $SG95733                   10117610     acl_mdt.obj
 0003:0005662c       $SG95800                   1011762c     acl_mdt.obj
 0003:00056640       $SG95807                   10117640     acl_mdt.obj
 0003:00056654       $SG95826                   10117654     acl_mdt.obj
 0003:00056670       $SG95266                   10117670     acl_mdt_avl.obj
 0003:00056690       $SG95273                   10117690     acl_mdt_avl.obj
 0003:000566a8       $SG95277                   101176a8     acl_mdt_avl.obj
 0003:000566c0       $SG95281                   101176c0     acl_mdt_avl.obj
 0003:000566d8       $SG95282                   101176d8     acl_mdt_avl.obj
 0003:000566f8       $SG95301                   101176f8     acl_mdt_avl.obj
 0003:00056718       $SG95308                   10117718     acl_mdt_avl.obj
 0003:00056738       $SG95313                   10117738     acl_mdt_avl.obj
 0003:00056758       $SG95319                   10117758     acl_mdt_avl.obj
 0003:00056778       $SG95337                   10117778     acl_mdt_avl.obj
 0003:00056798       $SG95340                   10117798     acl_mdt_avl.obj
 0003:000567b8       $SG95361                   101177b8     acl_mdt_avl.obj
 0003:000567c4       $SG95370                   101177c4     acl_mdt_avl.obj
 0003:000567dc       $SG95375                   101177dc     acl_mdt_avl.obj
 0003:000567fc       $SG95382                   101177fc     acl_mdt_avl.obj
 0003:0005681c       $SG95393                   1011781c     acl_mdt_avl.obj
 0003:0005683c       $SG95399                   1011783c     acl_mdt_avl.obj
 0003:0005685c       $SG95242                   1011785c     acl_mdt_binhash.obj
 0003:00056880       $SG95250                   10117880     acl_mdt_binhash.obj
 0003:000568a4       $SG95262                   101178a4     acl_mdt_binhash.obj
 0003:000568c8       $SG95267                   101178c8     acl_mdt_binhash.obj
 0003:000568ec       $SG95278                   101178ec     acl_mdt_binhash.obj
 0003:000568f8       $SG95285                   101178f8     acl_mdt_binhash.obj
 0003:00056920       $SG95315                   10117920     acl_mdt_binhash.obj
 0003:00056944       $SG95321                   10117944     acl_mdt_binhash.obj
 0003:00056968       $SG95242                   10117968     acl_mdt_hash.obj
 0003:00056988       $SG95244                   10117988     acl_mdt_hash.obj
 0003:000569a8       $SG95256                   101179a8     acl_mdt_hash.obj
 0003:000569c8       $SG95261                   101179c8     acl_mdt_hash.obj
 0003:000569e8       $SG95272                   101179e8     acl_mdt_hash.obj
 0003:000569f4       $SG95279                   101179f4     acl_mdt_hash.obj
 0003:00056a20       $SG95309                   10117a20     acl_mdt_hash.obj
 0003:00056a40       $SG95315                   10117a40     acl_mdt_hash.obj
 0003:00056a60       $SG95122                   10117a60     acl_dbnull.obj
 0003:00056a74       $SG95123                   10117a74     acl_dbnull.obj
 0003:00056a90       $SG95124                   10117a90     acl_dbnull.obj
 0003:00056aac       $SG95141                   10117aac     acl_dbnull.obj
 0003:00056ac0       $SG95142                   10117ac0     acl_dbnull.obj
 0003:00056adc       $SG95143                   10117adc     acl_dbnull.obj
 0003:00056af8       $SG95152                   10117af8     acl_dbnull.obj
 0003:00056b0c       $SG95153                   10117b0c     acl_dbnull.obj
 0003:00056b28       $SG95154                   10117b28     acl_dbnull.obj
 0003:00056b44       $SG95236                   10117b44     acl_dbpool_null.obj
 0003:00056b74       $SG95248                   10117b74     acl_dbpool_null.obj
 0003:00056ba4       $SG95255                   10117ba4     acl_dbpool_null.obj
 0003:00056bc4       $SG95256                   10117bc4     acl_dbpool_null.obj
 0003:00056bec       $SG95262                   10117bec     acl_dbpool_null.obj
 0003:00056c1c       $SG95269                   10117c1c     acl_dbpool_null.obj
 0003:00056c30       $SG95279                   10117c30     acl_dbpool_null.obj
 0003:00056c3c       $SG95280                   10117c3c     acl_dbpool_null.obj
 0003:00056c44       $SG95281                   10117c44     acl_dbpool_null.obj
 0003:00056c48       $SG95282                   10117c48     acl_dbpool_null.obj
 0003:00056c4c       $SG95283                   10117c4c     acl_dbpool_null.obj
 0003:00056c6c       $SG95284                   10117c6c     acl_dbpool_null.obj
 0003:00056ca8       $SG95287                   10117ca8     acl_dbpool_null.obj
 0003:00056cc8       $SG95288                   10117cc8     acl_dbpool_null.obj
 0003:00056cf0       $SG95304                   10117cf0     acl_dbpool_null.obj
 0003:00056d00       $SG95312                   10117d00     acl_dbpool_null.obj
 0003:00056d0c       $SG95313                   10117d0c     acl_dbpool_null.obj
 0003:00056d14       $SG95314                   10117d14     acl_dbpool_null.obj
 0003:00056d18       $SG95315                   10117d18     acl_dbpool_null.obj
 0003:00056d1c       $SG95316                   10117d1c     acl_dbpool_null.obj
 0003:00056d3c       $SG95317                   10117d3c     acl_dbpool_null.obj
 0003:00056d78       $SG95320                   10117d78     acl_dbpool_null.obj
 0003:00056d98       $SG95321                   10117d98     acl_dbpool_null.obj
 0003:00056dc0       $SG95341                   10117dc0     acl_dbpool_null.obj
 0003:00056de0       $SG95346                   10117de0     acl_dbpool_null.obj
 0003:00056e00       $SG95352                   10117e00     acl_dbpool_null.obj
 0003:00056e18       $SG95356                   10117e18     acl_dbpool_null.obj
 0003:00056e38       $SG95360                   10117e38     acl_dbpool_null.obj
 0003:00056e58       $SG95361                   10117e58     acl_dbpool_null.obj
 0003:00056e74       $SG95126                   10117e74     acl_dbpool_null.obj
 0003:00056e94       $SG95134                   10117e94     acl_dbpool_null.obj
 0003:00056ea4       $SG95142                   10117ea4     acl_dbpool_null.obj
 0003:00056ec4       $SG95143                   10117ec4     acl_dbpool_null.obj
 0003:00056eec       $SG95148                   10117eec     acl_dbpool_null.obj
 0003:00056f0c       $SG95199                   10117f0c     acl_dbpool_null.obj
 0003:00056f1c       $SG95215                   10117f1c     acl_dbpool_null.obj
 0003:00056f3c       $SG95216                   10117f3c     acl_dbpool_null.obj
 0003:00056f74       $SG95222                   10117f74     acl_dbpool_null.obj
 0003:00056fa8       $SG95426                   10117fa8     zdb.obj
 0003:00056fbc       $SG95431                   10117fbc     zdb.obj
 0003:00056fd0       $SG95440                   10117fd0     zdb.obj
 0003:00056fe0       $SG95452                   10117fe0     zdb.obj
 0003:00056fec       $SG95454                   10117fec     zdb.obj
 0003:00056ff0       $SG95458                   10117ff0     zdb.obj
 0003:0005700c       $SG95471                   1011800c     zdb.obj
 0003:00057010       $SG95473                   10118010     zdb.obj
 0003:0005702c       $SG95476                   1011802c     zdb.obj
 0003:00057040       $SG95477                   10118040     zdb.obj
 0003:00057054       $SG95479                   10118054     zdb.obj
 0003:00057070       $SG95481                   10118070     zdb.obj
 0003:00057090       $SG95490                   10118090     zdb.obj
 0003:000570a4       $SG95495                   101180a4     zdb.obj
 0003:000570b8       $SG95498                   101180b8     zdb.obj
 0003:000570e0       $SG95502                   101180e0     zdb.obj
 0003:000570f4       $SG95525                   101180f4     zdb.obj
 0003:00057108       $SG95530                   10118108     zdb.obj
 0003:00057114       $SG95532                   10118114     zdb.obj
 0003:00057118       $SG95536                   10118118     zdb.obj
 0003:00057134       $SG95541                   10118134     zdb.obj
 0003:00057140       $SG95542                   10118140     zdb.obj
 0003:00057144       $SG95543                   10118144     zdb.obj
 0003:00057148       $SG95546                   10118148     zdb.obj
 0003:00057170       $SG95551                   10118170     zdb.obj
 0003:00057180       $SG95562                   10118180     zdb.obj
 0003:000571b0       $SG95575                   101181b0     zdb.obj
 0003:000571bc       $SG95580                   101181bc     zdb.obj
 0003:000571dc       $SG95584                   101181dc     zdb.obj
 0003:000571f0       $SG95585                   101181f0     zdb.obj
 0003:00057204       $SG95586                   10118204     zdb.obj
 0003:00057218       $SG95600                   10118218     zdb.obj
 0003:0005722c       $SG95605                   1011822c     zdb.obj
 0003:00057240       $SG95615                   10118240     zdb.obj
 0003:00057254       $SG95620                   10118254     zdb.obj
 0003:00057268       $SG95625                   10118268     zdb.obj
 0003:0005727c       $SG95630                   1011827c     zdb.obj
 0003:00057290       $SG95642                   10118290     zdb.obj
 0003:0005729c       $SG95648                   1011829c     zdb.obj
 0003:000572cc       $SG95654                   101182cc     zdb.obj
 0003:000572f4       $SG95663                   101182f4     zdb.obj
 0003:00057308       $SG95659                   10118308     zdb.obj
 0003:00057348       $SG95678                   10118348     zdb.obj
 0003:00057354       $SG95682                   10118354     zdb.obj
 0003:00057384       $SG95685                   10118384     zdb.obj
 0003:00057398       $SG95688                   10118398     zdb.obj
 0003:000573b0       $SG95694                   101183b0     zdb.obj
 0003:000573d8       $SG96256                   101183d8     zdb_dat.obj
 0003:00057400       $SG96257                   10118400     zdb_dat.obj
 0003:00057404       $SG96258                   10118404     zdb_dat.obj
 0003:0005741c       $SG96266                   1011841c     zdb_dat.obj
 0003:00057458       $SG96263                   10118458     zdb_dat.obj
 0003:000574b4       $SG96267                   101184b4     zdb_dat.obj
 0003:000574d8       $SG96273                   101184d8     zdb_dat.obj
 0003:000574f0       $SG96286                   101184f0     zdb_dat.obj
 0003:00057520       $SG96289                   10118520     zdb_dat.obj
 0003:00057560       $SG96293                   10118560     zdb_dat.obj
 0003:00057590       $SG96294                   10118590     zdb_dat.obj
 0003:000575e0       $SG96298                   101185e0     zdb_dat.obj
 0003:000575f8       $SG96308                   101185f8     zdb_dat.obj
 0003:00057608       $SG96313                   10118608     zdb_dat.obj
 0003:00057624       $SG95418                   10118624     zdb_dat.obj
 0003:0005763c       $SG95422                   1011863c     zdb_dat.obj
 0003:00057660       $SG95443                   10118660     zdb_dat.obj
 0003:00057678       $SG95447                   10118678     zdb_dat.obj
 0003:00057690       $SG95458                   10118690     zdb_dat.obj
 0003:0005769c       $SG95461                   1011869c     zdb_dat.obj
 0003:000576d0       $SG95463                   101186d0     zdb_dat.obj
 0003:000576f4       ?buf_key@?1??dat_filepath@@9@9 101186f4     zdb_dat.obj
 0003:000576f8       $SG95492                   101186f8     zdb_dat.obj
 0003:00057708       ?buf_key@?1??dat_path@@9@9 10118708     zdb_dat.obj
 0003:0005770c       $SG95520                   1011870c     zdb_dat.obj
 0003:00057710       $SG95528                   10118710     zdb_dat.obj
 0003:00057724       $SG95533                   10118724     zdb_dat.obj
 0003:00057744       $SG95536                   10118744     zdb_dat.obj
 0003:00057774       $SG95543                   10118774     zdb_dat.obj
 0003:00057790       $SG95549                   10118790     zdb_dat.obj
 0003:000577a8       $SG95568                   101187a8     zdb_dat.obj
 0003:000577c0       $SG95571                   101187c0     zdb_dat.obj
 0003:000577e0       $SG95593                   101187e0     zdb_dat.obj
 0003:000577f8       $SG95596                   101187f8     zdb_dat.obj
 0003:00057818       $SG95600                   10118818     zdb_dat.obj
 0003:00057830       $SG95607                   10118830     zdb_dat.obj
 0003:00057850       $SG95615                   10118850     zdb_dat.obj
 0003:00057860       $SG95626                   10118860     zdb_dat.obj
 0003:00057888       $SG95634                   10118888     zdb_dat.obj
 0003:0005789c       $SG95645                   1011889c     zdb_dat.obj
 0003:000578cc       $SG95653                   101188cc     zdb_dat.obj
 0003:000578e4       $SG95656                   101188e4     zdb_dat.obj
 0003:00057908       $SG95659                   10118908     zdb_dat.obj
 0003:00057918       $SG95670                   10118918     zdb_dat.obj
 0003:00057938       $SG95678                   10118938     zdb_dat.obj
 0003:00057950       $SG95679                   10118950     zdb_dat.obj
 0003:00057980       $SG95694                   10118980     zdb_dat.obj
 0003:00057994       $SG95700                   10118994     zdb_dat.obj
 0003:000579bc       $SG95711                   101189bc     zdb_dat.obj
 0003:000579d0       $SG95719                   101189d0     zdb_dat.obj
 0003:000579f0       $SG95730                   101189f0     zdb_dat.obj
 0003:000579fc       $SG95743                   101189fc     zdb_dat.obj
 0003:00057a18       $SG95747                   10118a18     zdb_dat.obj
 0003:00057a34       $SG95750                   10118a34     zdb_dat.obj
 0003:00057a58       $SG95759                   10118a58     zdb_dat.obj
 0003:00057a74       $SG95774                   10118a74     zdb_dat.obj
 0003:00057a8c       $SG95805                   10118a8c     zdb_dat.obj
 0003:00057a98       $SG95778                   10118a98     zdb_dat.obj
 0003:00057b0c       $SG95833                   10118b0c     zdb_dat.obj
 0003:00057b28       $SG95781                   10118b28     zdb_dat.obj
 0003:00057b88       $SG95785                   10118b88     zdb_dat.obj
 0003:00057ba0       $SG95821                   10118ba0     zdb_dat.obj
 0003:00057bc8       $SG95830                   10118bc8     zdb_dat.obj
 0003:00057be0       $SG95842                   10118be0     zdb_dat.obj
 0003:00057bf8       $SG95851                   10118bf8     zdb_dat.obj
 0003:00057c0c       $SG95856                   10118c0c     zdb_dat.obj
 0003:00057c34       $SG95865                   10118c34     zdb_dat.obj
 0003:00057c4c       $SG95871                   10118c4c     zdb_dat.obj
 0003:00057c68       $SG95880                   10118c68     zdb_dat.obj
 0003:00057c80       $SG95887                   10118c80     zdb_dat.obj
 0003:00057cd4       $SG95896                   10118cd4     zdb_dat.obj
 0003:00057cec       $SG95900                   10118cec     zdb_dat.obj
 0003:00057d2c       $SG95909                   10118d2c     zdb_dat.obj
 0003:00057d44       $SG95927                   10118d44     zdb_dat.obj
 0003:00057d60       $SG95922                   10118d60     zdb_dat.obj
 0003:00057db0       $SG95924                   10118db0     zdb_dat.obj
 0003:00057dc8       $SG95933                   10118dc8     zdb_dat.obj
 0003:00057e28       $SG95942                   10118e28     zdb_dat.obj
 0003:00057e40       $SG95945                   10118e40     zdb_dat.obj
 0003:00057e70       $SG95949                   10118e70     zdb_dat.obj
 0003:00057e94       $SG95958                   10118e94     zdb_dat.obj
 0003:00057eac       $SG95961                   10118eac     zdb_dat.obj
 0003:00057ed4       $SG95970                   10118ed4     zdb_dat.obj
 0003:00057eec       $SG95975                   10118eec     zdb_dat.obj
 0003:00057f0c       $SG96023                   10118f0c     zdb_dat.obj
 0003:00057f28       $SG95973                   10118f28     zdb_dat.obj
 0003:00057f78       $SG95984                   10118f78     zdb_dat.obj
 0003:00057f90       $SG95994                   10118f90     zdb_dat.obj
 0003:00057fa8       $SG96008                   10118fa8     zdb_dat.obj
 0003:00057fb8       $SG96032                   10118fb8     zdb_dat.obj
 0003:00057fd0       $SG96036                   10118fd0     zdb_dat.obj
 0003:00057fec       $SG96045                   10118fec     zdb_dat.obj
 0003:00058004       $SG96048                   10119004     zdb_dat.obj
 0003:00058028       $SG96057                   10119028     zdb_dat.obj
 0003:00058040       $SG96061                   10119040     zdb_dat.obj
 0003:00058068       $SG96070                   10119068     zdb_dat.obj
 0003:00058080       $SG96080                   10119080     zdb_dat.obj
 0003:0005809c       $SG96089                   1011909c     zdb_dat.obj
 0003:000580b4       $SG96103                   101190b4     zdb_dat.obj
 0003:000580d8       $SG96112                   101190d8     zdb_dat.obj
 0003:000580f0       $SG96122                   101190f0     zdb_dat.obj
 0003:00058108       $SG96126                   10119108     zdb_dat.obj
 0003:00058180       $SG96135                   10119180     zdb_dat.obj
 0003:00058198       $SG96148                   10119198     zdb_dat.obj
 0003:000581b0       $SG96156                   101191b0     zdb_dat.obj
 0003:000581f0       $SG96165                   101191f0     zdb_dat.obj
 0003:00058208       $SG96173                   10119208     zdb_dat.obj
 0003:0005823c       $SG96182                   1011923c     zdb_dat.obj
 0003:00058254       $SG96185                   10119254     zdb_dat.obj
 0003:00058274       $SG96194                   10119274     zdb_dat.obj
 0003:0005828c       $SG96204                   1011928c     zdb_dat.obj
 0003:000582a4       $SG96214                   101192a4     zdb_dat.obj
 0003:000582b4       $SG96218                   101192b4     zdb_dat.obj
 0003:000582d0       $SG96226                   101192d0     zdb_dat.obj
 0003:000582e0       $SG96238                   101192e0     zdb_dat.obj
 0003:000582fc       $SG96239                   101192fc     zdb_dat.obj
 0003:00058310       $SG96240                   10119310     zdb_dat.obj
 0003:00058340       $SG96241                   10119340     zdb_dat.obj
 0003:00058384       $SG96242                   10119384     zdb_dat.obj
 0003:000583ac       $SG96245                   101193ac     zdb_dat.obj
 0003:000583d0       $SG95431                   101193d0     zdb_dat_iter.obj
 0003:000583ec       $SG95436                   101193ec     zdb_dat_iter.obj
 0003:00058408       $SG95449                   10119408     zdb_dat_iter.obj
 0003:00058424       $SG95454                   10119424     zdb_dat_iter.obj
 0003:00058440       $SG95475                   10119440     zdb_dat_iter.obj
 0003:0005845c       $SG95476                   1011945c     zdb_dat_iter.obj
 0003:00058478       $SG95484                   10119478     zdb_dat_iter.obj
 0003:00058494       $SG95486                   10119494     zdb_dat_iter.obj
 0003:000584b0       $SG95494                   101194b0     zdb_dat_iter.obj
 0003:000584c4       $SG95516                   101194c4     zdb_dat_iter.obj
 0003:000584f0       $SG95552                   101194f0     zdb_dat_iter.obj
 0003:0005850c       $SG95563                   1011950c     zdb_dat_iter.obj
 0003:00058528       $SG95584                   10119528     zdb_dat_iter.obj
 0003:00058544       $SG95594                   10119544     zdb_dat_iter.obj
 0003:00058558       $SG95613                   10119558     zdb_dat_iter.obj
 0003:00058584       $SG95425                   10119584     zdb_dat_walk.obj
 0003:00058598       $SG95433                   10119598     zdb_dat_walk.obj
 0003:000585b8       $SG95439                   101195b8     zdb_dat_walk.obj
 0003:000585d4       $SG95441                   101195d4     zdb_dat_walk.obj
 0003:000585dc       $SG95442                   101195dc     zdb_dat_walk.obj
 0003:000585f0       $SG95443                   101195f0     zdb_dat_walk.obj
 0003:000585f8       $SG95446                   101195f8     zdb_dat_walk.obj
 0003:00058618       $SG95448                   10119618     zdb_dat_walk.obj
 0003:00058638       $SG95457                   10119638     zdb_dat_walk.obj
 0003:00058648       $SG95464                   10119648     zdb_dat_walk.obj
 0003:00058660       $SG95465                   10119660     zdb_dat_walk.obj
 0003:00058678       $SG95435                   10119678     zdb_io.obj
 0003:00058684       $SG95440                   10119684     zdb_io.obj
 0003:000586b0       $SG95444                   101196b0     zdb_io.obj
 0003:000586f4       $SG95450                   101196f4     zdb_io.obj
 0003:0005870c       $SG95457                   1011970c     zdb_io.obj
 0003:00058724       $SG95469                   10119724     zdb_io.obj
 0003:0005873c       $SG95474                   1011973c     zdb_io.obj
 0003:00058754       $SG95505                   10119754     zdb_io.obj
 0003:0005876c       $SG95515                   1011976c     zdb_io.obj
 0003:00058778       $SG95516                   10119778     zdb_io.obj
 0003:00058784       $SG95530                   10119784     zdb_io.obj
 0003:0005879c       $SG95536                   1011979c     zdb_io.obj
 0003:000587b0       $SG95561                   101197b0     zdb_io.obj
 0003:000587d8       $SG95567                   101197d8     zdb_io.obj
 0003:0005881c       $SG95635                   1011981c     zdb_io.obj
 0003:00058828       $SG95641                   10119828     zdb_io.obj
 0003:00058850       $SG95644                   10119850     zdb_io.obj
 0003:00058894       $SG95655                   10119894     zdb_io.obj
 0003:000588a0       $SG95661                   101198a0     zdb_io.obj
 0003:000588c8       $SG95664                   101198c8     zdb_io.obj
 0003:00058910       $SG95418                   10119910     zdb_key.obj
 0003:00058928       $SG95423                   10119928     zdb_key.obj
 0003:0005894c       $SG95435                   1011994c     zdb_key.obj
 0003:00058964       $SG95446                   10119964     zdb_key.obj
 0003:0005897c       $SG95467                   1011997c     zdb_key.obj
 0003:00058994       $SG95532                   10119994     zdb_key.obj
 0003:000589a4       $SG95543                   101199a4     zdb_key.obj
 0003:000589cc       $SG95552                   101199cc     zdb_key.obj
 0003:000589ec       $SG95562                   101199ec     zdb_key.obj
 0003:00058a0c       $SG95568                   10119a0c     zdb_key.obj
 0003:00058a2c       $SG95576                   10119a2c     zdb_key.obj
 0003:00058a40       $SG95587                   10119a40     zdb_key.obj
 0003:00058a70       $SG95595                   10119a70     zdb_key.obj
 0003:00058a88       $SG95603                   10119a88     zdb_key.obj
 0003:00058aa8       $SG95606                   10119aa8     zdb_key.obj
 0003:00058ab8       $SG95614                   10119ab8     zdb_key.obj
 0003:00058ae4       $SG95626                   10119ae4     zdb_key.obj
 0003:00058af8       $SG95633                   10119af8     zdb_key.obj
 0003:00058b2c       $SG95640                   10119b2c     zdb_key.obj
 0003:00058b40       $SG95648                   10119b40     zdb_key.obj
 0003:00058b68       $SG95661                   10119b68     zdb_key.obj
 0003:00058b7c       $SG95666                   10119b7c     zdb_key.obj
 0003:00058ba4       $SG95668                   10119ba4     zdb_key.obj
 0003:00058bb4       $SG95682                   10119bb4     zdb_key.obj
 0003:00058bc0       $SG95690                   10119bc0     zdb_key.obj
 0003:00058be4       $SG95698                   10119be4     zdb_key.obj
 0003:00058c10       $SG95714                   10119c10     zdb_key.obj
 0003:00058c70       $SG95722                   10119c70     zdb_key.obj
 0003:00058cb0       $SG95740                   10119cb0     zdb_key.obj
 0003:00058cbc       $SG95748                   10119cbc     zdb_key.obj
 0003:00058ce0       $SG95756                   10119ce0     zdb_key.obj
 0003:00058d10       $SG95772                   10119d10     zdb_key.obj
 0003:00058d70       $SG95780                   10119d70     zdb_key.obj
 0003:00058dac       $SG95782                   10119dac     zdb_key.obj
 0003:00058df0       $SG95790                   10119df0     zdb_key.obj
 0003:00058e38       $SG95807                   10119e38     zdb_key.obj
 0003:00058e48       $SG95811                   10119e48     zdb_key.obj
 0003:00058e64       $SG95819                   10119e64     zdb_key.obj
 0003:00058e74       $SG95826                   10119e74     zdb_key.obj
 0003:00058e98       $SG95835                   10119e98     zdb_key.obj
 0003:00058ee8       $SG95837                   10119ee8     zdb_key.obj
 0003:00058f28       $SG95846                   10119f28     zdb_key.obj
 0003:00058f38       $SG95851                   10119f38     zdb_key.obj
 0003:00058f54       $SG95859                   10119f54     zdb_key.obj
 0003:00058f68       $SG95872                   10119f68     zdb_key.obj
 0003:00058f98       $SG95879                   10119f98     zdb_key.obj
 0003:00058fb0       $SG95883                   10119fb0     zdb_key.obj
 0003:00058fd8       $SG95890                   10119fd8     zdb_key.obj
 0003:00058ff8       $SG95893                   10119ff8     zdb_key.obj
 0003:00059024       $SG95897                   1011a024     zdb_key.obj
 0003:00059044       $SG95900                   1011a044     zdb_key.obj
 0003:00059054       $SG95916                   1011a054     zdb_key.obj
 0003:00059064       $SG95920                   1011a064     zdb_key.obj
 0003:000590a0       $SG95925                   1011a0a0     zdb_key.obj
 0003:000590b0       $SG95927                   1011a0b0     zdb_key.obj
 0003:000590c0       $SG95934                   1011a0c0     zdb_key.obj
 0003:000590e8       $SG95936                   1011a0e8     zdb_key.obj
 0003:000590fc       $SG95421                   1011a0fc     zdb_key_walk.obj
 0003:0005910c       $SG95430                   1011a10c     zdb_key_walk.obj
 0003:00059128       $SG95436                   1011a128     zdb_key_walk.obj
 0003:00059140       $SG95438                   1011a140     zdb_key_walk.obj
 0003:00059148       $SG95439                   1011a148     zdb_key_walk.obj
 0003:00059158       $SG95440                   1011a158     zdb_key_walk.obj
 0003:00059160       $SG95443                   1011a160     zdb_key_walk.obj
 0003:0005917c       $SG95073                   1011a17c     acl_test_cfg.obj
 0003:00059190       $SG95086                   1011a190     acl_test_cfg.obj
 0003:000591b0       $SG95087                   1011a1b0     acl_test_cfg.obj
 0003:000591b4       $SG95091                   1011a1b4     acl_test_cfg.obj
 0003:000591b8       $SG95098                   1011a1b8     acl_test_cfg.obj
 0003:000591bc       $SG95113                   1011a1bc     acl_test_cfg.obj
 0003:000591dc       $SG95114                   1011a1dc     acl_test_cfg.obj
 0003:000591fc       $SG95115                   1011a1fc     acl_test_cfg.obj
 0003:0005921c       $SG95118                   1011a21c     acl_test_cfg.obj
 0003:00059240       $SG95122                   1011a240     acl_test_cfg.obj
 0003:00059260       $SG95133                   1011a260     acl_test_cfg.obj
 0003:00059280       $SG95138                   1011a280     acl_test_cfg.obj
 0003:000592a0       $SG95143                   1011a2a0     acl_test_cfg.obj
 0003:000592c0       $SG95161                   1011a2c0     acl_test_cfg.obj
 0003:000592c8       $SG95167                   1011a2c8     acl_test_cfg.obj
 0003:000592e8       $SG95172                   1011a2e8     acl_test_cfg.obj
 0003:000592f8       $SG95180                   1011a2f8     acl_test_cfg.obj
 0003:00059314       $SG95181                   1011a314     acl_test_cfg.obj
 0003:00059318       $SG95185                   1011a318     acl_test_cfg.obj
 0003:00059338       $SG95196                   1011a338     acl_test_cfg.obj
 0003:00059348       $SG95207                   1011a348     acl_test_cfg.obj
 0003:00059368       $SG95214                   1011a368     acl_test_cfg.obj
 0003:00059374       $SG95222                   1011a374     acl_test_cfg.obj
 0003:0005937c       $SG95224                   1011a37c     acl_test_cfg.obj
 0003:00059384       $SG95225                   1011a384     acl_test_cfg.obj
 0003:00059388       $SG95073                   1011a388     acl_test_cfg_general.obj
 0003:00059398       $SG95075                   1011a398     acl_test_cfg_general.obj
 0003:000593a8       $SG95077                   1011a3a8     acl_test_cfg_general.obj
 0003:000593b0       $SG95079                   1011a3b0     acl_test_cfg_general.obj
 0003:000593b8       $SG95081                   1011a3b8     acl_test_cfg_general.obj
 0003:000593c8       ___general_cfg_tab         1011a3c8     acl_test_cfg_general.obj
 0003:000593d8       $SG95083                   1011a3d8     acl_test_cfg_general.obj
 0003:000593dc       $SG95090                   1011a3dc     acl_test_cfg_general.obj
 0003:000593f8       $SG95093                   1011a3f8     acl_test_cfg_general.obj
 0003:00059408       $SG95079                   1011a408     acl_test_inner.obj
 0003:0005942c       $SG95087                   1011a42c     acl_test_inner.obj
 0003:0005943c       $SG95096                   1011a43c     acl_test_inner.obj
 0003:00059460       $SG95110                   1011a460     acl_test_inner.obj
 0003:000594e4       $SG95118                   1011a4e4     acl_test_inner.obj
 0003:000594e8       $SG95120                   1011a4e8     acl_test_inner.obj
 0003:0005950c       ___inner_cmd_tab           1011a50c     acl_test_inner.obj
 0003:00059544       $SG95129                   1011a544     acl_test_inner.obj
 0003:00059550       $SG95130                   1011a550     acl_test_inner.obj
 0003:0005955c       $SG95131                   1011a55c     acl_test_inner.obj
 0003:00059568       $SG95132                   1011a568     acl_test_inner.obj
 0003:0005956c       $SG95133                   1011a56c     acl_test_inner.obj
 0003:00059574       $SG95134                   1011a574     acl_test_inner.obj
 0003:0005957c       $SG95141                   1011a57c     acl_test_inner.obj
 0003:00059590       $SG95148                   1011a590     acl_test_inner.obj
 0003:000595a0       $SG95161                   1011a5a0     acl_test_inner.obj
 0003:000595d4       ___log_pre                 1011a5d4     acl_test_log.obj
 0003:000595e0       $SG95073                   1011a5e0     acl_test_log.obj
 0003:000595f0       $SG95077                   1011a5f0     acl_test_log.obj
 0003:0005960c       $SG95086                   1011a60c     acl_test_log.obj
 0003:00059610       $SG95097                   1011a610     acl_test_log.obj
 0003:00059614       $SG95108                   1011a614     acl_test_log.obj
 0003:00059618       $SG95119                   1011a618     acl_test_log.obj
 0003:0005961c       $SG95133                   1011a61c     acl_test_log.obj
 0003:00059620       $SG95079                   1011a620     acl_test_loop.obj
 0003:00059640       $SG95083                   1011a640     acl_test_loop.obj
 0003:00059648       $SG95091                   1011a648     acl_test_loop.obj
 0003:0005965c       $SG95102                   1011a65c     acl_test_loop.obj
 0003:0005967c       $SG95112                   1011a67c     acl_test_loop.obj
 0003:00059694       $SG95122                   1011a694     acl_test_loop.obj
 0003:000596bc       $SG95127                   1011a6bc     acl_test_loop.obj
 0003:000596d0       $SG95136                   1011a6d0     acl_test_loop.obj
 0003:000596f0       $SG95154                   1011a6f0     acl_test_loop.obj
 0003:00059710       $SG95155                   1011a710     acl_test_loop.obj
 0003:0005979c       $SG95233                   1011a79c     acl_test_misc.obj
 0003:000597b0       $SG95238                   1011a7b0     acl_test_misc.obj
 0003:000597c0       $SG95241                   1011a7c0     acl_test_misc.obj
 0003:000597d0       $SG95243                   1011a7d0     acl_test_misc.obj
 0003:000597d8       $SG95248                   1011a7d8     acl_test_misc.obj
 0003:000597ec       $SG95251                   1011a7ec     acl_test_misc.obj
 0003:000597fc       $SG95253                   1011a7fc     acl_test_misc.obj
 0003:00059800       $SG95260                   1011a800     acl_test_misc.obj
 0003:00059814       $SG95263                   1011a814     acl_test_misc.obj
 0003:00059824       $SG95285                   1011a824     acl_test_misc.obj
 0003:00059834       $SG95291                   1011a834     acl_test_misc.obj
 0003:00059854       $SG95295                   1011a854     acl_test_misc.obj
 0003:00059860       $SG95075                   1011a860     acl_test_misc.obj
 0003:00059880       $SG95076                   1011a880     acl_test_misc.obj
 0003:00059884       $SG95086                   1011a884     acl_test_misc.obj
 0003:000598a4       $SG95093                   1011a8a4     acl_test_misc.obj
 0003:000598c4       $SG95099                   1011a8c4     acl_test_misc.obj
 0003:000598d4       $SG95105                   1011a8d4     acl_test_misc.obj
 0003:000598f0       $SG95117                   1011a8f0     acl_test_misc.obj
 0003:000598fc       $SG95121                   1011a8fc     acl_test_misc.obj
 0003:00059918       $SG95126                   1011a918     acl_test_misc.obj
 0003:00059928       $SG95131                   1011a928     acl_test_misc.obj
 0003:00059944       $SG95134                   1011a944     acl_test_misc.obj
 0003:00059978       $SG95143                   1011a978     acl_test_misc.obj
 0003:00059988       $SG95148                   1011a988     acl_test_misc.obj
 0003:0005999c       $SG95155                   1011a99c     acl_test_misc.obj
 0003:000599b0       $SG95158                   1011a9b0     acl_test_misc.obj
 0003:000599c4       $SG95164                   1011a9c4     acl_test_misc.obj
 0003:000599d4       $SG95167                   1011a9d4     acl_test_misc.obj
 0003:000599e8       $SG95177                   1011a9e8     acl_test_misc.obj
 0003:000599fc       $SG95180                   1011a9fc     acl_test_misc.obj
 0003:00059a10       $SG95186                   1011aa10     acl_test_misc.obj
 0003:00059a20       $SG95189                   1011aa20     acl_test_misc.obj
 0003:00059a34       $SG95196                   1011aa34     acl_test_misc.obj
 0003:00059a48       $SG95205                   1011aa48     acl_test_misc.obj
 0003:00059a5c       $SG95221                   1011aa5c     acl_test_misc.obj
 0003:00059a6c       $SG95224                   1011aa6c     acl_test_misc.obj
 0003:00059a80       $SG95230                   1011aa80     acl_test_misc.obj
 0003:00059a90       $SG95072                   1011aa90     acl_test_outer.obj
 0003:00059aa8       $SG95075                   1011aaa8     acl_test_outer.obj
 0003:00059af0       $SG95077                   1011aaf0     acl_test_outer.obj
 0003:00059b14       $SG95081                   1011ab14     acl_test_outer.obj
 0003:00059b3c       $SG95082                   1011ab3c     acl_test_outer.obj
 0003:00059b40       $SG95084                   1011ab40     acl_test_outer.obj
 0003:00059b64       $SG95088                   1011ab64     acl_test_outer.obj
 0003:00059b98       $SG95091                   1011ab98     acl_test_outer.obj
 0003:00059bc4       $SG95098                   1011abc4     acl_test_outer.obj
 0003:00059bf8       $SG95239                   1011abf8     acl_test_runner.obj
 0003:00059c20       $SG95249                   1011ac20     acl_test_runner.obj
 0003:00059c30       $SG95254                   1011ac30     acl_test_runner.obj
 0003:00059c4c       $SG95262                   1011ac4c     acl_test_runner.obj
 0003:00059c70       $SG95269                   1011ac70     acl_test_runner.obj
 0003:00059c90       $SG95271                   1011ac90     acl_test_runner.obj
 0003:00059cb8       $SG95275                   1011acb8     acl_test_runner.obj
 0003:00059cc4       $SG95279                   1011acc4     acl_test_runner.obj
 0003:00059ce8       $SG95281                   1011ace8     acl_test_runner.obj
 0003:00059d0c       $SG95292                   1011ad0c     acl_test_runner.obj
 0003:00059d30       $SG95309                   1011ad30     acl_test_runner.obj
 0003:00059d40       $SG95313                   1011ad40     acl_test_runner.obj
 0003:00059d64       $SG95316                   1011ad64     acl_test_runner.obj
 0003:00059d84       $SG95084                   1011ad84     acl_test_runner.obj
 0003:00059d90       $SG95085                   1011ad90     acl_test_runner.obj
 0003:00059db4       $SG95093                   1011adb4     acl_test_runner.obj
 0003:00059dc4       $SG95096                   1011adc4     acl_test_runner.obj
 0003:00059dcc       $SG95099                   1011adcc     acl_test_runner.obj
 0003:00059dd4       $SG95100                   1011add4     acl_test_runner.obj
 0003:00059df4       $SG95101                   1011adf4     acl_test_runner.obj
 0003:00059e10       $SG95110                   1011ae10     acl_test_runner.obj
 0003:00059e20       $SG95112                   1011ae20     acl_test_runner.obj
 0003:00059e44       $SG95124                   1011ae44     acl_test_runner.obj
 0003:00059e58       $SG95132                   1011ae58     acl_test_runner.obj
 0003:00059e70       $SG95134                   1011ae70     acl_test_runner.obj
 0003:00059e8c       $SG95148                   1011ae8c     acl_test_runner.obj
 0003:00059ea0       $SG95154                   1011aea0     acl_test_runner.obj
 0003:00059ed0       $SG95156                   1011aed0     acl_test_runner.obj
 0003:00059f10       ___inner_fn_tab            1011af10     acl_test_runner.obj
 0003:00059fec       $SG95188                   1011afec     acl_test_runner.obj
 0003:00059ff4       $SG95189                   1011aff4     acl_test_runner.obj
 0003:0005a000       $SG95191                   1011b000     acl_test_runner.obj
 0003:0005a008       $SG95192                   1011b008     acl_test_runner.obj
 0003:0005a018       $SG95194                   1011b018     acl_test_runner.obj
 0003:0005a020       $SG95195                   1011b020     acl_test_runner.obj
 0003:0005a030       $SG95197                   1011b030     acl_test_runner.obj
 0003:0005a03c       $SG95198                   1011b03c     acl_test_runner.obj
 0003:0005a050       $SG95200                   1011b050     acl_test_runner.obj
 0003:0005a05c       $SG95201                   1011b05c     acl_test_runner.obj
 0003:0005a070       $SG95203                   1011b070     acl_test_runner.obj
 0003:0005a07c       $SG95204                   1011b07c     acl_test_runner.obj
 0003:0005a08c       $SG95206                   1011b08c     acl_test_runner.obj
 0003:0005a090       $SG95207                   1011b090     acl_test_runner.obj
 0003:0005a09c       $SG95209                   1011b09c     acl_test_runner.obj
 0003:0005a0a4       $SG95210                   1011b0a4     acl_test_runner.obj
 0003:0005a0b0       $SG95212                   1011b0b0     acl_test_runner.obj
 0003:0005a0b8       $SG95213                   1011b0b8     acl_test_runner.obj
 0003:0005a0c8       $SG95215                   1011b0c8     acl_test_runner.obj
 0003:0005a0d0       $SG95216                   1011b0d0     acl_test_runner.obj
 0003:0005a0dc       $SG95227                   1011b0dc     acl_test_runner.obj
 0003:0005a0f0       $SG95072                   1011b0f0     acl_test_token.obj
 0003:0005a104       $SG95078                   1011b104     acl_test_token.obj
 0003:0005a114       $SG95087                   1011b114     acl_test_token.obj
 0003:0005a124       $SG95095                   1011b124     acl_test_token.obj
 0003:0005a148       $SG95096                   1011b148     acl_test_token.obj
 0003:0005a160       $SG95103                   1011b160     acl_test_token.obj
 0003:0005a170       $SG95104                   1011b170     acl_test_token.obj
 0003:0005a180       $SG95105                   1011b180     acl_test_token.obj
 0003:0005a1a4       $SG95106                   1011b1a4     acl_test_token.obj
 0003:0005a1d0       $SG95109                   1011b1d0     acl_test_token.obj
 0003:0005a1f4       $SG95110                   1011b1f4     acl_test_token.obj
 0003:0005a20c       $SG95237                   1011b20c     master_params.obj
 0003:0005a22c       $SG95238                   1011b22c     master_params.obj
 0003:0005a260       $SG95249                   1011b260     master_params.obj
 0003:0005a27c       $SG95257                   1011b27c     master_params.obj
 0003:0005a29c       $SG95258                   1011b29c     master_params.obj
 0003:0005a2d0       $SG95092                   1011b2d0     master_params.obj
 0003:0005a2f0       $SG95145                   1011b2f0     master_params.obj
 0003:0005a310       $SG95147                   1011b310     master_params.obj
 0003:0005a330       $SG95172                   1011b330     master_params.obj
 0003:0005a344       $SG95176                   1011b344     master_params.obj
 0003:0005a364       $SG95177                   1011b364     master_params.obj
 0003:0005a37c       $SG95182                   1011b37c     master_params.obj
 0003:0005a39c       $SG95183                   1011b39c     master_params.obj
 0003:0005a3d0       $SG95184                   1011b3d0     master_params.obj
 0003:0005a3f0       $SG95189                   1011b3f0     master_params.obj
 0003:0005a40c       $SG95197                   1011b40c     master_params.obj
 0003:0005a42c       $SG95198                   1011b42c     master_params.obj
 0003:0005a460       $SG95209                   1011b460     master_params.obj
 0003:0005a480       $SG95217                   1011b480     master_params.obj
 0003:0005a4a0       $SG95218                   1011b4a0     master_params.obj
 0003:0005a4d4       $SG95229                   1011b4d4     master_params.obj
 0003:0005a4f0       $SG95245                   1011b4f0     acl_proctl.obj
 0003:0005a508       $SG95258                   1011b508     acl_proctl.obj
 0003:0005a50c       $SG95259                   1011b50c     acl_proctl.obj
 0003:0005a510       $SG95260                   1011b510     acl_proctl.obj
 0003:0005a514       $SG95263                   1011b514     acl_proctl.obj
 0003:0005a530       $SG95265                   1011b530     acl_proctl.obj
 0003:0005a544       $SG95269                   1011b544     acl_proctl.obj
 0003:0005a56c       $SG95274                   1011b56c     acl_proctl.obj
 0003:0005a578       $SG95285                   1011b578     acl_proctl.obj
 0003:0005a58c       $SG95298                   1011b58c     acl_proctl.obj
 0003:0005a590       $SG95299                   1011b590     acl_proctl.obj
 0003:0005a594       $SG95300                   1011b594     acl_proctl.obj
 0003:0005a598       $SG95303                   1011b598     acl_proctl.obj
 0003:0005a5b4       $SG95305                   1011b5b4     acl_proctl.obj
 0003:0005a5c8       $SG95309                   1011b5c8     acl_proctl.obj
 0003:0005a5f0       $SG95314                   1011b5f0     acl_proctl.obj
 0003:0005a5fc       $SG95319                   1011b5fc     acl_proctl.obj
 0003:0005a600       $SG95324                   1011b600     acl_proctl.obj
 0003:0005a610       $SG95329                   1011b610     acl_proctl.obj
 0003:0005a620       $SG95331                   1011b620     acl_proctl.obj
 0003:0005a648       $SG95337                   1011b648     acl_proctl.obj
 0003:0005a658       $SG95342                   1011b658     acl_proctl.obj
 0003:0005a668       $SG95347                   1011b668     acl_proctl.obj
 0003:0005a678       $SG95349                   1011b678     acl_proctl.obj
 0003:0005a6a0       $SG95355                   1011b6a0     acl_proctl.obj
 0003:0005a6b0       $SG95356                   1011b6b0     acl_proctl.obj
 0003:0005a6b8       $SG95363                   1011b6b8     acl_proctl.obj
 0003:0005a6c8       $SG95368                   1011b6c8     acl_proctl.obj
 0003:0005a6dc       $SG95370                   1011b6dc     acl_proctl.obj
 0003:0005a704       $SG95376                   1011b704     acl_proctl.obj
 0003:0005a714       $SG95377                   1011b714     acl_proctl.obj
 0003:0005a71c       $SG95388                   1011b71c     acl_proctl.obj
 0003:0005a738       $SG95178                   1011b738     acl_proctl.obj
 0003:0005a750       $SG95182                   1011b750     acl_proctl.obj
 0003:0005a768       $SG95188                   1011b768     acl_proctl.obj
 0003:0005a784       $SG95193                   1011b784     acl_proctl.obj
 0003:0005a79c       $SG95202                   1011b79c     acl_proctl.obj
 0003:0005a7cc       $SG95211                   1011b7cc     acl_proctl.obj
 0003:0005a7e8       $SG95214                   1011b7e8     acl_proctl.obj
 0003:0005a80c       $SG95221                   1011b80c     acl_proctl.obj
 0003:0005a820       $SG95227                   1011b820     acl_proctl.obj
 0003:0005a84c       $SG95230                   1011b84c     acl_proctl.obj
 0003:0005a870       $SG95250                   1011b870     proctl_child.obj
 0003:0005a878       $SG95252                   1011b878     proctl_child.obj
 0003:0005a890       $SG95258                   1011b890     proctl_child.obj
 0003:0005a8a4       $SG95271                   1011b8a4     proctl_child.obj
 0003:0005a8b8       $SG95272                   1011b8b8     proctl_child.obj
 0003:0005a8bc       $SG95275                   1011b8bc     proctl_child.obj
 0003:0005a8d4       $SG95286                   1011b8d4     proctl_child.obj
 0003:0005a8e8       $SG95291                   1011b8e8     proctl_child.obj
 0003:0005a934       $SG95172                   1011b934     proctl_child.obj
 0003:0005a968       $SG95173                   1011b968     proctl_child.obj
 0003:0005a99c       $SG95181                   1011b99c     proctl_child.obj
 0003:0005a9b4       $SG95183                   1011b9b4     proctl_child.obj
 0003:0005a9cc       $SG95184                   1011b9cc     proctl_child.obj
 0003:0005a9e0       $SG95186                   1011b9e0     proctl_child.obj
 0003:0005aa04       $SG95187                   1011ba04     proctl_child.obj
 0003:0005aa34       $SG95188                   1011ba34     proctl_child.obj
 0003:0005aa4c       $SG95190                   1011ba4c     proctl_child.obj
 0003:0005aa80       $SG95191                   1011ba80     proctl_child.obj
 0003:0005aaa0       $SG95201                   1011baa0     proctl_child.obj
 0003:0005aab8       $SG95232                   1011bab8     proctl_monitor.obj
 0003:0005aad0       $SG95233                   1011bad0     proctl_monitor.obj
 0003:0005aae4       $SG95235                   1011bae4     proctl_monitor.obj
 0003:0005aae8       $SG95236                   1011bae8     proctl_monitor.obj
 0003:0005ab00       $SG95239                   1011bb00     proctl_monitor.obj
 0003:0005ab28       $SG95240                   1011bb28     proctl_monitor.obj
 0003:0005ab48       $SG95241                   1011bb48     proctl_monitor.obj
 0003:0005ab68       $SG95242                   1011bb68     proctl_monitor.obj
 0003:0005ab80       $SG95252                   1011bb80     proctl_monitor.obj
 0003:0005ab9c       $SG95257                   1011bb9c     proctl_monitor.obj
 0003:0005abb4       $SG95258                   1011bbb4     proctl_monitor.obj
 0003:0005abc8       $SG95260                   1011bbc8     proctl_monitor.obj
 0003:0005abec       $SG95261                   1011bbec     proctl_monitor.obj
 0003:0005ac10       $SG95262                   1011bc10     proctl_monitor.obj
 0003:0005ac14       $SG95263                   1011bc14     proctl_monitor.obj
 0003:0005ac18       $SG95265                   1011bc18     proctl_monitor.obj
 0003:0005ac1c       $SG95271                   1011bc1c     proctl_monitor.obj
 0003:0005ac34       $SG95272                   1011bc34     proctl_monitor.obj
 0003:0005ac50       $SG95273                   1011bc50     proctl_monitor.obj
 0003:0005ac70       $SG95274                   1011bc70     proctl_monitor.obj
 0003:0005ac88       $SG95275                   1011bc88     proctl_monitor.obj
 0003:0005ac98       $SG95276                   1011bc98     proctl_monitor.obj
 0003:0005acc4       $SG95286                   1011bcc4     proctl_monitor.obj
 0003:0005ace4       $SG95290                   1011bce4     proctl_monitor.obj
 0003:0005ad00       $SG95293                   1011bd00     proctl_monitor.obj
 0003:0005ad1c       $SG95303                   1011bd1c     proctl_monitor.obj
 0003:0005ad34       $SG95305                   1011bd34     proctl_monitor.obj
 0003:0005ad54       $SG95307                   1011bd54     proctl_monitor.obj
 0003:0005ad78       $SG95312                   1011bd78     proctl_monitor.obj
 0003:0005add0       $SG95313                   1011bdd0     proctl_monitor.obj
 0003:0005ae28       $SG95323                   1011be28     proctl_monitor.obj
 0003:0005ae3c       $SG95336                   1011be3c     proctl_monitor.obj
 0003:0005ae50       $SG95378                   1011be50     proctl_monitor.obj
 0003:0005ae58       $SG95381                   1011be58     proctl_monitor.obj
 0003:0005ae60       $SG95384                   1011be60     proctl_monitor.obj
 0003:0005ae68       $SG95387                   1011be68     proctl_monitor.obj
 0003:0005ae70       $SG95390                   1011be70     proctl_monitor.obj
 0003:0005ae78       $SG95392                   1011be78     proctl_monitor.obj
 0003:0005ae90       $SG95398                   1011be90     proctl_monitor.obj
 0003:0005aea4       $SG95411                   1011bea4     proctl_monitor.obj
 0003:0005aeb8       $SG95412                   1011beb8     proctl_monitor.obj
 0003:0005aebc       $SG95419                   1011bebc     proctl_monitor.obj
 0003:0005aed4       $SG95424                   1011bed4     proctl_monitor.obj
 0003:0005af00       $SG95172                   1011bf00     proctl_monitor.obj
 0003:0005af1c       $SG95180                   1011bf1c     proctl_monitor.obj
 0003:0005af3c       $SG95181                   1011bf3c     proctl_monitor.obj
 0003:0005af64       $SG95184                   1011bf64     proctl_monitor.obj
 0003:0005af8c       $SG95185                   1011bf8c     proctl_monitor.obj
 0003:0005afb0       $SG95187                   1011bfb0     proctl_monitor.obj
 0003:0005afcc       $SG95189                   1011bfcc     proctl_monitor.obj
 0003:0005afe0       $SG95192                   1011bfe0     proctl_monitor.obj
 0003:0005b008       $SG95193                   1011c008     proctl_monitor.obj
 0003:0005b030       $SG95196                   1011c030     proctl_monitor.obj
 0003:0005b058       $SG95197                   1011c058     proctl_monitor.obj
 0003:0005b080       $SG95200                   1011c080     proctl_monitor.obj
 0003:0005b084       $SG95201                   1011c084     proctl_monitor.obj
 0003:0005b0ac       $SG95202                   1011c0ac     proctl_monitor.obj
 0003:0005b0dc       $SG95204                   1011c0dc     proctl_monitor.obj
 0003:0005b0f0       $SG95205                   1011c0f0     proctl_monitor.obj
 0003:0005b10c       $SG95214                   1011c10c     proctl_monitor.obj
 0003:0005b12c       $SG95228                   1011c12c     proctl_monitor.obj
 0003:0005b144       $SG95235                   1011c144     proctl_service.obj
 0003:0005b168       $SG95244                   1011c168     proctl_service.obj
 0003:0005b188       $SG95249                   1011c188     proctl_service.obj
 0003:0005b1a8       $SG95257                   1011c1a8     proctl_service.obj
 0003:0005b1bc       $SG95262                   1011c1bc     proctl_service.obj
 0003:0005b1e0       $SG95274                   1011c1e0     proctl_service.obj
 0003:0005b1f4       $SG95282                   1011c1f4     proctl_service.obj
 0003:0005b1f8       $SG95283                   1011c1f8     proctl_service.obj
 0003:0005b1fc       $SG95287                   1011c1fc     proctl_service.obj
 0003:0005b200       $SG95288                   1011c200     proctl_service.obj
 0003:0005b204       $SG95290                   1011c204     proctl_service.obj
 0003:0005b224       $SG95300                   1011c224     proctl_service.obj
 0003:0005b244       $SG95312                   1011c244     proctl_service.obj
 0003:0005b264       $SG95319                   1011c264     proctl_service.obj
 0003:0005b278       $SG95387                   1011c278     proctl_service.obj
 0003:0005b290       $SG95396                   1011c290     proctl_service.obj
 0003:0005b2bc       $SG95409                   1011c2bc     proctl_service.obj
 0003:0005b2dc       $SG95417                   1011c2dc     proctl_service.obj
 0003:0005b2fc       $SG95439                   1011c2fc     proctl_service.obj
 0003:0005b30c       $SG95455                   1011c30c     proctl_service.obj
 0003:0005b32c       $SG95462                   1011c32c     proctl_service.obj
 0003:0005b340       $SG95478                   1011c340     proctl_service.obj
 0003:0005b364       $SG95482                   1011c364     proctl_service.obj
 0003:0005b37c       $SG95486                   1011c37c     proctl_service.obj
 0003:0005b390       $SG95498                   1011c390     proctl_service.obj
 0003:0005b3b8       $SG95502                   1011c3b8     proctl_service.obj
 0003:0005b3d4       $SG95504                   1011c3d4     proctl_service.obj
 0003:0005b3f8       $SG95508                   1011c3f8     proctl_service.obj
 0003:0005b420       $SG95513                   1011c420     proctl_service.obj
 0003:0005b450       ___sem_handle              1011c450     proctl_service.obj
 0003:0005b454       ___max_handle              1011c454     proctl_service.obj
 0003:0005b458       $SG95180                   1011c458     proctl_service.obj
 0003:0005b468       $SG95184                   1011c468     proctl_service.obj
 0003:0005b488       $SG95199                   1011c488     proctl_service.obj
 0003:0005b494       $SG95202                   1011c494     proctl_service.obj
 0003:0005b4ac       $SG95209                   1011c4ac     proctl_service.obj
 0003:0005b4d0       $SG95215                   1011c4d0     proctl_service.obj
 0003:0005b4dc       $SG95224                   1011c4dc     proctl_service.obj
 0003:0005b4fc       $SG95227                   1011c4fc     proctl_service.obj
 0003:0005b510       $SG95233                   1011c510     proctl_utils.obj
 0003:0005b530       $SG95235                   1011c530     proctl_utils.obj
 0003:0005b53c       $SG95238                   1011c53c     proctl_utils.obj
 0003:0005b558       $SG95240                   1011c558     proctl_utils.obj
 0003:0005b57c       $SG95242                   1011c57c     proctl_utils.obj
 0003:0005b5a0       $SG95244                   1011c5a0     proctl_utils.obj
 0003:0005b5a8       $SG95245                   1011c5a8     proctl_utils.obj
 0003:0005b5d0       $SG95247                   1011c5d0     proctl_utils.obj
 0003:0005b5f4       $SG95249                   1011c5f4     proctl_utils.obj
 0003:0005b614       $SG95174                   1011c614     proctl_utils.obj
 0003:0005b620       $SG95187                   1011c620     proctl_utils.obj
 0003:0005b628       $SG95200                   1011c628     proctl_utils.obj
 0003:0005b62c       $SG95203                   1011c62c     proctl_utils.obj
 0003:0005b634       $SG95212                   1011c634     proctl_utils.obj
 0003:0005b648       $SG95218                   1011c648     proctl_utils.obj
 0003:0005b66c       $SG95220                   1011c66c     proctl_utils.obj
 0003:0005b694       $SG95223                   1011c694     proctl_utils.obj
 0003:0005b6a4       $SG95231                   1011c6a4     proctl_utils.obj
 0003:0005b6c8       _version                   1011c6c8     acl_init.obj
 0003:0005b6cc       $SG95246                   1011c6cc     acl_init.obj
 0003:0005b6dc       _acl_var_main_tid          1011c6dc     acl_init.obj
 0003:0005b6e0       $SG95321                   1011c6e0     private_vstream.obj
 0003:0005b6f0       $SG95324                   1011c6f0     private_vstream.obj
 0003:0005b700       $SG95338                   1011c700     private_vstream.obj
 0003:0005b710       $SG95341                   1011c710     private_vstream.obj
 0003:0005b720       $SG95347                   1011c720     private_vstream.obj
 0003:0005b734       $SG95474                   1011c734     private_vstream.obj
 0003:0005b768       $SG95674                   1011c768     private_vstream.obj
 0003:0005b76c       $SG95677                   1011c76c     private_vstream.obj
 0003:0005b770       $SG95845                   1011c770     private_vstream.obj
 0003:0005b774       ?types_tab@?1??acl_json_node_type@@9@9 1011c774     acl_json.obj
 0003:0005b780       $SG95235                   1011c780     acl_json.obj
 0003:0005b78c       $SG95236                   1011c78c     acl_json.obj
 0003:0005b798       $SG95237                   1011c798     acl_json.obj
 0003:0005b7a8       ?unknown@?1??acl_json_node_type@@9@9 1011c7a8     acl_json.obj
 0003:0005b7ac       $SG95240                   1011c7ac     acl_json.obj
 0003:0005b7b4       $SG95283                   1011c7b4     acl_json.obj
 0003:0005b7cc       $SG95284                   1011c7cc     acl_json.obj
 0003:0005b7e0       $SG95333                   1011c7e0     acl_json.obj
 0003:0005b7f8       $SG95334                   1011c7f8     acl_json.obj
 0003:0005b80c       $SG95351                   1011c80c     acl_json.obj
 0003:0005b824       $SG95355                   1011c824     acl_json.obj
 0003:0005b83c       $SG95404                   1011c83c     acl_json.obj
 0003:0005b854       $SG95409                   1011c854     acl_json.obj
 0003:0005b86c       $SG95415                   1011c86c     acl_json.obj
 0003:0005b87c       $SG95428                   1011c87c     acl_json.obj
 0003:0005b89c       $SG95148                   1011c89c     acl_json.obj
 0003:0005b8b4       $SG95152                   1011c8b4     acl_json.obj
 0003:0005b8cc       $SG95158                   1011c8cc     acl_json.obj
 0003:0005b8e4       $SG95163                   1011c8e4     acl_json.obj
 0003:0005b8fc       _status_tab                1011c8fc     acl_json_parse.obj
 0003:0005b92c       $SG95095                   1011c92c     acl_json_util.obj
 0003:0005b930       $SG95115                   1011c930     acl_json_util.obj
 0003:0005b934       $SG95150                   1011c934     acl_json_util.obj
 0003:0005b950       $SG95152                   1011c950     acl_json_util.obj
 0003:0005b978       $SG95192                   1011c978     acl_json_util.obj
 0003:0005b97c       $SG95200                   1011c97c     acl_json_util.obj
 0003:0005b9b0       ___decode_token_tree       1011c9b0     acl_htmlcode.obj
 0003:0005b9b4       ___decode_token_once       1011c9b4     acl_htmlcode.obj
 0003:0005b9b8       ___token_tree              1011c9b8     acl_xmlcode.obj
 0003:0005b9bc       ___token_once              1011c9bc     acl_xmlcode.obj
 0003:0005b9c0       _pDebugLevels              1011c9c0     acl_debug.obj
 0003:0005b9cc       _scan                      1011c9cc     acl_getopt.obj
 0003:0005b9d0       ___tls                     1011c9d0     acl_meter_time.obj
 0003:0005b9d4       _once_control              1011c9d4     acl_meter_time.obj
 0003:0005b9d8       _once_key                  1011c9d8     acl_meter_time.obj
 0003:0005b9dc       ___main_buf                1011c9dc     acl_msg.obj
 0003:0005b9e0       _once_control              1011c9e0     acl_msg.obj
 0003:0005b9e8       ___log_open_flag           1011c9e8     acl_msg.obj
 0003:0005b9ec       ___stdout_enable           1011c9ec     acl_msg.obj
 0003:0005b9f0       ___open_fn                 1011c9f0     acl_msg.obj
 0003:0005b9f4       ___close_fn                1011c9f4     acl_msg.obj
 0003:0005b9f8       ___write_fn                1011c9f8     acl_msg.obj
 0003:0005b9fc       ___pre_write_fn            1011c9fc     acl_msg.obj
 0003:0005ba00       ___pre_write_ctx           1011ca00     acl_msg.obj
 0003:0005ba04       ___msg_ctx                 1011ca04     acl_msg.obj
 0003:0005ba08       ___errbuf_key              1011ca08     acl_msg.obj
 0003:0005ba0c       ___log_thread_id           1011ca0c     acl_mylog.obj
 0003:0005ba10       ___loggers                 1011ca10     acl_mylog.obj
 0003:0005ba14       $SG95111                   1011ca14     acl_readline.obj
 0003:0005ba18       ___vstream_stdin_buf       1011ca18     acl_vstream.obj
 0003:0005ca18       ___vstream_stdout_buf      1011da18     acl_vstream.obj
 0003:0005da18       ___vstream_stderr_buf      1011ea18     acl_vstream.obj
 0003:0005ea18       ?__called@?1??acl_vstream_init@@9@9 1011fa18     acl_vstream.obj
 0003:0005ea1c       ?id@?1??acl_pipe@@9@9      1011fa1c     acl_pipe.obj
 0003:0005ea20       ?__buf_unsafe@?1??acl_token_name1@@9@9 1011fa20     acl_token_tree.obj
 0003:0005ea24       ___debug_section           1011fa24     acl_fhandle.obj
 0003:0005ea28       ___flags                   1011fa28     acl_fhandle.obj
 0003:0005ea2c       ___fhandle_table           1011fa2c     acl_fhandle.obj
 0003:0005ea30       ___fhandle_free_list       1011fa30     acl_fhandle.obj
 0003:0005ea40       ___fhandle_mutex           1011fa40     acl_fhandle.obj
 0003:0005ea48       ?buf_unsafe@?1??get_tls_buf@@9@9 1011fa48     acl_process.obj
 0003:0005fa48       ___socket_inited           10120a48     acl_sys_socket.obj
 0003:0005fa4c       ___socket_ended            10120a4c     acl_sys_socket.obj
 0003:0005fa50       ___tls                     10120a50     gettimeofday.obj
 0003:0005fa54       _once_control              10120a54     gettimeofday.obj
 0003:0005fa58       _once_key                  10120a58     gettimeofday.obj
 0003:0005fa5c       _empty_string              10120a5c     acl_default_malloc.obj
 0003:0005fa60       ___debug_mem               10120a60     acl_malloc_glue.obj
 0003:0005fa64       ___malloc_length           10120a64     acl_malloc_glue.obj
 0003:0005fa68       ___malloc_call_counter     10120a68     acl_malloc_glue.obj
 0003:0005fa6c       ___calloc_call_counter     10120a6c     acl_malloc_glue.obj
 0003:0005fa70       ___realloc_call_counter    10120a70     acl_malloc_glue.obj
 0003:0005fa74       ___strdup_call_counter     10120a74     acl_malloc_glue.obj
 0003:0005fa78       ___strndup_call_counter    10120a78     acl_malloc_glue.obj
 0003:0005fa7c       ___memdup_call_counter     10120a7c     acl_malloc_glue.obj
 0003:0005fa80       ___free_call_counter       10120a80     acl_malloc_glue.obj
 0003:0005fa84       ___mem_counter             10120a84     acl_malloc_glue.obj
 0003:0005fa88       ___mem_stack               10120a88     acl_malloc_glue.obj
 0003:0005fa8c       ___alloc_stat              10120a8c     acl_malloc_glue.obj
 0003:0005fa90       ___alloc_over_1MB          10120a90     acl_malloc_glue.obj
 0003:0005fa94       ___fastmutex_stat          10120a94     acl_malloc_glue.obj
 0003:0005fa9c       _once_control              10120a9c     acl_mem_slice.obj
 0003:0005faa0       ___mem_slice_list          10120aa0     acl_mem_slice.obj
 0003:0005faa4       ___mem_slice_list_lock     10120aa4     acl_mem_slice.obj
 0003:0005faa8       ___main_mem_slice          10120aa8     acl_mem_slice.obj
 0003:0005faac       ___use_lock                10120aac     acl_mempool.obj
 0003:0005fab0       ___var_allocator           10120ab0     acl_mempool.obj
 0003:0005fab4       ___lock                    10120ab4     acl_mempool.obj
 0003:0005fac0       ?call_id@?1??gb_to_str@@9@9 10120ac0     squid_allocator_tools.obj
 0003:0005fac8       ?bufs@?1??gb_to_str@@9@9   10120ac8     squid_allocator_tools.obj
 0003:0005fb68       ___var_allocator           10120b68     vstring_pool.obj
 0003:0005fb6c       ___debug_mem               10120b6c     acl_debug_malloc.obj
 0003:0005fb70       ___host_allow_link         10120b70     acl_access.obj
 0003:0005fb74       ___host_allow_all          10120b74     acl_access.obj
 0003:0005fb78       $SG95090                   10120b78     acl_inet_listen.obj
 0003:0005fb7c       ___cache_table             10120b7c     acl_netdb_cache.obj
 0003:0005fb80       ___use_trylock             10120b80     acl_netdb_cache.obj
 0003:0005fb84       ___cache_mutex             10120b84     acl_netdb_cache.obj
 0003:0005fb8c       ___cache_ring              10120b8c     acl_netdb_cache.obj
 0003:0005fb9c       ?rev@?1??rfc1035BuildPTRQuery@@9@9 10120b9c     rfc1035.obj
 0003:0005fbc0       ___pthread_atexit_control_once 10120bc0     acl_pthread.obj
 0003:0005fbc4       ___tls_ctx_control_once    10120bc4     acl_pthread.obj
 0003:0005fbc8       ___main_tls_ctx            10120bc8     acl_pthread.obj
 0003:0005fbcc       ___thread_inited           10120bcc     acl_pthread.obj
 0003:0005fbd0       ___create_thread_control_once 10120bd0     acl_pthread.obj
 0003:0005fbd4       ?__thread_ended@?1??acl_pthread_end@@9@9 10120bd4     acl_pthread.obj
 0003:0005fbd8       ___tls_key_list            10120bd8     acl_pthread.obj
 0003:00061bd8       ___thread_lock             10122bd8     acl_pthread.obj
 0003:00061be0       _thread_mutex_once_control 10122be0     acl_pthread_mutex.obj
 0003:00061be4       ___header_key              10122be4     acl_pthread_mutex.obj
 0003:00061be8       ___global_mio              10122be8     acl_msgio.obj
 0003:00061bec       ___global_mutex            10122bec     acl_msgio.obj
 0003:00061bf4       _tag_tree                  10122bf4     acl_xml_util.obj
 0003:00061bf8       ?last_time@?1??__dbpool_peek@@9@9 10122bf8     acl_dbpool_null.obj
 0003:00061c00       ?__buf_unsafe@?1??dat_filepath@@9@9 10122c00     zdb_dat.obj
 0003:00061c04       ?__buf_unsafe@?1??dat_path@@9@9 10122c04     zdb_dat.obj
 0003:00061c08       ___tls                     10122c08     zdb_dat_iter.obj
 0003:00061c0c       _once_control              10122c0c     zdb_dat_iter.obj
 0003:00061c10       ___tls2                    10122c10     zdb_dat_iter.obj
 0003:00061c14       _once_control2             10122c14     zdb_dat_iter.obj
 0003:00061c18       _once_key                  10122c18     zdb_dat_iter.obj
 0003:00061c1c       _once_key2                 10122c1c     zdb_dat_iter.obj
 0003:00061c20       ___n                       10122c20     zdb_io.obj
 0003:00061c24       ___tls                     10122c24     zdb_key.obj
 0003:00061c28       _once_control              10122c28     zdb_key.obj
 0003:00061c2c       _once_key                  10122c2c     zdb_key.obj
 0003:00061c3c       ___if_nested_count         10122c3c     acl_test_inner.obj
 0003:00061c40       ___if_count                10122c40     acl_test_inner.obj
 0003:00061c44       ___endif_count             10122c44     acl_test_inner.obj
 0003:00061c48       ___loop_nested_count       10122c48     acl_test_loop.obj
 0003:00061c4c       ___loop_begin_count        10122c4c     acl_test_loop.obj
 0003:00061c50       ___loop_end_count          10122c50     acl_test_loop.obj
 0003:00061c58       ___all_callback_fn         10122c58     acl_test_runner.obj
 0003:00061c5c       ___app_cfg                 10122c5c     master_params.obj
 0003:00061c60       ___app_conf_file           10122c60     master_params.obj
 0003:00061c68       ___onexit_fn               10122c68     proctl_child.obj
 0003:00061c6c       ___onexit_arg              10122c6c     proctl_child.obj
 0003:00061c70       ___services                10122c70     proctl_service.obj
 0003:00061c74       ___handles                 10122c74     proctl_service.obj
 0003:00061c78       ___cur_handle              10122c78     proctl_service.obj
 0003:00061c7c       ___services_wait           10122c7c     proctl_service.obj
 0003:00061c80       ___mutex_running_service   10122c80     proctl_service.obj
 0003:00061c88       ___mutex_waiting_service   10122c88     proctl_service.obj
 0003:00061c90       ?__have_inited@?1??acl_init@@9@9 10122c90     acl_init.obj
 0003:00061c94       ?__have_ended@?1??acl_end@@9@9 10122c94     acl_init.obj
 0003:00061c98       ___once_control            10122c98     acl_init.obj
 0003:00061c9c       ?init@?1??_RTC_InitBase@@9@4_NA 10122c9c     MSVCRTD:init.obj
 0003:00061ca0       _GS_ExceptionRecord        10122ca0     MSVCRTD:gs_report.obj
 0003:00061cf0       _GS_ContextRecord          10122cf0     MSVCRTD:gs_report.obj
 0003:00061fbc       _DebuggerWasPresent        10122fbc     MSVCRTD:gs_report.obj
 0003:00061fc0       ___proc_attached           10122fc0     MSVCRTD:crtdll.obj
 0003:00061fc8       __RTC_ErrorReportFunc      10122fc8     MSVCRTD:userapi.obj
 0003:00061fcc       __RTC_ErrorReportFuncW     10122fcc     MSVCRTD:userapi.obj
 0003:00061fe0       _mspdb                     10122fe0     MSVCRTD:pdblkup.obj
 0003:00061fe4       ?alreadyTried@?1??GetPdbDll@@YAPAUHINSTANCE__@@XZ@4_NA 10122fe4     MSVCRTD:pdblkup.obj
 0003:00061fe5       ?PDBOK@?BM@??_RTC_GetSrcLine@@YAHPAEPA_WKPAH1K@Z@4_NA 10122fe5     MSVCRTD:pdblkup.obj
 0004:000000a0       $R000000                   101230a0     lib_acl.res
 0004:00000358       $R0002B8                   10123358     lib_acl.res
