Certificate:
    Data:
        Version: 3 (0x2)
        Serial Number:
            99:db:fb:a0:7d:64:c7:e5
        Signature Algorithm: sha1WithRSAEncryption
        Issuer: C=cn, ST=bj, O=hx, OU=hx, CN=zsxxsz/emailAddress=zsxxsz@263.net
        Validity
            Not Before: Jul  3 02:55:25 2009 GMT
            Not After : Jul  3 02:55:25 2010 GMT
        Subject: C=cn, ST=bj, O=hx, OU=hx, CN=zsxxsz/emailAddress=zsxxsz@263.net
        Subject Public Key Info:
            Public Key Algorithm: rsaEncryption
                Public-Key: (1024 bit)
                Modulus:
                    00:99:0a:16:d5:59:20:08:21:18:47:73:2d:32:3f:
                    5b:18:f1:e2:d5:4b:93:4a:b2:f4:51:d0:bc:5d:5e:
                    12:99:c5:a3:16:b1:98:64:e2:fa:31:b3:9e:e8:36:
                    bb:ac:1e:65:f4:cf:05:8e:e8:61:2e:27:a6:15:91:
                    b6:e8:93:ae:aa:29:3c:8e:65:f4:b5:e6:e2:ea:9c:
                    b5:7b:00:5a:b3:bd:bb:64:a3:9a:6b:c8:45:84:85:
                    0e:27:f9:4d:72:1b:8b:20:76:2b:a6:b1:af:79:fc:
                    a5:cf:a6:c3:d9:7f:ad:cd:69:4b:bb:74:0e:04:a8:
                    cb:e4:c5:67:e6:b8:e0:97:0d
                Exponent: 65537 (0x10001)
        X509v3 extensions:
            X509v3 Basic Constraints: 
                CA:FALSE
            Netscape Comment: 
                OpenSSL Generated Certificate
            X509v3 Subject Key Identifier: 
                AF:3D:BE:4C:E7:4D:F9:31:6C:93:26:D0:6D:CF:01:FC:2C:2F:D5:6A
            X509v3 Authority Key Identifier: 
                keyid:5C:E4:76:38:12:00:15:9D:0D:41:CB:0C:AA:0D:F3:8C:FC:8E:E0:90

    Signature Algorithm: sha1WithRSAEncryption
        11:a1:8c:aa:c9:85:ec:45:08:c6:9e:a5:ed:79:e2:1a:ac:f0:
        11:bd:8a:aa:ec:c6:bb:39:a6:c2:80:48:01:b7:27:4f:0c:3d:
        57:73:98:c7:68:11:a2:14:7c:dc:de:79:e0:dc:c2:82:d6:57:
        b1:4b:2a:4d:d4:11:f0:4a:65:05:d3:26:82:9b:af:66:6f:62:
        57:b7:06:b2:d6:c5:d8:f7:2a:1a:74:83:11:f3:ba:44:16:48:
        6a:90:3c:38:7d:f9:32:79:b4:53:c0:ee:ef:09:5e:06:d2:eb:
        8f:3b:0d:1e:da:a0:ba:4a:ed:44:32:8a:36:02:e0:fa:ee:78:
        5e:40
-----BEGIN CERTIFICATE-----
MIICwTCCAiqgAwIBAgIJAJnb+6B9ZMflMA0GCSqGSIb3DQEBBQUAMGQxCzAJBgNV
BAYTAmNuMQswCQYDVQQIDAJiajELMAkGA1UECgwCaHgxCzAJBgNVBAsMAmh4MQ8w
DQYDVQQDDAZ6c3h4c3oxHTAbBgkqhkiG9w0BCQEWDnpzeHhzekAyNjMubmV0MB4X
DTA5MDcwMzAyNTUyNVoXDTEwMDcwMzAyNTUyNVowZDELMAkGA1UEBhMCY24xCzAJ
BgNVBAgMAmJqMQswCQYDVQQKDAJoeDELMAkGA1UECwwCaHgxDzANBgNVBAMMBnpz
eHhzejEdMBsGCSqGSIb3DQEJARYOenN4eHN6QDI2My5uZXQwgZ8wDQYJKoZIhvcN
AQEBBQADgY0AMIGJAoGBAJkKFtVZIAghGEdzLTI/Wxjx4tVLk0qy9FHQvF1eEpnF
oxaxmGTi+jGznug2u6weZfTPBY7oYS4nphWRtuiTrqopPI5l9LXm4uqctXsAWrO9
u2SjmmvIRYSFDif5TXIbiyB2K6axr3n8pc+mw9l/rc1pS7t0DgSoy+TFZ+a44JcN
AgMBAAGjezB5MAkGA1UdEwQCMAAwLAYJYIZIAYb4QgENBB8WHU9wZW5TU0wgR2Vu
ZXJhdGVkIENlcnRpZmljYXRlMB0GA1UdDgQWBBSvPb5M5035MWyTJtBtzwH8LC/V
ajAfBgNVHSMEGDAWgBRc5HY4EgAVnQ1BywyqDfOM/I7gkDANBgkqhkiG9w0BAQUF
AAOBgQARoYyqyYXsRQjGnqXteeIarPARvYqq7Ma7OabCgEgBtydPDD1Xc5jHaBGi
FHzc3nng3MKC1lexSypN1BHwSmUF0yaCm69mb2JXtway1sXY9yoadIMR87pEFkhq
kDw4ffkyebRTwO7vCV4G0uuPOw0e2qC6Su1EMoo2AuD67nheQA==
-----END CERTIFICATE-----
