Certificate:
    Data:
        Version: 3 (0x2)
        Serial Number:
            8a:71:b6:97:ac:93:93:ae
        Signature Algorithm: sha1WithRSAEncryption
        Issuer: C=cn, ST=bj, O=hx, OU=hx, CN=zsxxsz/emailAddress=zsxxsz@263.net
        Validity
            Not Before: Jul  9 05:40:15 2009 GMT
            Not After : Jul  8 05:40:15 2012 GMT
        Subject: C=cn, ST=bj, O=hx, OU=hx, CN=zsxxsz/emailAddress=zsxxsz@263.net
        Subject Public Key Info:
            Public Key Algorithm: rsaEncryption
                Public-Key: (1024 bit)
                Modulus:
                    00:a1:46:7b:66:24:96:93:50:5d:68:78:ad:78:64:
                    68:b0:13:43:fe:f4:04:5c:ee:31:85:66:68:09:a0:
                    59:c3:4b:a3:a8:21:3b:3d:9e:1a:06:71:b5:17:44:
                    ea:a6:2e:2d:a7:d0:c7:e3:ed:0d:ca:1d:b3:5c:92:
                    0c:9c:a9:5e:7c:66:85:12:e0:92:21:38:71:3e:f0:
                    7c:db:ba:e9:f8:57:f5:79:47:3b:a0:8a:4c:91:11:
                    43:1c:62:91:9a:4b:f7:d1:25:fc:c6:9c:27:12:df:
                    2f:b5:cf:f5:8d:56:b7:77:68:72:67:ab:81:0a:ba:
                    a6:38:82:35:04:d4:e0:79:51
                Exponent: 65537 (0x10001)
        X509v3 extensions:
            X509v3 Subject Key Identifier: 
                08:7D:CB:91:88:10:BA:75:F8:23:BE:DC:E9:5A:D4:CD:2E:43:D6:FB
            X509v3 Authority Key Identifier: 
                keyid:08:7D:CB:91:88:10:BA:75:F8:23:BE:DC:E9:5A:D4:CD:2E:43:D6:FB

            X509v3 Basic Constraints: 
                CA:TRUE
    Signature Algorithm: sha1WithRSAEncryption
        7d:1e:4e:fc:3f:f1:2b:48:64:96:e6:a2:02:1b:97:66:0f:85:
        af:4c:43:d6:a5:da:a2:3e:73:55:34:9f:07:b1:6f:11:08:cf:
        46:29:24:da:5a:f0:81:92:4d:fa:c7:ff:c5:ed:08:49:b3:73:
        6b:56:7a:84:50:d5:b0:f8:89:0a:f1:e9:e5:af:a2:aa:87:95:
        66:aa:1d:6f:db:00:24:1a:4a:47:e5:74:6b:cf:32:0e:1c:24:
        1b:ab:d0:6f:de:59:3c:e3:46:59:2a:61:1f:ae:35:d4:ee:a0:
        44:65:64:e3:0c:b3:ce:26:26:5e:80:fa:33:4d:f6:9f:1a:d9:
        7a:74
-----BEGIN CERTIFICATE-----
MIICljCCAf+gAwIBAgIJAIpxtpesk5OuMA0GCSqGSIb3DQEBBQUAMGQxCzAJBgNV
BAYTAmNuMQswCQYDVQQIDAJiajELMAkGA1UECgwCaHgxCzAJBgNVBAsMAmh4MQ8w
DQYDVQQDDAZ6c3h4c3oxHTAbBgkqhkiG9w0BCQEWDnpzeHhzekAyNjMubmV0MB4X
DTA5MDcwOTA1NDAxNVoXDTEyMDcwODA1NDAxNVowZDELMAkGA1UEBhMCY24xCzAJ
BgNVBAgMAmJqMQswCQYDVQQKDAJoeDELMAkGA1UECwwCaHgxDzANBgNVBAMMBnpz
eHhzejEdMBsGCSqGSIb3DQEJARYOenN4eHN6QDI2My5uZXQwgZ8wDQYJKoZIhvcN
AQEBBQADgY0AMIGJAoGBAKFGe2YklpNQXWh4rXhkaLATQ/70BFzuMYVmaAmgWcNL
o6ghOz2eGgZxtRdE6qYuLafQx+PtDcods1ySDJypXnxmhRLgkiE4cT7wfNu66fhX
9XlHO6CKTJERQxxikZpL99El/MacJxLfL7XP9Y1Wt3docmergQq6pjiCNQTU4HlR
AgMBAAGjUDBOMB0GA1UdDgQWBBQIfcuRiBC6dfgjvtzpWtTNLkPW+zAfBgNVHSME
GDAWgBQIfcuRiBC6dfgjvtzpWtTNLkPW+zAMBgNVHRMEBTADAQH/MA0GCSqGSIb3
DQEBBQUAA4GBAH0eTvw/8StIZJbmogIbl2YPha9MQ9al2qI+c1U0nwexbxEIz0Yp
JNpa8IGSTfrH/8XtCEmzc2tWeoRQ1bD4iQrx6eWvoqqHlWaqHW/bACQaSkfldGvP
Mg4cJBur0G/eWTzjRlkqYR+uNdTuoERlZOMMs84mJl6A+jNN9p8a2Xp0
-----END CERTIFICATE-----
